EXPORTS
    ConvertUTF16toUTF8 @1
    ConvertUTF8toUTF16 @2
    _Z10get_doublef @3
    _Z10giac_yylexPN4giac3genEPv @4
    _Z10my_sprintfPcPKcz @5
    _Z11giac_yyfreePvS_ @6
    _Z12giac_yyallocjPv @7
    _Z12giac_yyerrorPvPKc @8
    _Z13giac_yyget_inPv @9
    _Z13giac_yyset_inP6_iobufPv @10
    _Z13tinymt32_initP10tinymt32_tj @11
    _Z14giac_yyget_outPv @12
    _Z14giac_yyreallocPvjS_ @13
    _Z14giac_yyrestartP6_iobufPv @14
    _Z14giac_yyset_outP6_iobufPv @15
    _Z15giac_yyget_lengPv @16
    _Z15giac_yyget_lvalPv @17
    _Z15giac_yyget_textPv @18
    _Z15giac_yylex_initPPv @19
    _Z15giac_yyset_lvalPN4giac3genEPv @20
    _Z16fis_exactly_zerof @21
    _Z16giac_yyget_debugPv @22
    _Z16giac_yyget_extraPv @23
    _Z16giac_yyset_debugiPv @24
    _Z16giac_yyset_extraPKN4giac7contextEPv @25
    _Z17giac_yyget_columnPv @26
    _Z17giac_yyget_linenoPv @27
    _Z17giac_yyset_columniPv @28
    _Z17giac_yyset_linenoiPv @29
    _Z18giac_yy_scan_bytesPKcjPv @30
    _Z18giac_yylex_destroyPv @31
    _Z19giac_yy_scan_bufferPcjPv @32
    _Z19giac_yy_scan_stringPKcPv @33
    _Z20giac_yy_flush_bufferP15yy_buffer_statePv @34
    _Z21giac_yy_create_bufferP6_iobufiPv @35
    _Z21giac_yy_delete_bufferP15yy_buffer_statePv @36
    _Z21giac_yylex_init_extraPKN4giac7contextEPPv @37
    _Z22tinymt32_init_by_arrayP10tinymt32_tPji @38
    _Z23giac_yypop_buffer_statePv @39
    _Z24giac_yy_switch_to_bufferP15yy_buffer_statePv @40
    _Z24giac_yypush_buffer_stateP15yy_buffer_statePv @41
    _Z4finvf @42
    _Z4fpowff @43
    _Z5fsignf @44
    _Z6atan2fffi @45
    _Z6cobylaiiPdddiPiPFiiiS_S_S_PvES1_ @46
    _Z6ffloorf @47
    _Z6fgammaf @48
    _Z7get_intf @49
    _Z7gettextPKc @50
    _Z8giac_logd @51
    _ZGVZNK4giac6tensorINS_3genEEclERKNS_7index_mEE6myzero @52 DATA
    _ZN10tinymt32_tC1Ej @53
    _ZN15init_gmp_memory8refcountE @54 DATA
    _ZN15init_gmp_memoryC1Ev @55
    _ZN15init_gmp_memoryC2Ev @56
    _ZN15init_gmp_memoryD1Ev @57
    _ZN15init_gmp_memoryD2Ev @58
    _ZN4giac10AddmodpolyEN9__gnu_cxx17__normal_iteratorIPKNS_3genESt6vectorIS2_SaIS2_EEEES8_S8_S8_PNS_11environmentERNS_15dbgprint_vectorIS2_EE @59
    _ZN4giac10COORD_SIZEE @60 DATA
    _ZN4giac10D_at_DiracE @61 DATA
    _ZN4giac10D_at_GammaE @62 DATA
    _ZN4giac10D_at_acoshE @63 DATA
    _ZN4giac10D_at_asinhE @64 DATA
    _ZN4giac10D_at_atanhE @65 DATA
    _ZN4giac10D_at_log10E @66 DATA
    _ZN4giac10D_at_quoteE @67 DATA
    _ZN4giac10GIAC_PADICE @68 DATA
    _ZN4giac10NTL_MODGCDE @69 DATA
    _ZN4giac10PARAM_STEPE @70 DATA
    _ZN4giac10SubmodpolyEN9__gnu_cxx17__normal_iteratorIPKNS_3genESt6vectorIS2_SaIS2_EEEES8_S8_S8_PNS_11environmentERNS_15dbgprint_vectorIS2_EE @71
    _ZN4giac10T_unsignedINS_15dbgprint_vectorINS_3genEEEjEC1ERKS3_RKj @72
    _ZN4giac10T_unsignedINS_15dbgprint_vectorINS_3genEEEjEC1ERKS4_ @73
    _ZN4giac10T_unsignedINS_15dbgprint_vectorINS_3genEEEjEC1Ev @74
    _ZN4giac10T_unsignedINS_15dbgprint_vectorINS_3genEEEjED1Ev @75
    _ZN4giac10T_unsignedINS_15dbgprint_vectorINS_3genEEEjEaSERKS4_ @76
    _ZN4giac10T_unsignedINS_3genENS_6tdeg_tEEC1ERKS1_RKS2_ @77
    _ZN4giac10T_unsignedINS_3genENS_6tdeg_tEEC1ERKS3_ @78
    _ZN4giac10T_unsignedINS_3genENS_6tdeg_tEEC1Ev @79
    _ZN4giac10T_unsignedINS_3genENS_6tdeg_tEED1Ev @80
    _ZN4giac10T_unsignedINS_3genENS_6tdeg_tEEaSERKS3_ @81
    _ZN4giac10T_unsignedINS_3genEjEC1ERKS1_RKj @82
    _ZN4giac10T_unsignedINS_3genEjEC1ERKS2_ @83
    _ZN4giac10T_unsignedINS_3genEjEC1Ev @84
    _ZN4giac10T_unsignedINS_3genEjED1Ev @85
    _ZN4giac10T_unsignedINS_3genEjEaSERKS2_ @86
    _ZN4giac10T_unsignedINS_3genEyEC1ERKS1_RKy @87
    _ZN4giac10T_unsignedINS_3genEyEC1ERKS2_ @88
    _ZN4giac10T_unsignedINS_3genEyEC1Ev @89
    _ZN4giac10T_unsignedINS_3genEyED1Ev @90
    _ZN4giac10T_unsignedINS_3genEyEaSERKS2_ @91
    _ZN4giac10T_unsignedISt6vectorIiSaIiEEjEC1ERKS3_RKj @92
    _ZN4giac10T_unsignedISt6vectorIiSaIiEEjEC1ERKS4_ @93
    _ZN4giac10T_unsignedISt6vectorIiSaIiEEjEC1Ev @94
    _ZN4giac10T_unsignedISt6vectorIiSaIiEEjED1Ev @95
    _ZN4giac10T_unsignedISt6vectorIiSaIiEEjEaSERKS4_ @96
    _ZN4giac10T_unsignedIdjEC1ERKdRKj @97
    _ZN4giac10T_unsignedIdjEC1Ev @98
    _ZN4giac10T_unsignedIdyEC1ERKdRKy @99
    _ZN4giac10T_unsignedIdyEC1Ev @100
    _ZN4giac10T_unsignedIiNS_6tdeg_tEEC1ERKiRKS1_ @101
    _ZN4giac10T_unsignedIiNS_6tdeg_tEEC1Ev @102
    _ZN4giac10T_unsignedIijEC1ERKiRKj @103
    _ZN4giac10T_unsignedIijEC1Ev @104
    _ZN4giac10T_unsignedIiyEC1ERKiRKy @105
    _ZN4giac10T_unsignedIiyEC1Ev @106
    _ZN4giac10T_unsignedIxjEC1ERKxRKj @107
    _ZN4giac10T_unsignedIxjEC1Ev @108
    _ZN4giac10T_unsignedIxyEC1ERKxRKy @109
    _ZN4giac10T_unsignedIxyEC1Ev @110
    _ZN4giac10TegcdTlgcdINS_3genEEEvRKNS_6tensorIT_EES6_RS4_S7_S7_ @111
    _ZN4giac10TnextcoeffINS_3genEEENS_6tensorIT_EERNSt6vectorINS_8monomialIS3_EESaIS7_EE14const_iteratorERKSA_ @112
    _ZN4giac10TresultantINS_3genEEENS_6tensorIT_EERKS4_S6_ @113
    _ZN4giac10Tsturm_seqINS_3genEEEvRKNS_6tensorIT_EERS4_RSt6vectorIS4_SaIS4_EE @114
    _ZN4giac10U_unsignedIjEC1Ejj @115
    _ZN4giac10U_unsignedIjEC1Ev @116
    _ZN4giac10U_unsignedIyEC1Ev @117
    _ZN4giac10U_unsignedIyEC1Eyj @118
    _ZN4giac10_HFCC_unitE @119 DATA
    _ZN4giac10_HLanguageERKNS_3genEPKNS_7contextE @120
    _ZN4giac10_HeavisideERKNS_3genEPKNS_7contextE @121
    _ZN4giac10_IS_LINEARERKNS_3genEPKNS_7contextE @122
    _ZN4giac10_NullspaceERKNS_3genEPKNS_7contextE @123
    _ZN4giac10_POLYCOEFFERKNS_3genEPKNS_7contextE @124
    _ZN4giac10_RPN_LOCALERKNS_3genEPKNS_7contextE @125
    _ZN4giac10_RPN_UNTILERKNS_3genEPKNS_7contextE @126
    _ZN4giac10_RPN_WHILEERKNS_3genEPKNS_7contextE @127
    _ZN4giac10_ResultantERKNS_3genEPKNS_7contextE @128
    _ZN4giac10_SIGMALISTERKNS_3genEPKNS_7contextE @129
    _ZN4giac10__Btu_unitE @130 DATA
    _ZN4giac10__Fdy_unitE @131 DATA
    _ZN4giac10__Ohm_unitE @132 DATA
    _ZN4giac10__atm_unitE @133 DATA
    _ZN4giac10__bar_unitE @134 DATA
    _ZN4giac10__bbl_unitE @135 DATA
    _ZN4giac10__boe_unitE @136 DATA
    _ZN4giac10__cal_unitE @137 DATA
    _ZN4giac10__deg_unitE @138 DATA
    _ZN4giac10__dyn_unitE @139 DATA
    _ZN4giac10__erg_unitE @140 DATA
    _ZN4giac10__fbm_unitE @141 DATA
    _ZN4giac10__gon_unitE @142 DATA
    _ZN4giac10__keyboardE @143 DATA
    _ZN4giac10__kip_unitE @144 DATA
    _ZN4giac10__kph_unitE @145 DATA
    _ZN4giac10__lam_unitE @146 DATA
    _ZN4giac10__lbf_unitE @147 DATA
    _ZN4giac10__lbt_unitE @148 DATA
    _ZN4giac10__lep_unitE @149 DATA
    _ZN4giac10__lyr_unitE @150 DATA
    _ZN4giac10__mho_unitE @151 DATA
    _ZN4giac10__mil_unitE @152 DATA
    _ZN4giac10__mol_unitE @153 DATA
    _ZN4giac10__mph_unitE @154 DATA
    _ZN4giac10__nmi_unitE @155 DATA
    _ZN4giac10__ozt_unitE @156 DATA
    _ZN4giac10__pdl_unitE @157 DATA
    _ZN4giac10__psi_unitE @158 DATA
    _ZN4giac10__rad_unitE @159 DATA
    _ZN4giac10__rem_unitE @160 DATA
    _ZN4giac10__rod_unitE @161 DATA
    _ZN4giac10__rpm_unitE @162 DATA
    _ZN4giac10__tec_unitE @163 DATA
    _ZN4giac10__tep_unitE @164 DATA
    _ZN4giac10__toe_unitE @165 DATA
    _ZN4giac10__ton_unitE @166 DATA
    _ZN4giac10_acos2asinERKNS_3genEPKNS_7contextE @167
    _ZN4giac10_acos2atanERKNS_3genEPKNS_7contextE @168
    _ZN4giac10_acre_unitE @169 DATA
    _ZN4giac10_animate3dERKNS_3genEPKNS_7contextE @170
    _ZN4giac10_animationERKNS_3genEPKNS_7contextE @171
    _ZN4giac10_arcs_unitE @172 DATA
    _ZN4giac10_areaatrawERKNS_3genEPKNS_7contextE @173
    _ZN4giac10_array_stoERKNS_3genEPKNS_7contextE @174
    _ZN4giac10_asin2acosERKNS_3genEPKNS_7contextE @175
    _ZN4giac10_asin2atanERKNS_3genEPKNS_7contextE @176
    _ZN4giac10_atan2acosERKNS_3genEPKNS_7contextE @177
    _ZN4giac10_atan2asinERKNS_3genEPKNS_7contextE @178
    _ZN4giac10_backquoteERKNS_3genEPKNS_7contextE @179
    _ZN4giac10_bernoulliERKNS_3genEPKNS_7contextE @180
    _ZN4giac10_betad_cdfERKNS_3genEPKNS_7contextE @181
    _ZN4giac10_birapportERKNS_3genEPKNS_7contextE @182
    _ZN4giac10_calc_modeERKNS_3genEPKNS_7contextE @183
    _ZN4giac10_camembertERKNS_3genEPKNS_7contextE @184
    _ZN4giac10_cas_setupERKNS_3genEPKNS_7contextE @185
    _ZN4giac10_chisquareERKNS_3genEPKNS_7contextE @186
    _ZN4giac10_chooseboxERKNS_3genEPKNS_7contextE @187
    _ZN4giac10_companionERKNS_3genEPKNS_7contextE @188
    _ZN4giac10_count_infERKNS_3genEPKNS_7contextE @189
    _ZN4giac10_count_supERKNS_3genEPKNS_7contextE @190
    _ZN4giac10_cpartfracERKNS_3genEPKNS_7contextE @191
    _ZN4giac10_cst_alphaE @192 DATA
    _ZN4giac10_cst_sigmaE @193 DATA
    _ZN4giac10_curvatureERKNS_3genEPKNS_7contextE @194
    _ZN4giac10_dayofweekERKNS_3genEPKNS_7contextE @195
    _ZN4giac10_decrementERKNS_3genEPKNS_7contextE @196
    _ZN4giac10_deltalistERKNS_3genEPKNS_7contextE @197
    _ZN4giac10_demi_coneERKNS_3genEPKNS_7contextE @198
    _ZN4giac10_det_minorERKNS_3genEPKNS_7contextE @199
    _ZN4giac10_differentERKNS_3genEPKNS_7contextE @200
    _ZN4giac10_dot_paperERKNS_3genEPKNS_7contextE @201
    _ZN4giac10_eigenvalsERKNS_3genEPKNS_7contextE @202
    _ZN4giac10_eliminateERKNS_3genEPKNS_7contextE @203
    _ZN4giac10_enveloppeERKNS_3genEPKNS_7contextE @204
    _ZN4giac10_est_carreERKNS_3genEPKNS_7contextE @205
    _ZN4giac10_exinscritERKNS_3genEPKNS_7contextE @206
    _ZN4giac10_factor_xnERKNS_3genEPKNS_7contextE @207
    _ZN4giac10_factorialERKNS_3genEPKNS_7contextE @208
    _ZN4giac10_fath_unitE @209 DATA
    _ZN4giac10_flam_unitE @210 DATA
    _ZN4giac10_ftUS_unitE @211 DATA
    _ZN4giac10_galC_unitE @212 DATA
    _ZN4giac10_gaussquadERKNS_3genEPKNS_7contextE @213
    _ZN4giac10_geometricERKNS_3genEPKNS_7contextE @214
    _ZN4giac10_gmol_unitE @215 DATA
    _ZN4giac10_grad_unitE @216 DATA
    _ZN4giac10_graph2texERKNS_3genEPKNS_7contextE @217
    _ZN4giac10_graph_sccERKNS_3genEPKNS_7contextE @218
    _ZN4giac10_groupermuERKNS_3genEPKNS_7contextE @219
    _ZN4giac10_heap_multERKNS_3genEPKNS_7contextE @220
    _ZN4giac10_histogramERKNS_3genEPKNS_7contextE @221
    _ZN4giac10_hyperboleERKNS_3genEPKNS_7contextE @222
    _ZN4giac10_hyperplanERKNS_3genEPKNS_7contextE @223
    _ZN4giac10_icosaedreERKNS_3genEPKNS_7contextE @224
    _ZN4giac10_inHg_unitE @225 DATA
    _ZN4giac10_incrementERKNS_3genEPKNS_7contextE @226
    _ZN4giac10_inputformERKNS_3genEPKNS_7contextE @227
    _ZN4giac10_integrateERKNS_3genEPKNS_7contextE @228
    _ZN4giac10_intersectERKNS_3genEPKNS_7contextE @229
    _ZN4giac10_inversionERKNS_3genEPKNS_7contextE @230
    _ZN4giac10_invztransERKNS_3genEPKNS_7contextE @231
    _ZN4giac10_knot_unitE @232 DATA
    _ZN4giac10_laplacianERKNS_3genEPKNS_7contextE @233
    _ZN4giac10_lncollectERKNS_3genEPKNS_7contextE @234
    _ZN4giac10_longueur2ERKNS_3genEPKNS_7contextE @235
    _ZN4giac10_makesuiteERKNS_3genEPKNS_7contextE @236
    _ZN4giac10_miUS_unitE @237 DATA
    _ZN4giac10_mile_unitE @238 DATA
    _ZN4giac10_mmHg_unitE @239 DATA
    _ZN4giac10_molK_unitE @240 DATA
    _ZN4giac10_moustacheERKNS_3genEPKNS_7contextE @241
    _ZN4giac10_normalizeERKNS_3genEPKNS_7contextE @242
    _ZN4giac10_normalmodERKNS_3genEPKNS_7contextE @243
    _ZN4giac10_ozUK_unitE @244 DATA
    _ZN4giac10_ozfl_unitE @245 DATA
    _ZN4giac10_paralleleERKNS_3genEPKNS_7contextE @246
    _ZN4giac10_parameterERKNS_3genEPKNS_7contextE @247
    _ZN4giac10_paramplotERKNS_3genEPKNS_7contextE @248
    _ZN4giac10_perimetreERKNS_3genEPKNS_7contextE @249
    _ZN4giac10_permu2matERKNS_3genEPKNS_7contextE @250
    _ZN4giac10_piecewiseERKNS_3genEPKNS_7contextE @251
    _ZN4giac10_plotfieldERKNS_3genEPKNS_7contextE @252
    _ZN4giac10_plotparamERKNS_3genEPKNS_7contextE @253
    _ZN4giac10_plotpolarERKNS_3genEPKNS_7contextE @254
    _ZN4giac10_plotprobaERKNS_3genEPKNS_7contextE @255
    _ZN4giac10_point_divERKNS_3genEPKNS_7contextE @256
    _ZN4giac10_pointplusERKNS_3genEPKNS_7contextE @257
    _ZN4giac10_pointprodERKNS_3genEPKNS_7contextE @258
    _ZN4giac10_poly2symbERKNS_3genEPKNS_7contextE @259
    _ZN4giac10_polygammaERKNS_3genEPKNS_7contextE @260
    _ZN4giac10_poslbdLMQERKNS_3genEPKNS_7contextE @261
    _ZN4giac10_potentialERKNS_3genEPKNS_7contextE @262
    _ZN4giac10_powexpandERKNS_3genEPKNS_7contextE @263
    _ZN4giac10_ptUK_unitE @264 DATA
    _ZN4giac10_puissanceERKNS_3genEPKNS_7contextE @265
    _ZN4giac10_quadriqueERKNS_3genEPKNS_7contextE @266
    _ZN4giac10_quartile1ERKNS_3genEPKNS_7contextE @267
    _ZN4giac10_quartile3ERKNS_3genEPKNS_7contextE @268
    _ZN4giac10_quartilesERKNS_3genEPKNS_7contextE @269
    _ZN4giac10_quote_powERKNS_3genEPKNS_7contextE @270
    _ZN4giac10_ratnormalERKNS_3genEPKNS_7contextE @271
    _ZN4giac10_realprootERKNS_3genEPKNS_7contextE @272
    _ZN4giac10_rectangleERKNS_3genEPKNS_7contextE @273
    _ZN4giac10_resultantERKNS_3genEPKNS_7contextE @274
    _ZN4giac10_signatureERKNS_3genEPKNS_7contextE @275
    _ZN4giac10_slug_unitE @276 DATA
    _ZN4giac10_sylvesterERKNS_3genEPKNS_7contextE @277
    _ZN4giac10_symb2polyERKNS_3genEPKNS_7contextE @278
    _ZN4giac10_tablefuncERKNS_3genEPKNS_7contextE @279
    _ZN4giac10_tbsp_unitE @280 DATA
    _ZN4giac10_tepC_unitE @281 DATA
    _ZN4giac10_textinputERKNS_3genEPKNS_7contextE @282
    _ZN4giac10_torr_unitE @283 DATA
    _ZN4giac10_try_catchERKNS_3genEPKNS_7contextE @284
    _ZN4giac10_tsimplifyERKNS_3genEPKNS_7contextE @285
    _ZN4giac10_unarchiveERKNS_3genEPKNS_7contextE @286
    _ZN4giac10_usimplifyERKNS_3genEPKNS_7contextE @287
    _ZN4giac10_valuationERKNS_3genEPKNS_7contextE @288
    _ZN4giac10_wilcoxonpERKNS_3genEPKNS_7contextE @289
    _ZN4giac10_wilcoxonsERKNS_3genEPKNS_7contextE @290
    _ZN4giac10_wilcoxontERKNS_3genEPKNS_7contextE @291
    _ZN4giac10_with_sqrtERKNS_3genEPKNS_7contextE @292
    _ZN4giac10_xcas_modeERKNS_3genEPKNS_7contextE @293
    _ZN4giac10_xyztrangeERKNS_3genEPKNS_7contextE @294
    _ZN4giac10acostoasinERKNS_3genEPKNS_7contextE @295
    _ZN4giac10acostoatanERKNS_3genEPKNS_7contextE @296
    _ZN4giac10addmodpolyERKNS_15dbgprint_vectorINS_3genEEES4_PNS_11environmentERS2_ @297
    _ZN4giac10addmodpolyERKNS_15dbgprint_vectorINS_3genEEES4_RS2_ @298
    _ZN4giac10addmultmodERiiii @299
    _ZN4giac10addvecteurERKNS_15dbgprint_vectorINS_3genEEES4_ @300
    _ZN4giac10addvecteurERKNS_15dbgprint_vectorINS_3genEEES4_RS2_ @301
    _ZN4giac10angle_modeEPKNS_7contextE @302
    _ZN4giac10animationsERKNS_3genE @303
    _ZN4giac10apply_unitERKNS_3genERKPFS0_S2_PKNS_7contextEES5_ @304
    _ZN4giac10asintoacosERKNS_3genEPKNS_7contextE @305
    _ZN4giac10asintoatanERKNS_3genEPKNS_7contextE @306
    _ZN4giac10at_Airy_AiE @307 DATA
    _ZN4giac10at_Airy_BiE @308 DATA
    _ZN4giac10at_BesselIE @309 DATA
    _ZN4giac10at_BesselJE @310 DATA
    _ZN4giac10at_BesselKE @311 DATA
    _ZN4giac10at_BesselYE @312 DATA
    _ZN4giac10at_DrawInvE @313 DATA
    _ZN4giac10at_DrawPolE @314 DATA
    _ZN4giac10at_EDITMATE @315 DATA
    _ZN4giac10at_HDigitsE @316 DATA
    _ZN4giac10at_HFormatE @317 DATA
    _ZN4giac10at_NORMALDE @318 DATA
    _ZN4giac10at_NTHROOTE @319 DATA
    _ZN4giac10at_PERCENTE @320 DATA
    _ZN4giac10at_POISSONE @321 DATA
    _ZN4giac10at_RPN_FORE @322 DATA
    _ZN4giac10at_RequestE @323 DATA
    _ZN4giac10at_RplcPicE @324 DATA
    _ZN4giac10at_SetFoldE @325 DATA
    _ZN4giac10at_angleatE @326 DATA
    _ZN4giac10at_archiveE @327 DATA
    _ZN4giac10at_cauchydE @328 DATA
    _ZN4giac10at_chinremE @329 DATA
    _ZN4giac10at_classesE @330 DATA
    _ZN4giac10at_colSwapE @331 DATA
    _ZN4giac10at_collectE @332 DATA
    _ZN4giac10at_commentE @333 DATA
    _ZN4giac10at_composeE @334 DATA
    _ZN4giac10at_convertE @335 DATA
    _ZN4giac10at_couleurE @336 DATA
    _ZN4giac10at_desolveE @337 DATA
    _ZN4giac10at_displayE @338 DATA
    _ZN4giac10at_dotprodE @339 DATA
    _ZN4giac10at_elementE @340 DATA
    _ZN4giac10at_ellipseE @341 DATA
    _ZN4giac10at_epsilonE @342 DATA
    _ZN4giac10at_exp2powE @343 DATA
    _ZN4giac10at_factorsE @344 DATA
    _ZN4giac10at_feuilleE @345 DATA
    _ZN4giac10at_fisherdE @346 DATA
    _ZN4giac10at_fracmodE @347 DATA
    _ZN4giac10at_ggb_angE @348 DATA
    _ZN4giac10at_greduceE @349 DATA
    _ZN4giac10at_halftanE @350 DATA
    _ZN4giac10at_hamdistE @351 DATA
    _ZN4giac10at_hauteurE @352 DATA
    _ZN4giac10at_hyp2expE @353 DATA
    _ZN4giac10at_ifactorE @354 DATA
    _ZN4giac10at_inscritE @355 DATA
    _ZN4giac10at_iquoremE @356 DATA
    _ZN4giac10at_laplaceE @357 DATA
    _ZN4giac10at_legendeE @358 DATA
    _ZN4giac10at_losangeE @359 DATA
    _ZN4giac10at_makematE @360 DATA
    _ZN4giac10at_medianeE @361 DATA
    _ZN4giac10at_normaldE @362 DATA
    _ZN4giac10at_nprimesE @363 DATA
    _ZN4giac10at_odeplotE @364 DATA
    _ZN4giac10at_parameqE @365 DATA
    _ZN4giac10at_plotodeE @366 DATA
    _ZN4giac10at_plotseqE @367 DATA
    _ZN4giac10at_poissonE @368 DATA
    _ZN4giac10at_polaireE @369 DATA
    _ZN4giac10at_prependE @370 DATA
    _ZN4giac10at_productE @371 DATA
    _ZN4giac10at_programE @372 DATA
    _ZN4giac10at_randexpE @373 DATA
    _ZN4giac10at_reorderE @374 DATA
    _ZN4giac10at_replaceE @375 DATA
    _ZN4giac10at_rmwatchE @376 DATA
    _ZN4giac10at_rombergE @377 DATA
    _ZN4giac10at_rowswapE @378 DATA
    _ZN4giac10at_segmentE @379 DATA
    _ZN4giac10at_seqplotE @380 DATA
    _ZN4giac10at_slopeatE @381 DATA
    _ZN4giac10at_sommetsE @382 DATA
    _ZN4giac10at_studentE @383 DATA
    _ZN4giac10at_sturmabE @384 DATA
    _ZN4giac10at_swapcolE @385 DATA
    _ZN4giac10at_swaprowE @386 DATA
    _ZN4giac10at_tangentE @387 DATA
    _ZN4giac10at_tantqueE @388 DATA
    _ZN4giac10at_texpandE @389 DATA
    _ZN4giac10at_threadsE @390 DATA
    _ZN4giac10at_ti_semiE @391 DATA
    _ZN4giac10at_tilocalE @392 DATA
    _ZN4giac10at_trigcosE @393 DATA
    _ZN4giac10at_trigsinE @394 DATA
    _ZN4giac10at_trigtanE @395 DATA
    _ZN4giac10at_unapplyE @396 DATA
    _ZN4giac10at_uniformE @397 DATA
    _ZN4giac10at_unquoteE @398 DATA
    _ZN4giac10at_versionE @399 DATA
    _ZN4giac10at_virguleE @400 DATA
    _ZN4giac10atantoacosERKNS_3genEPKNS_7contextE @401
    _ZN4giac10atantoasinERKNS_3genEPKNS_7contextE @402
    _ZN4giac10autoscalegERKNS_3genERSt6vectorIdSaIdEES6_S6_PKNS_7contextE @403
    _ZN4giac10betad_icdfERKNS_3genES2_S2_PKNS_7contextE @404
    _ZN4giac10cauchy_cdfERKNS_3genES2_S2_PKNS_7contextE @405
    _ZN4giac10ceil2floorERKNS_3genEPKNS_7contextE @406
    _ZN4giac10change_dimERNS_6tensorINS_3genEEEi @407
    _ZN4giac10class_sizeE @408 DATA
    _ZN4giac10clean_iextERNS_15dbgprint_vectorINS_3genEEES3_RKS1_PKNS_7contextE @409
    _ZN4giac10clean_iextERNS_3genES1_RKS0_PKNS_7contextE @410
    _ZN4giac10common_EXTERNS_3genES1_PKNS_15dbgprint_vectorIS0_EEPKNS_7contextE @411
    _ZN4giac10cos2sintanERKNS_3genEPKNS_7contextE @412
    _ZN4giac10cross_prodERKNS_3genES2_S2_PKNS_7contextE @413
    _ZN4giac10cst_two_piE @414 DATA
    _ZN4giac10csturm_seqERNS_15dbgprint_vectorINS_3genEEES3_S3_S3_S3_PKNS_7contextE @415
    _ZN4giac10cut_stringERKSsiRSt6vectorIiSaIiEE @416
    _ZN4giac10cycle2permERKSt6vectorIiSaIiEE @417
    _ZN4giac10cyclotomicEi @418
    _ZN4giac10debug_loopERNS_3genEPKNS_7contextE @419
    _ZN4giac10derivativeERKNS_15dbgprint_vectorINS_3genEEE @420
    _ZN4giac10derivativeERKNS_15dbgprint_vectorINS_3genEEEPNS_11environmentE @421
    _ZN4giac10divmodpolyERKNS_15dbgprint_vectorINS_3genEEERKS1_PNS_11environmentERS2_ @422
    _ZN4giac10divmodpolyERKNS_15dbgprint_vectorINS_3genEEERKS1_RS2_ @423
    _ZN4giac10divvecteurERKNS_15dbgprint_vectorINS_3genEEERKS1_ @424
    _ZN4giac10divvecteurERKNS_15dbgprint_vectorINS_3genEEERKS1_RS2_ @425
    _ZN4giac10do_point3dERKNS_3genE @426
    _ZN4giac10doapplyinvERKNS_3genEPKNS_7contextE @427
    _ZN4giac10dotvecteurERKNS_15dbgprint_vectorINS_3genEEES4_ @428
    _ZN4giac10dotvecteurERKNS_15dbgprint_vectorINS_3genEEES4_i @429
    _ZN4giac10dotvecteurERKNS_3genES2_ @430
    _ZN4giac10dotvecteurERKNS_3genES2_PKNS_7contextE @431
    _ZN4giac10dotvecteurERKSt6vectorISt7complexIdESaIS2_EES6_ @432
    _ZN4giac10dotvecteurERKSt6vectorIdSaIdEES4_ @433
    _ZN4giac10double2genEd @434
    _ZN4giac10doublerrefERNS_13matrix_doubleERNS_15dbgprint_vectorINS_3genEEERSt6vectorIiSaIiEES9_Rdiiiiiiid @435
    _ZN4giac10equal2diffERKNS_3genE @436
    _ZN4giac10est_aligneERKNS_3genES2_S2_PKNS_7contextE @437
    _ZN4giac10eval_levelEPKNS_7contextE @438
    _ZN4giac10eval_levelEiPKNS_7contextE @439
    _ZN4giac10evalf_FRACERKNS_9TfractionINS_3genEEEPKNS_7contextE @440
    _ZN4giac10evalf_VECTERKNS_15dbgprint_vectorINS_3genEEEiiPKNS_7contextE @441
    _ZN4giac10exp2sincosERKNS_3genEPKNS_7contextE @442
    _ZN4giac10expln2trigERKNS_3genEPKNS_7contextE @443
    _ZN4giac10exptopowerERKNS_3genEPKNS_7contextE @444
    _ZN4giac10ext_factorERKNS_6tensorINS_3genEEERKS1_RS1_RS2_RSt6vectorINS_7facteurIS2_EESaISB_EEbS7_ @445
    _ZN4giac10ext_reduceERKNS_3genE @446
    _ZN4giac10ext_reduceERKNS_3genES2_ @447
    _ZN4giac10find_bv_beEiRiS0_ @448
    _ZN4giac10find_rangeERKNS_3genERNS_15dbgprint_vectorIS0_EEPKNS_7contextE @449
    _ZN4giac10firstcoeffERKNS_6tensorINS_3genEEE @450
    _ZN4giac10fourier_anERKNS_3genES2_S2_S2_S2_PKNS_7contextE @451
    _ZN4giac10fourier_bnERKNS_3genES2_S2_S2_S2_PKNS_7contextE @452
    _ZN4giac10fourier_cnERKNS_3genES2_S2_S2_S2_PKNS_7contextE @453
    _ZN4giac10gcdmodpolyERKNS_15dbgprint_vectorINS_3genEEES4_PNS_11environmentERS2_ @454
    _ZN4giac10gen2mathmlERKNS_3genEPKNS_7contextE @455
    _ZN4giac10gen2mathmlERKNS_3genERSsPKNS_7contextE @456
    _ZN4giac10gen2stringERKNS_3genE @457
    _ZN4giac10gen2stringERKNS_3genEiPKNS_7contextE @458
    _ZN4giac10gen_sort_fEN9__gnu_cxx17__normal_iteratorIPNS_3genESt6vectorIS2_SaIS2_EEEES7_PFbRKS2_S9_E @459
    _ZN4giac10gensizeerrEPKNS_7contextE @460
    _ZN4giac10gensizeerrEPKcRNS_3genE @461
    _ZN4giac10gensizeerrERKSs @462
    _ZN4giac10gensizeerrERNS_3genEPKNS_7contextE @463
    _ZN4giac10gentypeerrEPKNS_7contextE @464
    _ZN4giac10gentypeerrEPKcRNS_3genE @465
    _ZN4giac10gentypeerrERKSs @466
    _ZN4giac10gentypeerrERNS_3genEPKNS_7contextE @467
    _ZN4giac10giac_bitorERKNS_3genES2_ @468
    _ZN4giac10giac_floorEd @469
    _ZN4giac10hashdivremINS_15dbgprint_vectorINS_3genEEEjNS_6ModredEEEiRKSt6vectorINS_10T_unsignedIT_T0_EESaIS9_EESD_RSB_SE_RKS5_IS8_SaIS8_EERKT1_dbi @470
    _ZN4giac10hashdivremINS_3genEjiEEiRKSt6vectorINS_10T_unsignedIT_T0_EESaIS6_EESA_RS8_SB_RKS2_IS5_SaIS5_EERKT1_dbi @471
    _ZN4giac10hashdivremISt6vectorIiSaIiEEjNS_6modredEEEiRKS1_INS_10T_unsignedIT_T0_EESaIS8_EESC_RSA_SD_RKS1_IS7_SaIS7_EERKT1_dbi @472
    _ZN4giac10hashdivremIijiEEiRKSt6vectorINS_10T_unsignedIT_T0_EESaIS5_EES9_RS7_SA_RKS1_IS4_SaIS4_EERKT1_dbi @473
    _ZN4giac10hashdivremIiyiEEiRKSt6vectorINS_10T_unsignedIT_T0_EESaIS5_EES9_RS7_SA_RKS1_IS4_SaIS4_EERKT1_dbi @474
    _ZN4giac10hashdivremIxjiEEiRKSt6vectorINS_10T_unsignedIT_T0_EESaIS5_EES9_RS7_SA_RKS1_IS4_SaIS4_EERKT1_dbi @475
    _ZN4giac10hashdivremIxyiEEiRKSt6vectorINS_10T_unsignedIT_T0_EESaIS5_EES9_RS7_SA_RKS1_IS4_SaIS4_EERKT1_dbi @476
    _ZN4giac10hessenbergERNS_10std_matrixINS_3genEEES3_PKNS_7contextE @477
    _ZN4giac10history_inEPKNS_7contextE @478
    _ZN4giac10hornercintERKNS_15dbgprint_vectorINS_3genEEERKS1_S6_b @479
    _ZN4giac10hornerfracERKNS_15dbgprint_vectorINS_3genEEERKS1_S6_RS1_S7_ @480
    _ZN4giac10in_fracmodERKNS_3genES2_RA1_12__mpz_structS5_S5_S5_S5_S5_S5_S5_S5_S5_RS0_S6_ @481
    _ZN4giac10in_modrrefERKNS_15dbgprint_vectorINS_3genEEERSt6vectorIS5_IiSaIiEESaIS7_EERS2_SB_RS1_iiiiiiiiRKS1_bbPNS_19smallmodrref_temp_tE @482
    _ZN4giac10in_texmacsE @483 DATA
    _ZN4giac10in_zgbasisERNS_11vectpolymodEjRSt6vectorIjSaIjEEibPS2_ISt4pairIjjESaIS7_EERS2_INS_7zinfo_tESaISB_EEb @484
    _ZN4giac10init_rootsERSt6vectorINS_7basis_tESaIS1_EERS0_IiSaIiEEiiRKNS_3genESA_RKNS_15dbgprint_vectorIS8_EERA1_12__mpz_structj @485
    _ZN4giac10int2doubleEi @486
    _ZN4giac10int_lu2invERSt6vectorIS0_IiSaIiEESaIS2_EEiRKS2_ @487
    _ZN4giac10is_clippedEdddddddRdS0_S0_S0_ @488
    _ZN4giac10is_greaterERKNS_3genES2_PKNS_7contextE @489
    _ZN4giac10is_integerERKNS_3genE @490
    _ZN4giac10is_segmentERKNS_3genE @491
    _ZN4giac10line2curveERKNS_3genE @492
    _ZN4giac10linearfindERKNS_6tensorINS_3genEEEPNS_11environmentERS2_RNS_8vectpolyERi @493
    _ZN4giac10linsolve_lERKNS_15dbgprint_vectorINS_3genEEES4_RS2_ @494
    _ZN4giac10linsolve_uERKNS_15dbgprint_vectorINS_3genEEES4_RS2_ @495
    _ZN4giac10local_evalEPKNS_7contextE @496
    _ZN4giac10local_evalEbPKNS_7contextE @497
    _ZN4giac10lp_entry_tC1Ejj @498
    _ZN4giac10makeline32ERKNS_7polymodEPKNS_6tdeg_tES2_RSt6vectorINS_8sparse32ESaIS7_EE @499
    _ZN4giac10maple_rootERKNS_3genEPKNS_7contextE @500
    _ZN4giac10maptoarrayERKSt3mapINS_3genES1_NS_10comparegenESaISt4pairIKS1_S1_EEEPKNS_7contextE @501
    _ZN4giac10mathml_endE @502 DATA
    _ZN4giac10mbox_beginE @503 DATA
    _ZN4giac10mergeindexERKSt6vectorIsSaIsEES4_ @504
    _ZN4giac10mkrand2d3dEiiPFNS_3genERKS0_PKNS_7contextEES5_ @505
    _ZN4giac10mod_factorERKNS_6tensorINS_3genEEERS2_iRSt6vectorINS_7facteurIS2_EESaIS8_EE @506
    _ZN4giac10mod_gbasisERNS_9vectpoly8EbbRbPKNS_7contextE @507
    _ZN4giac10modproductERKNS_15dbgprint_vectorINS_3genEEERKS1_ @508
    _ZN4giac10modularizeERKNS_15dbgprint_vectorINS_3genEEERKS1_PNS_11environmentE @509
    _ZN4giac10modularizeERKNS_6tensorINS_3genEEERKS1_PNS_11environmentE @510
    _ZN4giac10modularizeERNS_6tensorINS_3genEEERKS1_ @511
    _ZN4giac10mulmodpolyEN9__gnu_cxx17__normal_iteratorIPKNS_15dbgprint_vectorINS_3genEEESt6vectorIS4_SaIS4_EEEESA_PNS_11environmentERS4_ @512
    _ZN4giac10mulmodpolyEPN9__gnu_cxx17__normal_iteratorIPKNS_15dbgprint_vectorINS_3genEEESt6vectorIS4_SaIS4_EEEEiiPNS_11environmentERS4_ @513
    _ZN4giac10mulmodpolyERKNS_15dbgprint_vectorINS_3genEEERKS1_PNS_11environmentERS2_ @514
    _ZN4giac10mulmodpolyERKNS_15dbgprint_vectorINS_3genEEERKS1_RS2_ @515
    _ZN4giac10mulmodpolyERKNS_15dbgprint_vectorINS_3genEEES4_PNS_11environmentERS2_ @516
    _ZN4giac10my_gprintfE @517 DATA
    _ZN4giac10my_mpz_gcdERA1_12__mpz_structRA1_KS0_S5_ @518
    _ZN4giac10negate_intERSt6vectorIS0_IiSaIiEESaIS2_EE @519
    _ZN4giac10negmodpolyERKNS_15dbgprint_vectorINS_3genEEERS2_ @520
    _ZN4giac10negvecteurERKNS_15dbgprint_vectorINS_3genEEE @521
    _ZN4giac10next_indexERN9__gnu_cxx17__normal_iteratorIPiSt6vectorIiSaIiEEEERPKt @522
    _ZN4giac10next_indexERN9__gnu_cxx17__normal_iteratorIPxSt6vectorIxSaIxEEEERPKt @523
    _ZN4giac10next_indexERjRPKt @524
    _ZN4giac10nextprime1ERKNS_3genEPKNS_7contextE @525
    _ZN4giac10order_sizeERKNS_3genEPKNS_7contextE @526
    _ZN4giac10pari_gammaERKNS_3genE @527
    _ZN4giac10parsed_genEPKNS_7contextE @528
    _ZN4giac10parsed_genERKNS_3genEPKNS_7contextE @529
    _ZN4giac10peval_backERKNS_6tensorINS_3genEEERKNS_15dbgprint_vectorIS1_EE @530
    _ZN4giac10pintegrateERNS_15dbgprint_vectorINS_6monomeEEERKNS_3genEPKNS_7contextE @531
    _ZN4giac10plot_arrayERKSt6vectorIS0_IdSaIdEESaIS2_EEiiddddddRKNS_15dbgprint_vectorINS_3genEEESB_bPKNS_7contextE @532
    _ZN4giac10plus_sqrt2E @533 DATA
    _ZN4giac10plus_sqrt3E @534 DATA
    _ZN4giac10plus_sqrt6E @535 DATA
    _ZN4giac10plus_threeE @536 DATA
    _ZN4giac10pnt_attribERKNS_3genERKNS_15dbgprint_vectorIS0_EEPKNS_7contextE @537
    _ZN4giac10pointminusERKNS_3genES2_PKNS_7contextE @538
    _ZN4giac10prevprime1ERKNS_3genEPKNS_7contextE @539
    _ZN4giac10print_INT_ERKSt6vectorIiSaIiEE @540
    _ZN4giac10print_INT_ERKSt6vectorIsSaIsEE @541
    _ZN4giac10print_INT_Ei @542
    _ZN4giac10print_VECTERKNS_15dbgprint_vectorINS_3genEEEiPKNS_7contextE @543
    _ZN4giac10print_ZINTERA1_K12__mpz_struct @544
    _ZN4giac10printasexpERKNS_3genEPKcPKNS_7contextE @545
    _ZN4giac10printasforERKNS_3genEPKcPKNS_7contextE @546
    _ZN4giac10printasstoERKNS_3genEPKcPKNS_7contextE @547
    _ZN4giac10printint32EiiPKNS_7contextE @548
    _ZN4giac10printmpf_tERA1_K12__mpf_structPKNS_7contextE @549
    _ZN4giac10projectionERKNS_3genES2_PKNS_7contextE @550
    _ZN4giac10projectionERKNS_3genES2_S2_PKNS_7contextE @551
    _ZN4giac10quaternionC1ERKNS_3genE @552
    _ZN4giac10quaternionC1ERKNS_3genES3_S3_S3_ @553
    _ZN4giac10quaternionC1ERKS0_ @554
    _ZN4giac10quaternionC2ERKNS_3genE @555
    _ZN4giac10quaternionD0Ev @556
    _ZN4giac10quaternionD1Ev @557
    _ZN4giac10quaternionaSERKS0_ @558
    _ZN4giac10quote_evalERKNS_15dbgprint_vectorINS_3genEEES4_PKNS_7contextE @559
    _ZN4giac10quote_readERKNS_3genEPKNS_7contextE @560
    _ZN4giac10quotesubstERKNS_3genES2_S2_PKNS_7contextE @561
    _ZN4giac10rand_indexEiiPKNS_7contextE @562
    _ZN4giac10randfisherEiiPKNS_7contextE @563
    _ZN4giac10read_audioERNS_15dbgprint_vectorINS_3genEEERiS4_S4_Rj @564
    _ZN4giac10real_prootERKNS_15dbgprint_vectorINS_3genEEEdPKNS_7contextE @565
    _ZN4giac10ref_algextC1Ev @566
    _ZN4giac10ref_algextD1Ev @567
    _ZN4giac10ref_moduloC1ERKNS_3genES3_ @568
    _ZN4giac10ref_moduloD1Ev @569
    _ZN4giac10ref_stringC1ERKSs @570
    _ZN4giac10ref_stringD1Ev @571
    _ZN4giac10remove_andERKNS_3genEPKNS_18unary_function_ptrE @572
    _ZN4giac10remove_stoERKNS_3genE @573
    _ZN4giac10secure_runE @574 DATA
    _ZN4giac10setsizeerrEPKNS_7contextE @575
    _ZN4giac10setsizeerrERKSs @576
    _ZN4giac10settypeerrEPKNS_7contextE @577
    _ZN4giac10settypeerrERKSs @578
    _ZN4giac10show_pointEPKNS_7contextE @579
    _ZN4giac10show_pointEbPKNS_7contextE @580
    _ZN4giac10simplifierERKNS_3genEPKNS_7contextE @581
    _ZN4giac10smallmergeERNS_7polymodES1_S1_ @582
    _ZN4giac10smallshiftINS_3genENS_6tdeg_tEEEvRKSt6vectorINS_10T_unsignedIT_T0_EESaIS7_EES6_RS9_ @583
    _ZN4giac10smallshiftINS_3genEjEEvRKSt6vectorINS_10T_unsignedIT_T0_EESaIS6_EES5_RS8_ @584
    _ZN4giac10smallshiftIiNS_6tdeg_tEEEvRKSt6vectorINS_10T_unsignedIT_T0_EESaIS6_EES5_RS8_ @585
    _ZN4giac10smallshiftIijEEvRKSt6vectorINS_10T_unsignedIT_T0_EESaIS5_EES4_RS7_ @586
    _ZN4giac10sparse_genC1ERKNS_3genEj @587
    _ZN4giac10sparse_genC1ERKS0_ @588
    _ZN4giac10sparse_genC1Ev @589
    _ZN4giac10sparse_genD1Ev @590
    _ZN4giac10sparse_genaSERKS0_ @591
    _ZN4giac10spread2texERKNS_15dbgprint_vectorINS_3genEEEiPKNS_7contextE @592
    _ZN4giac10spread_ColEPKNS_7contextE @593
    _ZN4giac10spread_ColEiPKNS_7contextE @594
    _ZN4giac10spread_RowEPKNS_7contextE @595
    _ZN4giac10spread_RowEiPKNS_7contextE @596
    _ZN4giac10sqfffactorERKNS_6tensorINS_3genEEERNS_8vectpolyEbbb @597
    _ZN4giac10sqrt_noabsERKNS_3genEPKNS_7contextE @598
    _ZN4giac10stack_swapERNS_15dbgprint_vectorINS_3genEEE @599
    _ZN4giac10std_matrixINS_3genEE8dbgprintEv @600
    _ZN4giac10std_matrixINS_3genEEC1ERKS2_ @601
    _ZN4giac10std_matrixINS_3genEEC1Ei @602
    _ZN4giac10std_matrixINS_3genEEC1EiRKNS_15dbgprint_vectorIS1_EE @603
    _ZN4giac10std_matrixINS_3genEEC1Eii @604
    _ZN4giac10std_matrixINS_3genEEC1Ev @605
    _ZN4giac10std_matrixINS_3genEED1Ev @606
    _ZN4giac10std_matrixINS_3genEEaSERKS2_ @607
    _ZN4giac10streamcopyEP6_iobufS1_ @608
    _ZN4giac10string2genERKSsb @609
    _ZN4giac10submodpolyERKNS_15dbgprint_vectorINS_3genEEES4_PNS_11environmentERS2_ @610
    _ZN4giac10submodpolyERKNS_15dbgprint_vectorINS_3genEEES4_RS2_ @611
    _ZN4giac10subvecteurERKNS_15dbgprint_vectorINS_3genEEES4_ @612
    _ZN4giac10subvecteurERKNS_15dbgprint_vectorINS_3genEEES4_RS2_ @613
    _ZN4giac10sum_degreeERKNS_7index_mE @614
    _ZN4giac10svg_legendE @615 DATA
    _ZN4giac10swapdoubleERdS0_ @616
    _ZN4giac10symb_crossERKNS_3genE @617
    _ZN4giac10symb_crossERKNS_3genES2_ @618
    _ZN4giac10symb_curveERKNS_3genES2_ @619
    _ZN4giac10symb_equalERKNS_3genES2_ @620
    _ZN4giac10symb_evalfERKNS_3genE @621
    _ZN4giac10symb_imageERKNS_3genE @622
    _ZN4giac10symb_localERKNS_3genEPKNS_7contextE @623
    _ZN4giac10symb_localERKNS_3genES2_PKNS_7contextE @624
    _ZN4giac10symb_minusERKNS_3genE @625
    _ZN4giac10symb_moyalERKNS_3genES2_S2_S2_ @626
    _ZN4giac10symb_pevalERKNS_3genES2_ @627
    _ZN4giac10symb_prootERKNS_3genE @628
    _ZN4giac10symb_quoteERKNS_3genE @629
    _ZN4giac10symb_traceERKNS_3genE @630
    _ZN4giac10symb_unionERKNS_3genE @631
    _ZN4giac10tan2sincosERKNS_3genEPKNS_7contextE @632
    _ZN4giac10tan_5pi_12E @633 DATA
    _ZN4giac10threadmultIdjEEbRKSt6vectorINS_10T_unsignedIT_T0_EESaIS5_EES9_RS7_S4_ij @634
    _ZN4giac10threadmultIdyEEbRKSt6vectorINS_10T_unsignedIT_T0_EESaIS5_EES9_RS7_S4_ij @635
    _ZN4giac10threadmultIijEEbRKSt6vectorINS_10T_unsignedIT_T0_EESaIS5_EES9_RS7_S4_ij @636
    _ZN4giac10threadmultIxjEEbRKSt6vectorINS_10T_unsignedIT_T0_EESaIS5_EES9_RS7_S4_ij @637
    _ZN4giac10threadmultIxyEEbRKSt6vectorINS_10T_unsignedIT_T0_EESaIS5_EES9_RS7_S4_ij @638
    _ZN4giac10toofewargsERKSsPKNS_7contextE @639
    _ZN4giac10total_timeEPKNS_7contextE @640
    _ZN4giac10trigcospowERKNS_3genEPKNS_7contextE @641
    _ZN4giac10trigexpandERKNS_3genEPKNS_7contextE @642
    _ZN4giac10trigsinpowERKNS_3genEPKNS_7contextE @643
    _ZN4giac10trigtanpowERKNS_3genEPKNS_7contextE @644
    _ZN4giac10true_lidntERKNS_3genE @645
    _ZN4giac10turtle2genERKNS_11logo_turtleE @646
    _ZN4giac10unlocalizeERKSs @647
    _ZN4giac10utf8lengthEPKw @648
    _ZN4giac10variationsERKNS_15dbgprint_vectorINS_3genEEEPKNS_7contextE @649
    _ZN4giac10vert_latexE @650 DATA
    _ZN4giac10whentosignERKNS_3genEPKNS_7contextE @651
    _ZN4giac10zcopycoeffERKNS_8zpolymodERSt6vectorIiSaIiEE @652
    _ZN4giac10zleftrightERKNS_12vectzpolymodERSt6vectorISt4pairIjjESaIS5_EERS3_INS_6tdeg_tESaIS9_EESC_ @653
    _ZN4giac11BUFFER_SIZEE @654 DATA
    _ZN4giac11CALL_LAPACKE @655 DATA
    _ZN4giac11CST__IDNT_eE @656 DATA
    _ZN4giac11Ci_replace0ERKNS_3genEPKNS_7contextE @657
    _ZN4giac11D_HeavisideE @658 DATA
    _ZN4giac11D_at_SiCi_fE @659 DATA
    _ZN4giac11D_at_SiCi_gE @660 DATA
    _ZN4giac11DenseDivRemERKNS_15dbgprint_vectorINS_3genEEES4_RS2_S5_b @661
    _ZN4giac11Ei_replace0ERKNS_3genEPKNS_7contextE @662
    _ZN4giac11FFTMUL_SIZEE @663 DATA
    _ZN4giac11GAMMA_LIMITE @664 DATA
    _ZN4giac11MPZ_MAXLOG2E @665 DATA
    _ZN4giac11TcommonlgcdINS_3genEEEvRKNS_6tensorIT_EES6_RS4_ @666
    _ZN4giac11TcontentgcdINS_3genEEEvRKNS_6tensorIT_EES6_RS4_S7_i @667
    _ZN4giac11TfirstcoeffINS_3genEEENS_6tensorIT_EERKS4_ @668
    _ZN4giac11Tref_tensorINS_3genEEC1ERKNS_6tensorIS1_EE @669
    _ZN4giac11Tref_tensorINS_3genEEC1Ei @670
    _ZN4giac11Tref_tensorINS_3genEED1Ev @671
    _ZN4giac11Tsqff_char0INS_3genEEESt6vectorINS_7facteurINS_6tensorIT_EEEESaIS7_EERKS6_ @672
    _ZN4giac11_Curie_unitE @673 DATA
    _ZN4giac11_FRAC2_SYMBERKNS_3genE @674
    _ZN4giac11_FRAC2_SYMBERKNS_3genES2_ @675
    _ZN4giac11_FRAC2_SYMBERKNS_9TfractionINS_3genEEE @676
    _ZN4giac11_IDNT_id_atE @677 DATA
    _ZN4giac11_IDNT_undefEv @678
    _ZN4giac11__HFCC_unitE @679 DATA
    _ZN4giac11__acre_unitE @680 DATA
    _ZN4giac11__arcs_unitE @681 DATA
    _ZN4giac11__fath_unitE @682 DATA
    _ZN4giac11__flam_unitE @683 DATA
    _ZN4giac11__ftUS_unitE @684 DATA
    _ZN4giac11__galC_unitE @685 DATA
    _ZN4giac11__gmol_unitE @686 DATA
    _ZN4giac11__grad_unitE @687 DATA
    _ZN4giac11__inHg_unitE @688 DATA
    _ZN4giac11__inputformE @689 DATA
    _ZN4giac11__knot_unitE @690 DATA
    _ZN4giac11__maple_libE @691 DATA
    _ZN4giac11__miUS_unitE @692 DATA
    _ZN4giac11__mile_unitE @693 DATA
    _ZN4giac11__mmHg_unitE @694 DATA
    _ZN4giac11__molK_unitE @695 DATA
    _ZN4giac11__ozUK_unitE @696 DATA
    _ZN4giac11__ozfl_unitE @697 DATA
    _ZN4giac11__ptUK_unitE @698 DATA
    _ZN4giac11__slug_unitE @699 DATA
    _ZN4giac11__tbsp_unitE @700 DATA
    _ZN4giac11__tepC_unitE @701 DATA
    _ZN4giac11__torr_unitE @702 DATA
    _ZN4giac11__xyztrangeE @703 DATA
    _ZN4giac11_angleatrawERKNS_3genEPKNS_7contextE @704
    _ZN4giac11_backgroundERKNS_3genEPKNS_7contextE @705
    _ZN4giac11_barycentreERKNS_3genEPKNS_7contextE @706
    _ZN4giac11_bblep_unitE @707 DATA
    _ZN4giac11_betad_icdfERKNS_3genEPKNS_7contextE @708
    _ZN4giac11_breakpointERKNS_3genEPKNS_7contextE @709
    _ZN4giac11_cauchy_cdfERKNS_3genEPKNS_7contextE @710
    _ZN4giac11_chain_unitE @711 DATA
    _ZN4giac11_changebaseERKNS_3genEPKNS_7contextE @712
    _ZN4giac11_check_typeERKNS_3genEPKNS_7contextE @713
    _ZN4giac11_chisquaretERKNS_3genEPKNS_7contextE @714
    _ZN4giac11_composepowERKNS_3genEPKNS_7contextE @715
    _ZN4giac11_convexhullERKNS_3genEPKNS_7contextE @716
    _ZN4giac11_cos2sintanERKNS_3genEPKNS_7contextE @717
    _ZN4giac11_covarianceERKNS_3genEPKNS_7contextE @718
    _ZN4giac11_cycle2permERKNS_3genEPKNS_7contextE @719
    _ZN4giac11_cyclotomicERKNS_3genEPKNS_7contextE @720
    _ZN4giac11_deuxpointsERKNS_3genEPKNS_7contextE @721
    _ZN4giac11_distanceatERKNS_3genEPKNS_7contextE @722
    _ZN4giac11_divcrementERKNS_3genEPKNS_7contextE @723
    _ZN4giac11_divergenceERKNS_3genEPKNS_7contextE @724
    _ZN4giac11_dodecaedreERKNS_3genEPKNS_7contextE @725
    _ZN4giac11_eigenvectsERKNS_3genEPKNS_7contextE @726
    _ZN4giac11_equal2diffERKNS_3genEPKNS_7contextE @727
    _ZN4giac11_equal2listERKNS_3genEPKNS_7contextE @728
    _ZN4giac11_est_aligneERKNS_3genEPKNS_7contextE @729
    _ZN4giac11_fermi_unitE @730 DATA
    _ZN4giac11_fourier_anERKNS_3genEPKNS_7contextE @731
    _ZN4giac11_fourier_bnERKNS_3genEPKNS_7contextE @732
    _ZN4giac11_fourier_cnERKNS_3genEPKNS_7contextE @733
    _ZN4giac11_galUK_unitE @734 DATA
    _ZN4giac11_galUS_unitE @735 DATA
    _ZN4giac11_gammad_cdfERKNS_3genEPKNS_7contextE @736
    _ZN4giac11_grain_unitE @737 DATA
    _ZN4giac11_grid_paperERKNS_3genEPKNS_7contextE @738
    _ZN4giac11_hessenbergERKNS_3genEPKNS_7contextE @739
    _ZN4giac11_homothetieERKNS_3genEPKNS_7contextE @740
    _ZN4giac11_igamma_expERKNS_3genEPKNS_7contextE @741
    _ZN4giac11_inH2O_unitE @742 DATA
    _ZN4giac11_lbmol_unitE @743 DATA
    _ZN4giac11_line_paperERKNS_3genEPKNS_7contextE @744
    _ZN4giac11_liqpt_unitE @745 DATA
    _ZN4giac11_makevectorERKNS_3genEPKNS_7contextE @746
    _ZN4giac11_maple2xcasERKNS_3genEPKNS_7contextE @747
    _ZN4giac11_maple_subsERKNS_3genEPKNS_7contextE @748
    _ZN4giac11_mediatriceERKNS_3genEPKNS_7contextE @749
    _ZN4giac11_mille_unitE @750 DATA
    _ZN4giac11_mupad2xcasERKNS_3genEPKNS_7contextE @751
    _ZN4giac11_normal_cdfERKNS_3genEPKNS_7contextE @752
    _ZN4giac11_orthogonalERKNS_3genEPKNS_7contextE @753
    _ZN4giac11_os_versionERKNS_3genEPKNS_7contextE @754
    _ZN4giac11_permuorderERKNS_3genEPKNS_7contextE @755
    _ZN4giac11_plot_styleERKNS_3genEPKNS_7contextE @756
    _ZN4giac11_pointminusERKNS_3genEPKNS_7contextE @757
    _ZN4giac11_projectionERKNS_3genEPKNS_7contextE @758
    _ZN4giac11_quaternionERKNS_3genEPKNS_7contextE @759
    _ZN4giac11_randfisherERKNS_3genEPKNS_7contextE @760
    _ZN4giac11_randmarkovERKNS_3genEPKNS_7contextE @761
    _ZN4giac11_randvectorERKNS_3genEPKNS_7contextE @762
    _ZN4giac11_rat_jordanERKNS_3genEPKNS_7contextE @763
    _ZN4giac11_similitudeERKNS_3genEPKNS_7contextE @764
    _ZN4giac11_simplifierERKNS_3genEPKNS_7contextE @765
    _ZN4giac11_sin2costanERKNS_3genEPKNS_7contextE @766
    _ZN4giac11_slopeatrawERKNS_3genEPKNS_7contextE @767
    _ZN4giac11_tan2sincosERKNS_3genEPKNS_7contextE @768
    _ZN4giac11_tepcC_unitE @769 DATA
    _ZN4giac11_tepgC_unitE @770 DATA
    _ZN4giac11_therm_unitE @771 DATA
    _ZN4giac11_tonUK_unitE @772 DATA
    _ZN4giac11_vpotentialERKNS_3genEPKNS_7contextE @773
    _ZN4giac11ab2a0b0a1b1ERKNS_3genES2_RS0_S3_S3_S3_PKNS_7contextE @774
    _ZN4giac11alias_at_atE @775 DATA
    _ZN4giac11alias_at_lnE @776 DATA
    _ZN4giac11alias_at_ofE @777 DATA
    _ZN4giac11alias_at_ouE @778 DATA
    _ZN4giac11alias_at_sqE @779 DATA
    _ZN4giac11alpha_orderERKNS_4aideES2_ @780
    _ZN4giac11approx_areaERKNS_3genES2_S2_S2_iiPKNS_7contextE @781
    _ZN4giac11approx_modeEPKNS_7contextE @782
    _ZN4giac11approx_modeEbPKNS_7contextE @783
    _ZN4giac11at_BINOMIALE @784 DATA
    _ZN4giac11at_DispHomeE @785 DATA
    _ZN4giac11at_DrawFuncE @786 DATA
    _ZN4giac11at_DrawParmE @787 DATA
    _ZN4giac11at_DropDownE @788 DATA
    _ZN4giac11at_DrwCtourE @789 DATA
    _ZN4giac11at_HComplexE @790 DATA
    _ZN4giac11at_InputStrE @791 DATA
    _ZN4giac11at_POLYFORME @792 DATA
    _ZN4giac11at_PictsizeE @793 DATA
    _ZN4giac11at_RPN_CASEE @794 DATA
    _ZN4giac11at_abscisseE @795 DATA
    _ZN4giac11at_atrig2lnE @796 DATA
    _ZN4giac11at_binomialE @797 DATA
    _ZN4giac11at_binprintE @798 DATA
    _ZN4giac11at_choleskyE @799 DATA
    _ZN4giac11at_containsE @800 DATA
    _ZN4giac11at_continueE @801 DATA
    _ZN4giac11at_cylindreE @802 DATA
    _ZN4giac11at_divisionE @803 DATA
    _ZN4giac11at_equationE @804 DATA
    _ZN4giac11at_exp2trigE @805 DATA
    _ZN4giac11at_findhelpE @806 DATA
    _ZN4giac11at_funcplotE @807 DATA
    _ZN4giac11at_harmonicE @808 DATA
    _ZN4giac11at_ichinremE @809 DATA
    _ZN4giac11at_ifactorsE @810 DATA
    _ZN4giac11at_ilaplaceE @811 DATA
    _ZN4giac11at_intervalE @812 DATA
    _ZN4giac11at_is_primeE @813 DATA
    _ZN4giac11at_ithprimeE @814 DATA
    _ZN4giac11at_keyboardE @815 DATA
    _ZN4giac11at_lagrangeE @816 DATA
    _ZN4giac11at_linfnormE @817 DATA
    _ZN4giac11at_linsolveE @818 DATA
    _ZN4giac11at_longueurE @819 DATA
    _ZN4giac11at_makelistE @820 DATA
    _ZN4giac11at_maple_ifE @821 DATA
    _ZN4giac11at_maple_opE @822 DATA
    _ZN4giac11at_odesolveE @823 DATA
    _ZN4giac11at_ordonneeE @824 DATA
    _ZN4giac11at_paraboleE @825 DATA
    _ZN4giac11at_partfracE @826 DATA
    _ZN4giac11at_plotfuncE @827 DATA
    _ZN4giac11at_pointpowE @828 DATA
    _ZN4giac11at_polygoneE @829 DATA
    _ZN4giac11at_pourcentE @830 DATA
    _ZN4giac11at_propfracE @831 DATA
    _ZN4giac11at_randNormE @832 DATA
    _ZN4giac11at_rotationE @833 DATA
    _ZN4giac11at_rpn_progE @834 DATA
    _ZN4giac11at_scaleaddE @835 DATA
    _ZN4giac11at_seqsolveE @836 DATA
    _ZN4giac11at_simplifyE @837 DATA
    _ZN4giac11at_snedecorE @838 DATA
    _ZN4giac11at_studentdE @839 DATA
    _ZN4giac11at_suppressE @840 DATA
    _ZN4giac11at_symetrieE @841 DATA
    _ZN4giac11at_tableseqE @842 DATA
    _ZN4giac11at_tcollectE @843 DATA
    _ZN4giac11at_testfuncE @844 DATA
    _ZN4giac11at_triangleE @845 DATA
    _ZN4giac11at_trig2expE @846 DATA
    _ZN4giac11at_truncateE @847 DATA
    _ZN4giac11at_uniformdE @848 DATA
    _ZN4giac11at_varianceE @849 DATA
    _ZN4giac11at_weibulldE @850 DATA
    _ZN4giac11bissectriceERKNS_3genEbPKNS_7contextE @851
    _ZN4giac11bits2digitsEi @852
    _ZN4giac11cas_suffixeE @853 DATA
    _ZN4giac11cauchy_icdfERKNS_3genES2_S2_PKNS_7contextE @854
    _ZN4giac11chartab2genERPcPKNS_7contextE @855
    _ZN4giac11chk_inf_nanERKNS_3genE @856
    _ZN4giac11common_denoERKNS_15dbgprint_vectorINS_3genEEE @857
    _ZN4giac11complex_absERKSt7complexIdE @858
    _ZN4giac11complexrootERKNS_3genEbPKNS_7contextE @859
    _ZN4giac11content1modERKNS_6tensorINS_3genEEERKS1_b @860
    _ZN4giac11convert_intIjEEbRKNS_6tensorINS_3genEEERKSt6vectorIsSaIsEERS6_INS_10T_unsignedIxT_EESaISD_EERx @861
    _ZN4giac11convert_intIyEEbRKNS_6tensorINS_3genEEERKSt6vectorIsSaIsEERS6_INS_10T_unsignedIxT_EESaISD_EERx @862
    _ZN4giac11convolutionERKNS_15dbgprint_vectorINS_3genEEES4_RS2_PKNS_7contextE @863
    _ZN4giac11convolutionERKNS_3genES2_RKNS_15dbgprint_vectorIS0_EERS4_PKNS_7contextE @864
    _ZN4giac11coordonneesERKNS_3genEbPKNS_7contextE @865
    _ZN4giac11cprintaspowERKNS_3genEPKcPKNS_7contextE @866
    _ZN4giac11cst_FaradayE @867 DATA
    _ZN4giac11cst_RydbergE @868 DATA
    _ZN4giac11cst_hPlanckE @869 DATA
    _ZN4giac11cst_lambda0E @870 DATA
    _ZN4giac11cst_lambdacE @871 DATA
    _ZN4giac11debug_printERKNS_15dbgprint_vectorINS_3genEEERSt6vectorISsSaISsEEPKNS_7contextE @872
    _ZN4giac11debug_printERKNS_3genERSt6vectorISsSaISsEEPKNS_7contextE @873
    _ZN4giac11digits2bitsEi @874
    _ZN4giac11distance2ppERKNS_3genES2_PKNS_7contextE @875
    _ZN4giac11egcdtoabcuvERKNS_6tensorINS_3genEEES4_S4_RS2_S5_S5_S5_ @876
    _ZN4giac11enmajusculeERKSs @877
    _ZN4giac11environmentC1Ev @878
    _ZN4giac11environmentD1Ev @879
    _ZN4giac11equaltosameERKNS_3genE @880
    _ZN4giac11eratostheneEdRPSt6vectorIbSaIbEE @881
    _ZN4giac11est_elementERKNS_3genES2_PKNS_7contextE @882
    _ZN4giac11est_isoceleERKNS_3genES2_S2_PKNS_7contextE @883
    _ZN4giac11est_losangeERKNS_3genES2_S2_S2_PKNS_7contextE @884
    _ZN4giac11evalf_nbitsERKNS_3genEi @885
    _ZN4giac11first_indexERKSt6vectorItSaItEE @886
    _ZN4giac11fmin_cobylaERKNS_3genERKNS_15dbgprint_vectorIS0_EES6_S6_S2_S2_PKNS_7contextE @887
    _ZN4giac11frequenciesERKNS_3genEPKNS_7contextE @888
    _ZN4giac11gammad_icdfERKNS_3genES2_S2_PKNS_7contextE @889
    _ZN4giac11gammaetoileERKNS_3genES2_PKNS_7contextE @890
    _ZN4giac11gcd_modularERKNS_6tensorINS_3genEEES4_RS2_S5_S5_b @891
    _ZN4giac11gcdmod_dim1ERKNS_6tensorINS_3genEEES4_RKS1_RS2_S7_S7_bRb @892
    _ZN4giac11gen2vecteurERKNS_3genE @893
    _ZN4giac11gen2vecteurERKNS_3genEi @894
    _ZN4giac11gen_contextD1Ev @895
    _ZN4giac11gen_feuilleERKNS_3genE @896
    _ZN4giac11giac_assumeERKNS_3genEPKNS_7contextE @897
    _ZN4giac11giac_bitandERKNS_3genES2_ @898
    _ZN4giac11giac_bitxorERKNS_3genES2_ @899
    _ZN4giac11giac_primesE @900 DATA
    _ZN4giac11global_evalERKNS_3genEi @901
    _ZN4giac11gramschmidtERKNS_15dbgprint_vectorINS_3genEEERS2_bPKNS_7contextE @902
    _ZN4giac11gramschmidtERKNS_15dbgprint_vectorINS_3genEEEbPKNS_7contextE @903
    _ZN4giac11halftan_tabE @904 DATA
    _ZN4giac11has_gnuplotE @905 DATA
    _ZN4giac11has_op_listERKNS_3genEPKNS_18unary_function_ptrE @906
    _ZN4giac11heap_reduceERKNS_5poly8ERKNS_9vectpoly8ERKSt6vectorIjSaIjEEjRS3_RS0_SC_PNS_11environmentE @907
    _ZN4giac11heap_reduceERKNS_5poly8ERKNS_9vectpoly8ERKSt6vectorIjSaIjEEjRS3_RS0_SC_RNS_3genEPNS_11environmentE @908
    _ZN4giac11heap_tt_ptrC1EPNS_7heap_ttE @909
    _ZN4giac11hensel_liftERKNS_6tensorINS_3genEEES4_S4_S4_RKNS_15dbgprint_vectorIS1_EERS2_S9_bd @910
    _ZN4giac11history_outEPKNS_7contextE @911
    _ZN4giac11horiz_latexE @912 DATA
    _ZN4giac11hyp2exp_tabE @913 DATA
    _ZN4giac11inplace_ppzERNS_5poly8Ebb @914
    _ZN4giac11interpolateERKNS_15dbgprint_vectorINS_3genEEES4_RS2_PNS_11environmentE @915
    _ZN4giac11interruptedE @916 DATA
    _ZN4giac11inv_distribERKNS_3genEPKNS_7contextE @917
    _ZN4giac11invmodnoerrEii @918
    _ZN4giac11is_analyticERKNS_3genE @919
    _ZN4giac11is_cintegerERKNS_3genE @920
    _ZN4giac11is_even_oddERKNS_3genES2_PKNS_7contextE @921
    _ZN4giac11is_identityERKNS_13matrix_doubleE @922
    _ZN4giac11is_integralERNS_3genE @923
    _ZN4giac11is_numericmERKNS_15dbgprint_vectorINS_3genEEEi @924
    _ZN4giac11is_numericvERKNS_15dbgprint_vectorINS_3genEEEi @925
    _ZN4giac11is_positiveERKNS_3genEPKNS_7contextE @926
    _ZN4giac11is_positiveERKNS_6tensorINS_3genEEE @927
    _ZN4giac11is_rationalERKNS_3genE @928
    _ZN4giac11is_zero_dimERNS_8vectpolyE @929
    _ZN4giac11kill_threadEPKNS_7contextE @930
    _ZN4giac11kill_threadEbPKNS_7contextE @931
    _ZN4giac11kolmogorovdEd @932
    _ZN4giac11laplace_varE @933 DATA
    _ZN4giac11lidnt_solveERKNS_3genE @934
    _ZN4giac11lidnt_solveERKNS_3genERNS_15dbgprint_vectorIS0_EE @935
    _ZN4giac11logo_turtleC1ERKS0_ @936
    _ZN4giac11logo_turtleC1Ev @937
    _ZN4giac11logo_turtleD1Ev @938
    _ZN4giac11logo_turtleaSERKS0_ @939
    _ZN4giac11make_threadERKNS_3genEiRKPFvS2_PvES3_PNS_7contextE @940
    _ZN4giac11makecomplexERKNS_3genES2_ @941
    _ZN4giac11makelineremERKNS_7polymodERS0_S2_RSt6vectorIiSaIiEE @942
    _ZN4giac11makelinesubERKNS_7polymodEPKNS_6tdeg_tES2_RSt6vectorIiSaIiEEii @943
    _ZN4giac11makevecteurERKNS_3genE @944
    _ZN4giac11makevecteurERKNS_3genES2_ @945
    _ZN4giac11makevecteurERKNS_3genES2_S2_ @946
    _ZN4giac11makevecteurERKNS_3genES2_S2_S2_ @947
    _ZN4giac11makevecteurERKNS_3genES2_S2_S2_S2_ @948
    _ZN4giac11makevecteurERKNS_3genES2_S2_S2_S2_S2_ @949
    _ZN4giac11makevecteurERKNS_3genES2_S2_S2_S2_S2_S2_ @950
    _ZN4giac11makevecteurERKNS_3genES2_S2_S2_S2_S2_S2_S2_ @951
    _ZN4giac11makevecteurERKNS_3genES2_S2_S2_S2_S2_S2_S2_S2_ @952
    _ZN4giac11makevecteurERKNS_3genES2_S2_S2_S2_S2_S2_S2_S2_S2_ @953
    _ZN4giac11makevecteurERKNS_3genES2_S2_S2_S2_S2_S2_S2_S2_S2_S2_ @954
    _ZN4giac11makevecteurERKNS_3genES2_S2_S2_S2_S2_S2_S2_S2_S2_S2_S2_ @955
    _ZN4giac11makevecteurERKNS_3genES2_S2_S2_S2_S2_S2_S2_S2_S2_S2_S2_S2_ @956
    _ZN4giac11makevecteurERKNS_3genES2_S2_S2_S2_S2_S2_S2_S2_S2_S2_S2_S2_S2_ @957
    _ZN4giac11max_sum_addEPKNS_7contextE @958
    _ZN4giac11maxordererrEPKNS_7contextE @959
    _ZN4giac11mhessenbergERKNS_15dbgprint_vectorINS_3genEEERS2_S5_iidPKNS_7contextE @960
    _ZN4giac11mhessenbergERSt6vectorIS0_IiSaIiEESaIS2_EES5_ib @961
    _ZN4giac11minus_sqrt2E @962 DATA
    _ZN4giac11minus_sqrt3E @963 DATA
    _ZN4giac11minus_sqrt6E @964 DATA
    _ZN4giac11mksa_reduceERKNS_3genEPKNS_7contextE @965
    _ZN4giac11modpolyrootERKNS_15dbgprint_vectorINS_3genEEERKS1_RS2_bPKNS_7contextE @966
    _ZN4giac11monome_lessC1Ev @967
    _ZN4giac11monome_lessclERKNS_6monomeES3_ @968
    _ZN4giac11multvecteurERKNS_3genERKNS_15dbgprint_vectorIS0_EE @969
    _ZN4giac11multvecteurERKNS_3genERKNS_15dbgprint_vectorIS0_EERS4_ @970
    _ZN4giac11pari_ffinitERKNS_3genEi @971
    _ZN4giac11peval_x1_xnIijEET_NSt6vectorINS_10T_unsignedIS1_T0_EESaIS5_EE14const_iteratorES8_RKS2_IS1_SaIS1_EERKS2_IS4_SaIS4_EERKS1_ @972
    _ZN4giac11peval_x2_xnIijEEvRKSt6vectorINS_10T_unsignedIT_T0_EESaIS5_EERKS1_IS3_SaIS3_EERKS1_IS4_SaIS4_EERS7_RKS3_ @973
    _ZN4giac11plotcontourERKNS_3genEbPKNS_7contextE @974
    _ZN4giac11plotparam3dERKNS_3genERKNS_15dbgprint_vectorIS0_EEddddddddddbbS6_ddS2_S6_PKNS_7contextE @975
    _ZN4giac11poisson_cdfERKNS_3genES2_PKNS_7contextE @976
    _ZN4giac11poisson_cdfEdd @977
    _ZN4giac11print_SPOL1ERKNS_15dbgprint_vectorINS_6monomeEEEPKNS_7contextE @978
    _ZN4giac11print_STRNGERKSs @979
    _ZN4giac11printascellERKNS_3genEPKcPKNS_7contextE @980
    _ZN4giac11printasifteERKNS_3genEPKcPKNS_7contextE @981
    _ZN4giac11printassubsERKNS_3genEPKcPKNS_7contextE @982
    _ZN4giac11printsymtabEPSt3mapIPKcNS_3genENS_5ltstrESaISt4pairIKS2_S3_EEE @983
    _ZN4giac11prod_expandERKNS_3genES2_PKNS_7contextE @984
    _ZN4giac11proot_cacheERKNS_15dbgprint_vectorINS_3genEEEdS4_ @985
    _ZN4giac11protectevalERKNS_3genEiPKNS_7contextE @986
    _ZN4giac11quotedlimitERKNS_3genERKNS_14identificateurES2_iPKNS_7contextE @987
    _ZN4giac11randpoissonEdPKNS_7contextE @988
    _ZN4giac11randstudentEiPKNS_7contextE @989
    _ZN4giac11rationalgcdERKNS_3genES2_PKNS_7contextE @990
    _ZN4giac11read_binaryERKSsj @991
    _ZN4giac11read_configERKSsPKNS_7contextEb @992
    _ZN4giac11read_optionERKNS_15dbgprint_vectorINS_3genEEEddddddRS2_RiS6_S6_PKNS_7contextE @993
    _ZN4giac11readrgb_ptrE @994 DATA
    _ZN4giac11real2doubleERKNS_3genE @995
    _ZN4giac11real_objectC1ERA1_K12__mpf_struct @996
    _ZN4giac11real_objectC1ERA1_K13__mpfr_struct @997
    _ZN4giac11real_objectC1ERKNS_3genE @998
    _ZN4giac11real_objectC1ERKNS_3genEj @999
    _ZN4giac11real_objectC1ERKS0_ @1000
    _ZN4giac11real_objectC1Ed @1001
    _ZN4giac11real_objectC1Ev @1002
    _ZN4giac11real_objectC2ERA1_K12__mpf_struct @1003
    _ZN4giac11real_objectC2ERA1_K13__mpfr_struct @1004
    _ZN4giac11real_objectC2ERKNS_3genE @1005
    _ZN4giac11real_objectC2ERKNS_3genEj @1006
    _ZN4giac11real_objectC2ERKS0_ @1007
    _ZN4giac11real_objectC2Ed @1008
    _ZN4giac11real_objectC2Ev @1009
    _ZN4giac11real_objectD0Ev @1010
    _ZN4giac11real_objectD1Ev @1011
    _ZN4giac11real_objectD2Ev @1012
    _ZN4giac11real_objectaSERKS0_ @1013
    _ZN4giac11reduce_polyERKNS_6tensorINS_3genEEERKNS_15dbgprint_vectorIS1_EEi @1014
    _ZN4giac11ref_complexC1ERKNS_3genES3_ @1015
    _ZN4giac11ref_complexD1Ev @1016
    _ZN4giac11ref_eqwdataC1ERKNS_7eqwdataE @1017
    _ZN4giac11ref_eqwdataD1Ev @1018
    _ZN4giac11ref_gen_mapC1ERKSt3mapINS_3genES2_NS_10comparegenESaISt4pairIKS2_S2_EEE @1019
    _ZN4giac11ref_gen_mapC1Ev @1020
    _ZN4giac11ref_gen_mapD1Ev @1021
    _ZN4giac11ref_index_tC1EN9__gnu_cxx17__normal_iteratorIPKsSt6vectorIsSaIsEEEES8_ @1022
    _ZN4giac11ref_index_tC1ERKSt6vectorIsSaIsEE @1023
    _ZN4giac11ref_index_tC1Ei @1024
    _ZN4giac11ref_index_tD1Ev @1025
    _ZN4giac11ref_vecteurC1EN9__gnu_cxx17__normal_iteratorIPKNS_3genESt6vectorIS3_SaIS3_EEEES9_ @1026
    _ZN4giac11ref_vecteurC1ERKNS_15dbgprint_vectorINS_3genEEE @1027
    _ZN4giac11ref_vecteurC1Ej @1028
    _ZN4giac11ref_vecteurC1EjRKNS_3genE @1029
    _ZN4giac11ref_vecteurC1Ev @1030
    _ZN4giac11ref_vecteurD1Ev @1031
    _ZN4giac11remove_faceERKNS_15dbgprint_vectorINS_3genEEES4_PKNS_7contextE @1032
    _ZN4giac11remove_pathERKSs @1033
    _ZN4giac11rur_compareERNS_7polymodES1_ @1034
    _ZN4giac11rur_computeERNS_11vectpolymodERNS_7polymodES3_iS3_S1_ @1035
    _ZN4giac11rur_convertERKNS_15dbgprint_vectorINS_3genEEERKNS_7polymodERS5_ @1036
    _ZN4giac11rur_minpolyERKNS_11vectpolymodERKNS_7polymodES5_iRNS_15dbgprint_vectorINS_3genEEES9_ @1037
    _ZN4giac11sametoequalERKNS_3genE @1038
    _ZN4giac11select_rootERKNS_15dbgprint_vectorINS_3genEEEPKNS_7contextE @1039
    _ZN4giac11seq2vecteurERKNS_3genE @1040
    _ZN4giac11shift_phaseERKNS_3genEPKNS_7contextE @1041
    _ZN4giac11simplifypsiERKNS_3genEPKNS_7contextE @1042
    _ZN4giac11sin2_costanERKNS_3genEPKNS_7contextE @1043
    _ZN4giac11sizeinbase2Ej @1044
    _ZN4giac11smallhornerINS_3genEjEEvRKSt6vectorINS_10T_unsignedIT_T0_EESaIS6_EERKS4_RKS2_IS5_SaIS5_EERS8_ @1045
    _ZN4giac11smallhornerIijEEvRKSt6vectorINS_10T_unsignedIT_T0_EESaIS5_EERKS3_RKS1_IS4_SaIS4_EERS7_i @1046
    _ZN4giac11smallmodinvERKSt6vectorIS0_IiSaIiEESaIS2_EERS4_iRx @1047
    _ZN4giac11sort_helperINS_3genEEC1ESt26pointer_to_binary_functionIRKNS_8monomialIS1_EES7_bE @1048
    _ZN4giac11sort_helperINS_3genEEclERKNS_8monomialIS1_EES6_ @1049
    _ZN4giac11spread_evalERNS_15dbgprint_vectorINS_3genEEEPKNS_7contextE @1050
    _ZN4giac11step_deriveERKNS_3genEPKNS_7contextE @1051
    _ZN4giac11string2langERKSs @1052
    _ZN4giac11student_cdfERKNS_3genES2_S2_PKNS_7contextE @1053
    _ZN4giac11symb_algvarERKNS_3genE @1054
    _ZN4giac11symb_deriveERKNS_3genES2_ @1055
    _ZN4giac11symb_deriveERKNS_3genES2_S2_ @1056
    _ZN4giac11symb_dollarERKNS_3genE @1057
    _ZN4giac11symb_expandERKNS_3genE @1058
    _ZN4giac11symb_factorERKNS_3genE @1059
    _ZN4giac11symb_hornerERKNS_15dbgprint_vectorINS_3genEEERKS1_ @1060
    _ZN4giac11symb_hornerERKNS_15dbgprint_vectorINS_3genEEERKS1_i @1061
    _ZN4giac11symb_jordanERKNS_3genE @1062
    _ZN4giac11symb_normalERKNS_3genE @1063
    _ZN4giac11symb_pcoeffERKNS_3genE @1064
    _ZN4giac11symb_returnERKNS_3genE @1065
    _ZN4giac11symb_rootofERKNS_3genES2_PKNS_7contextE @1066
    _ZN4giac11tab2vecteurEPNS_3genE @1067
    _ZN4giac11tan2cossin2ERKNS_3genEPKNS_7contextE @1068
    _ZN4giac11tan2sincos2ERKNS_3genEPKNS_7contextE @1069
    _ZN4giac11tantosincosERKNS_3genEPKNS_7contextE @1070
    _ZN4giac11tchebycheffEib @1071
    _ZN4giac11tchebyshev1Ei @1072
    _ZN4giac11tchebyshev2Ei @1073
    _ZN4giac11tcollectsinERKNS_3genEPKNS_7contextE @1074
    _ZN4giac11theta__IDNTE @1075 DATA
    _ZN4giac11thread_evalERKNS_3genEiPNS_7contextEPFvS4_E @1076
    _ZN4giac11toomanyargsERKSsPKNS_7contextE @1077
    _ZN4giac11translationERKNS_3genES2_PKNS_7contextE @1078
    _ZN4giac11tri_contextC1EPKNS_7contextE @1079
    _ZN4giac11tri_contextclERKNS_3genES3_ @1080
    _ZN4giac11trigcos_tabE @1081 DATA
    _ZN4giac11trigsin_tabE @1082 DATA
    _ZN4giac11trigtan_tabE @1083 DATA
    _ZN4giac11try_parse_iEPKNS_7contextE @1084
    _ZN4giac11try_parse_iEbPKNS_7contextE @1085
    _ZN4giac11unitptr_tabE @1086 DATA
    _ZN4giac11unmodunprodERKNS_3genE @1087
    _ZN4giac11ununitarizeERKNS_6tensorINS_3genEEES4_ @1088
    _ZN4giac11user_screenE @1089 DATA
    _ZN4giac11usual_unitsEv @1090
    _ZN4giac11vectpolymodC1ERKS0_ @1091
    _ZN4giac11vectpolymodC1Ev @1092
    _ZN4giac11vectpolymodD1Ev @1093
    _ZN4giac11vectpolymodaSERKS0_ @1094
    _ZN4giac11weibull_cdfERKNS_3genES2_S2_S2_PKNS_7contextE @1095
    _ZN4giac11widget_sizeERKNS_3genEPKNS_7contextE @1096
    _ZN4giac12D_at_unquoteE @1097 DATA
    _ZN4giac12KARAMUL_SIZEE @1098 DATA
    _ZN4giac12LEGENDE_SIZEE @1099 DATA
    _ZN4giac12PseudoDivRemERKNS_15dbgprint_vectorINS_3genEEES4_RS2_S5_RS1_ @1100
    _ZN4giac12TegcdtoabcuvINS_3genEEEvRKNS_6tensorIT_EES6_S6_RS4_S7_S7_S7_ @1101
    _ZN4giac12Tis_constantINS_3genEEEbRKNS_6tensorIT_EE @1102
    _ZN4giac12_JordanBlockERKNS_3genEPKNS_7contextE @1103
    _ZN4giac12__Curie_unitE @1104 DATA
    _ZN4giac12__bblep_unitE @1105 DATA
    _ZN4giac12__chain_unitE @1106 DATA
    _ZN4giac12__fermi_unitE @1107 DATA
    _ZN4giac12__galUK_unitE @1108 DATA
    _ZN4giac12__galUS_unitE @1109 DATA
    _ZN4giac12__grain_unitE @1110 DATA
    _ZN4giac12__inH2O_unitE @1111 DATA
    _ZN4giac12__lbmol_unitE @1112 DATA
    _ZN4giac12__liqpt_unitE @1113 DATA
    _ZN4giac12__mille_unitE @1114 DATA
    _ZN4giac12__tepcC_unitE @1115 DATA
    _ZN4giac12__tepgC_unitE @1116 DATA
    _ZN4giac12__therm_unitE @1117 DATA
    _ZN4giac12__tonUK_unitE @1118 DATA
    _ZN4giac12_approx_modeERKNS_3genEPKNS_7contextE @1119
    _ZN4giac12_arcmin_unitE @1120 DATA
    _ZN4giac12_axe_radicalERKNS_3genEPKNS_7contextE @1121
    _ZN4giac12_bissectriceERKNS_3genEPKNS_7contextE @1122
    _ZN4giac12_blockmatrixERKNS_3genEPKNS_7contextE @1123
    _ZN4giac12_cauchy_icdfERKNS_3genEPKNS_7contextE @1124
    _ZN4giac12_circonscritERKNS_3genEPKNS_7contextE @1125
    _ZN4giac12_complexrootERKNS_3genEPKNS_7contextE @1126
    _ZN4giac12_coordonneesERKNS_3genEPKNS_7contextE @1127
    _ZN4giac12_correlationERKNS_3genEPKNS_7contextE @1128
    _ZN4giac12_cst_FaradayE @1129 DATA
    _ZN4giac12_cst_RydbergE @1130 DATA
    _ZN4giac12_cst_hPlanckE @1131 DATA
    _ZN4giac12_cst_lambda0E @1132 DATA
    _ZN4giac12_cst_lambdacE @1133 DATA
    _ZN4giac12_cube_centreERKNS_3genEPKNS_7contextE @1134
    _ZN4giac12_demi_droiteERKNS_3genEPKNS_7contextE @1135
    _ZN4giac12_est_elementERKNS_3genEPKNS_7contextE @1136
    _ZN4giac12_est_isoceleERKNS_3genEPKNS_7contextE @1137
    _ZN4giac12_est_losangeERKNS_3genEPKNS_7contextE @1138
    _ZN4giac12_exponentialERKNS_3genEPKNS_7contextE @1139
    _ZN4giac12_frequenciesERKNS_3genEPKNS_7contextE @1140
    _ZN4giac12_gammad_icdfERKNS_3genEPKNS_7contextE @1141
    _ZN4giac12_gramschmidtERKNS_3genEPKNS_7contextE @1142
    _ZN4giac12_graph3d2texERKNS_3genEPKNS_7contextE @1143
    _ZN4giac12_hypersphereERKNS_3genEPKNS_7contextE @1144
    _ZN4giac12_interactiveERKNS_3genEPKNS_7contextE @1145
    _ZN4giac12_is_includedERKNS_3genEPKNS_7contextE @1146
    _ZN4giac12_isopolygoneERKNS_3genEPKNS_7contextE @1147
    _ZN4giac12_kolmogorovdERKNS_3genEPKNS_7contextE @1148
    _ZN4giac12_kolmogorovtERKNS_3genEPKNS_7contextE @1149
    _ZN4giac12_leve_crayonERKNS_3genEPKNS_7contextE @1150
    _ZN4giac12_maple2mupadERKNS_3genEPKNS_7contextE @1151
    _ZN4giac12_matrix_normERKNS_3genEPKNS_7contextE @1152
    _ZN4giac12_micron_unitE @1153 DATA
    _ZN4giac12_multcrementERKNS_3genEPKNS_7contextE @1154
    _ZN4giac12_multinomialERKNS_3genEPKNS_7contextE @1155
    _ZN4giac12_multistringERKNS_3genEPKNS_7contextE @1156
    _ZN4giac12_mupad2mapleERKNS_3genEPKNS_7contextE @1157
    _ZN4giac12_negbinomialERKNS_3genEPKNS_7contextE @1158
    _ZN4giac12_normal_icdfERKNS_3genEPKNS_7contextE @1159
    _ZN4giac12_orthocentreERKNS_3genEPKNS_7contextE @1160
    _ZN4giac12_pas_de_coteERKNS_3genEPKNS_7contextE @1161
    _ZN4giac12_perimeteratERKNS_3genEPKNS_7contextE @1162
    _ZN4giac12_plotcontourERKNS_3genEPKNS_7contextE @1163
    _ZN4giac12_plotdensityERKNS_3genEPKNS_7contextE @1164
    _ZN4giac12_poisson_cdfERKNS_3genEPKNS_7contextE @1165
    _ZN4giac12_polygonplotERKNS_3genEPKNS_7contextE @1166
    _ZN4giac12_randpoissonERKNS_3genEPKNS_7contextE @1167
    _ZN4giac12_randstudentERKNS_3genEPKNS_7contextE @1168
    _ZN4giac12_rm_all_varsERKNS_3genEPKNS_7contextE @1169
    _ZN4giac12_scatterplotERKNS_3genEPKNS_7contextE @1170
    _ZN4giac12_shift_phaseERKNS_3genEPKNS_7contextE @1171
    _ZN4giac12_student_cdfERKNS_3genEPKNS_7contextE @1172
    _ZN4giac12_sum_riemannERKNS_3genEPKNS_7contextE @1173
    _ZN4giac12_switch_axesERKNS_3genEPKNS_7contextE @1174
    _ZN4giac12_tan2cossin2ERKNS_3genEPKNS_7contextE @1175
    _ZN4giac12_tan2sincos2ERKNS_3genEPKNS_7contextE @1176
    _ZN4giac12_tchebyshev1ERKNS_3genEPKNS_7contextE @1177
    _ZN4giac12_tchebyshev2ERKNS_3genEPKNS_7contextE @1178
    _ZN4giac12_tcollectsinERKNS_3genEPKNS_7contextE @1179
    _ZN4giac12_translationERKNS_3genEPKNS_7contextE @1180
    _ZN4giac12_uniform_cdfERKNS_3genEPKNS_7contextE @1181
    _ZN4giac12_vandermondeERKNS_3genEPKNS_7contextE @1182
    _ZN4giac12_weibull_cdfERKNS_3genEPKNS_7contextE @1183
    _ZN4giac12add_identityERNS_15dbgprint_vectorINS_3genEEE @1184
    _ZN4giac12add_identityERSt6vectorIS0_IiSaIiEESaIS2_EE @1185
    _ZN4giac12add_languageEi @1186
    _ZN4giac12add_relationESt6vectorINS_6line_tESaIS1_EEjPjS4_RKS0_INS_7basis_tESaIS5_EERKS0_IiSaIiEE @1187
    _ZN4giac12alias_at_NOPE @1188 DATA
    _ZN4giac12alias_at_absE @1189 DATA
    _ZN4giac12alias_at_andE @1190 DATA
    _ZN4giac12alias_at_argE @1191 DATA
    _ZN4giac12alias_at_cosE @1192 DATA
    _ZN4giac12alias_at_expE @1193 DATA
    _ZN4giac12alias_at_forE @1194 DATA
    _ZN4giac12alias_at_invE @1195 DATA
    _ZN4giac12alias_at_negE @1196 DATA
    _ZN4giac12alias_at_notE @1197 DATA
    _ZN4giac12alias_at_pntE @1198 DATA
    _ZN4giac12alias_at_powE @1199 DATA
    _ZN4giac12alias_at_sinE @1200 DATA
    _ZN4giac12alias_at_stoE @1201 DATA
    _ZN4giac12alias_at_tanE @1202 DATA
    _ZN4giac12alias_at_xorE @1203 DATA
    _ZN4giac12all_trig_solEPKNS_7contextE @1204
    _ZN4giac12all_trig_solEbPKNS_7contextE @1205
    _ZN4giac12alphaposcellERKSsRi @1206
    _ZN4giac12angle_radianEPKNS_7contextE @1207
    _ZN4giac12angle_radianEbPKNS_7contextE @1208
    _ZN4giac12archive_saveEPvRKNS_3genEPFjPKvjjS0_EPKNS_7contextEb @1209
    _ZN4giac12archive_saveEPvRKNS_3genEPKNS_7contextE @1210
    _ZN4giac12at_DELTALISTE @1211 DATA
    _ZN4giac12at_HLanguageE @1212 DATA
    _ZN4giac12at_HeavisideE @1213 DATA
    _ZN4giac12at_PIECEWISEE @1214 DATA
    _ZN4giac12at_RPN_LOCALE @1215 DATA
    _ZN4giac12at_RPN_UNTILE @1216 DATA
    _ZN4giac12at_RPN_WHILEE @1217 DATA
    _ZN4giac12at_SIGMALISTE @1218 DATA
    _ZN4giac12at_acos2asinE @1219 DATA
    _ZN4giac12at_acos2atanE @1220 DATA
    _ZN4giac12at_animationE @1221 DATA
    _ZN4giac12at_areaatrawE @1222 DATA
    _ZN4giac12at_array_stoE @1223 DATA
    _ZN4giac12at_asin2acosE @1224 DATA
    _ZN4giac12at_asin2atanE @1225 DATA
    _ZN4giac12at_atan2acosE @1226 DATA
    _ZN4giac12at_atan2asinE @1227 DATA
    _ZN4giac12at_backquoteE @1228 DATA
    _ZN4giac12at_bernoulliE @1229 DATA
    _ZN4giac12at_betad_cdfE @1230 DATA
    _ZN4giac12at_birapportE @1231 DATA
    _ZN4giac12at_cas_setupE @1232 DATA
    _ZN4giac12at_chisquareE @1233 DATA
    _ZN4giac12at_chooseboxE @1234 DATA
    _ZN4giac12at_decrementE @1235 DATA
    _ZN4giac12at_det_minorE @1236 DATA
    _ZN4giac12at_differentE @1237 DATA
    _ZN4giac12at_eliminateE @1238 DATA
    _ZN4giac12at_enveloppeE @1239 DATA
    _ZN4giac12at_est_carreE @1240 DATA
    _ZN4giac12at_exinscritE @1241 DATA
    _ZN4giac12at_factor_xnE @1242 DATA
    _ZN4giac12at_factorialE @1243 DATA
    _ZN4giac12at_fieldplotE @1244 DATA
    _ZN4giac12at_geometricE @1245 DATA
    _ZN4giac12at_graph2texE @1246 DATA
    _ZN4giac12at_histogramE @1247 DATA
    _ZN4giac12at_hyperboleE @1248 DATA
    _ZN4giac12at_hyperplanE @1249 DATA
    _ZN4giac12at_incrementE @1250 DATA
    _ZN4giac12at_inputformE @1251 DATA
    _ZN4giac12at_integrateE @1252 DATA
    _ZN4giac12at_intersectE @1253 DATA
    _ZN4giac12at_inversionE @1254 DATA
    _ZN4giac12at_lncollectE @1255 DATA
    _ZN4giac12at_longueur2E @1256 DATA
    _ZN4giac12at_makesuiteE @1257 DATA
    _ZN4giac12at_maple_libE @1258 DATA
    _ZN4giac12at_nextprimeE @1259 DATA
    _ZN4giac12at_normalizeE @1260 DATA
    _ZN4giac12at_normalmodE @1261 DATA
    _ZN4giac12at_paralleleE @1262 DATA
    _ZN4giac12at_parameterE @1263 DATA
    _ZN4giac12at_paramplotE @1264 DATA
    _ZN4giac12at_piecewiseE @1265 DATA
    _ZN4giac12at_plotfieldE @1266 DATA
    _ZN4giac12at_plotparamE @1267 DATA
    _ZN4giac12at_plotpolarE @1268 DATA
    _ZN4giac12at_point_divE @1269 DATA
    _ZN4giac12at_pointplusE @1270 DATA
    _ZN4giac12at_pointprodE @1271 DATA
    _ZN4giac12at_polarplotE @1272 DATA
    _ZN4giac12at_polygammaE @1273 DATA
    _ZN4giac12at_potentialE @1274 DATA
    _ZN4giac12at_powexpandE @1275 DATA
    _ZN4giac12at_prevprimeE @1276 DATA
    _ZN4giac12at_puissanceE @1277 DATA
    _ZN4giac12at_quote_powE @1278 DATA
    _ZN4giac12at_rectangleE @1279 DATA
    _ZN4giac12at_resultantE @1280 DATA
    _ZN4giac12at_sylvesterE @1281 DATA
    _ZN4giac12at_tablefuncE @1282 DATA
    _ZN4giac12at_try_catchE @1283 DATA
    _ZN4giac12at_tsimplifyE @1284 DATA
    _ZN4giac12at_unarchiveE @1285 DATA
    _ZN4giac12at_xcas_modeE @1286 DATA
    _ZN4giac12at_xyztrangeE @1287 DATA
    _ZN4giac12atrig2ln_tabE @1288 DATA
    _ZN4giac12autosimplifyEPKNS_7contextE @1289
    _ZN4giac12autosimplifyERKSsPKNS_7contextE @1290
    _ZN4giac12binomial_cdfERKNS_3genES2_S2_S2_PKNS_7contextE @1291
    _ZN4giac12block_signalE @1292 DATA
    _ZN4giac12centre_rayonERKNS_3genERS0_S3_bPKNS_7contextE @1293
    _ZN4giac12cercle2curveERKNS_3genEPKNS_7contextE @1294
    _ZN4giac12change_scaleERNS_15dbgprint_vectorINS_3genEEERKS1_ @1295
    _ZN4giac12check3dpointERKNS_3genE @1296
    _ZN4giac12check_binaryERKNS_3genERS0_S3_ @1297
    _ZN4giac12check_secureEv @1298
    _ZN4giac12check_sto_38ERNS_3genEPKc @1299
    _ZN4giac12check_threadEPNS_7contextE @1300
    _ZN4giac12chk_not_unitERKNS_3genE @1301
    _ZN4giac12ck_parameterERKNS_3genEPKNS_7contextE @1302
    _ZN4giac12classify_sccERKSt6vectorIS0_IjSaIjEESaIS2_EERS4_S7_S7_ @1303
    _ZN4giac12cocoa_gbasisERNS_8vectpolyERKNS_3genE @1304
    _ZN4giac12coeffindex_tC1Ebj @1305
    _ZN4giac12coeffindex_tC1Ev @1306
    _ZN4giac12complex_modeEPKNS_7contextE @1307
    _ZN4giac12complex_modeEbPKNS_7contextE @1308
    _ZN4giac12complex_sortERKNS_3genES2_PKNS_7contextE @1309
    _ZN4giac12context_listEv @1310
    _ZN4giac12convert_fromINS_3genEjEEvNSt6vectorINS_10T_unsignedIT_T0_EESaIS6_EE14const_iteratorES9_RKS2_IsSaIsEEN9__gnu_cxx17__normal_iteratorIPNS_8monomialIS1_EES2_ISH_SaISH_EEEEi @1311
    _ZN4giac12convert_fromINS_3genEjEEvRKSt6vectorINS_10T_unsignedIT_T0_EESaIS6_EERKS2_IsSaIsEERNS_6tensorIS1_EEb @1312
    _ZN4giac12convert_fromIdjEEvNSt6vectorINS_10T_unsignedIT_T0_EESaIS5_EE14const_iteratorES8_RKS1_IsSaIsEEN9__gnu_cxx17__normal_iteratorIPNS_8monomialINS_3genEEES1_ISH_SaISH_EEEEi @1313
    _ZN4giac12convert_fromIdjEEvRKSt6vectorINS_10T_unsignedIT_T0_EESaIS5_EERKS1_IsSaIsEERNS_6tensorINS_3genEEEb @1314
    _ZN4giac12convert_fromIdyEEvNSt6vectorINS_10T_unsignedIT_T0_EESaIS5_EE14const_iteratorES8_RKS1_IsSaIsEEN9__gnu_cxx17__normal_iteratorIPNS_8monomialINS_3genEEES1_ISH_SaISH_EEEEi @1315
    _ZN4giac12convert_fromIdyEEvRKSt6vectorINS_10T_unsignedIT_T0_EESaIS5_EERKS1_IsSaIsEERNS_6tensorINS_3genEEEb @1316
    _ZN4giac12convert_fromIijEEvNSt6vectorINS_10T_unsignedIT_T0_EESaIS5_EE14const_iteratorES8_RKS1_IsSaIsEEN9__gnu_cxx17__normal_iteratorIPNS_8monomialINS_3genEEES1_ISH_SaISH_EEEEi @1317
    _ZN4giac12convert_fromIijEEvRKSt6vectorINS_10T_unsignedIT_T0_EESaIS5_EERKS1_IsSaIsEERNS_6tensorINS_3genEEEb @1318
    _ZN4giac12convert_fromIxjEEvNSt6vectorINS_10T_unsignedIT_T0_EESaIS5_EE14const_iteratorES8_RKS1_IsSaIsEEN9__gnu_cxx17__normal_iteratorIPNS_8monomialINS_3genEEES1_ISH_SaISH_EEEEi @1319
    _ZN4giac12convert_fromIxjEEvRKSt6vectorINS_10T_unsignedIT_T0_EESaIS5_EERKS1_IsSaIsEERNS_6tensorINS_3genEEEb @1320
    _ZN4giac12convert_fromIxyEEvNSt6vectorINS_10T_unsignedIT_T0_EESaIS5_EE14const_iteratorES8_RKS1_IsSaIsEEN9__gnu_cxx17__normal_iteratorIPNS_8monomialINS_3genEEES1_ISH_SaISH_EEEEi @1321
    _ZN4giac12convert_fromIxyEEvRKSt6vectorINS_10T_unsignedIT_T0_EESaIS5_EERKS1_IsSaIsEERNS_6tensorINS_3genEEEb @1322
    _ZN4giac12convert_realERKNS_3genEPKNS_7contextE @1323
    _ZN4giac12cst_epsilon0E @1324 DATA
    _ZN4giac12cycles2permuERKSt6vectorIS0_IiSaIiEESaIS2_EE @1325
    _ZN4giac12debug_structC1Ev @1326
    _ZN4giac12debug_structC2Ev @1327
    _ZN4giac12debug_structD1Ev @1328
    _ZN4giac12debug_structD2Ev @1329
    _ZN4giac12debug_structaSERKS0_ @1330
    _ZN4giac12distributionEi @1331
    _ZN4giac12doing_insmodE @1332 DATA
    _ZN4giac12equalposcompEPKNS_18unary_function_ptrERS1_ @1333
    _ZN4giac12equalposcompEPKNS_18unary_function_ptrES2_ @1334
    _ZN4giac12equalposcompEPKPKNS_18unary_function_ptrERS1_ @1335
    _ZN4giac12equalposcompEPii @1336
    _ZN4giac12equalposcompERKNS_15dbgprint_vectorINS_3genEEERKS1_ @1337
    _ZN4giac12equalposcompERKSt6vectorIPKNS_18unary_function_ptrESaIS3_EES3_ @1338
    _ZN4giac12equalposcompESt6vectorIiSaIiEEi @1339
    _ZN4giac12equalposcompESt6vectorIsSaIsEEi @1340
    _ZN4giac12equalposcompIjEEiRKSt6vectorIT_SaIS2_EERKS2_ @1341
    _ZN4giac12equalposcompIsEEiRKSt6vectorIT_SaIS2_EERKS2_ @1342
    _ZN4giac12eratosthene2EdRPSt6vectorIbSaIbEE @1343
    _ZN4giac12evaled_tableEPKNS_7contextE @1344
    _ZN4giac12evalf_doubleERKNS_3genEiPKNS_7contextE @1345
    _ZN4giac12exact_doubleEdd @1346
    _ZN4giac12expand_re_imEPKNS_7contextE @1347
    _ZN4giac12expand_re_imEbPKNS_7contextE @1348
    _ZN4giac12find_nonzeroERKNS_6tensorINS_3genEEERSt6vectorIsSaIsEE @1349
    _ZN4giac12findabcdeltaERKNS_6tensorINS_3genEEERS2_S5_S5_S5_ @1350
    _ZN4giac12firstnonzeroERKNS_15dbgprint_vectorINS_3genEEE @1351
    _ZN4giac12frac_neg_outERKNS_3genEPKNS_7contextE @1352
    _ZN4giac12funcplotfuncERKNS_3genEbPKNS_7contextE @1353
    _ZN4giac12galois_field6reduceEv @1354
    _ZN4giac12galois_fieldC1ENS_3genERKS1_S3_S3_ @1355
    _ZN4giac12galois_fieldC1ERKNS_3genEbPKNS_7contextE @1356
    _ZN4giac12galois_fieldC1ERKS0_ @1357
    _ZN4giac12galois_fieldC2ENS_3genERKS1_S3_S3_ @1358
    _ZN4giac12galois_fieldC2ERKNS_3genEbPKNS_7contextE @1359
    _ZN4giac12galois_fieldC2ERKS0_ @1360
    _ZN4giac12galois_fieldD0Ev @1361
    _ZN4giac12galois_fieldD1Ev @1362
    _ZN4giac12galois_fieldaSERKS0_ @1363
    _ZN4giac12galois_fieldixERKNS_3genE @1364
    _ZN4giac12gen2polynomeERKNS_3genEi @1365
    _ZN4giac12gencksignerrERKNS_3genEPKNS_7contextE @1366
    _ZN4giac12ggbputinlistERKNS_3genEPKNS_7contextE @1367
    _ZN4giac12giac_hamdistERKNS_3genES2_ @1368
    _ZN4giac12giac_yydebugE @1369 DATA
    _ZN4giac12giac_yyparseEPv @1370
    _ZN4giac12global_evalfERKNS_3genEi @1371
    _ZN4giac12gnuplot_tmaxE @1372 DATA
    _ZN4giac12gnuplot_tminE @1373 DATA
    _ZN4giac12gnuplot_xmaxE @1374 DATA
    _ZN4giac12gnuplot_xminE @1375 DATA
    _ZN4giac12gnuplot_ymaxE @1376 DATA
    _ZN4giac12gnuplot_yminE @1377 DATA
    _ZN4giac12gnuplot_zmaxE @1378 DATA
    _ZN4giac12gnuplot_zminE @1379 DATA
    _ZN4giac12horner_basicERKNS_15dbgprint_vectorINS_3genEEERKS1_ @1380
    _ZN4giac12hypersurfaceERKNS_3genES2_S2_ @1381
    _ZN4giac12in_gbasismodERNS_9vectpoly8ERNS_11vectpolymodERSt6vectorIjSaIjEEibPS4_ISt4pairIjjESaIS9_EE @1382
    _ZN4giac12in_mmult_modERKSt6vectorIS0_IiSaIiEESaIS2_EES6_RS4_iiiiiiibiii @1383
    _ZN4giac12in_rectangleEdddddd @1384
    _ZN4giac12index_statusEPKNS_7contextE @1385
    _ZN4giac12index_statusEiPKNS_7contextE @1386
    _ZN4giac12init_contextEPNS_7contextE @1387
    _ZN4giac12inplace_multERKNS_3genERSt6vectorINS_10T_unsignedIS0_NS_6tdeg_tEEESaIS6_EE @1388
    _ZN4giac12integer_modeEPKNS_7contextE @1389
    _ZN4giac12integer_modeEbPKNS_7contextE @1390
    _ZN4giac12integrate_idERKNS_3genERKNS_14identificateurEPKNS_7contextE @1391
    _ZN4giac12intreduce_pfERKNS_2pfINS_3genEEERSt6vectorIS2_SaIS2_EEb @1392
    _ZN4giac12inv_test_expERKNS_3genEPKNS_7contextE @1393
    _ZN4giac12is_minus_oneERKNS_3genE @1394
    _ZN4giac12lapack_schurERNS_10std_matrixINS_3genEEES3_bRNS_15dbgprint_vectorIS1_EEPKNS_7contextE @1395
    _ZN4giac12lapack_schurERNS_13matrix_doubleES1_bRNS_15dbgprint_vectorINS_3genEEE @1396
    _ZN4giac12latex_formatEPKNS_7contextE @1397
    _ZN4giac12latex_replotEP6_iobufRKSs @1398
    _ZN4giac12linear_applyERKNS_3genES2_RS0_PKNS_7contextEPFS0_S2_S2_S3_S6_E @1399
    _ZN4giac12linear_applyERKNS_3genES2_S2_RS0_PKNS_7contextEPFS0_S2_S2_S2_S3_S6_E @1400
    _ZN4giac12longlong2mpzExPA1_12__mpz_struct @1401
    _ZN4giac12lvarxwithinvERKNS_3genES2_PKNS_7contextE @1402
    _ZN4giac12makeintervalERKNS_3genES2_ @1403
    _ZN4giac12makesequenceERKNS_3genE @1404
    _ZN4giac12makesequenceERKNS_3genES2_ @1405
    _ZN4giac12makesequenceERKNS_3genES2_S2_ @1406
    _ZN4giac12makesequenceERKNS_3genES2_S2_S2_ @1407
    _ZN4giac12makesequenceERKNS_3genES2_S2_S2_S2_ @1408
    _ZN4giac12makesequenceERKNS_3genES2_S2_S2_S2_S2_ @1409
    _ZN4giac12makesequenceERKNS_3genES2_S2_S2_S2_S2_S2_ @1410
    _ZN4giac12makesequenceERKNS_3genES2_S2_S2_S2_S2_S2_S2_ @1411
    _ZN4giac12makesequenceERKNS_3genES2_S2_S2_S2_S2_S2_S2_S2_ @1412
    _ZN4giac12matrix_applyERKNS_3genES2_PFS0_S2_S2_E @1413
    _ZN4giac12matrix_applyERKNS_3genES2_PKNS_7contextEPFS0_S2_S2_S5_E @1414
    _ZN4giac12max_sum_sqrtEPKNS_7contextE @1415
    _ZN4giac12max_sum_sqrtEiPKNS_7contextE @1416
    _ZN4giac12mergematriceERKNS_15dbgprint_vectorINS_3genEEES4_ @1417
    _ZN4giac12mergemodpolyERNS_15dbgprint_vectorINS_3genEEERKS2_i @1418
    _ZN4giac12mergevecteurERKNS_15dbgprint_vectorINS_3genEEES4_ @1419
    _ZN4giac12mksa_convertERKNS_14identificateurEPKNS_7contextE @1420
    _ZN4giac12mksa_convertERKNS_3genEPKNS_7contextE @1421
    _ZN4giac12mmult_doubleERKNS_15dbgprint_vectorINS_3genEEES4_RS2_ @1422
    _ZN4giac12monomial2genERKNS_8monomialINS_3genEEE @1423
    _ZN4giac12mpz2longlongEPA1_12__mpz_structS2_Rx @1424
    _ZN4giac12multiplicityERKSt6vectorINS_7facteurINS_6tensorINS_3genEEEEESaIS5_EERKS3_PKNS_7contextE @1425
    _ZN4giac12opened_quoteEPKNS_7contextE @1426
    _ZN4giac12opened_quoteEiPKNS_7contextE @1427
    _ZN4giac12operator_divERKNS_15dbgprint_vectorINS_3genEEERKS1_PNS_11environmentE @1428
    _ZN4giac12operator_divERKNS_15dbgprint_vectorINS_3genEEES4_PNS_11environmentE @1429
    _ZN4giac12operator_modERKNS_15dbgprint_vectorINS_3genEEES4_PNS_11environmentE @1430
    _ZN4giac12pari_ifactorERKNS_3genE @1431
    _ZN4giac12pari_isprimeERKNS_3genEi @1432
    _ZN4giac12parser_errorEPKNS_7contextE @1433
    _ZN4giac12parser_errorERKSsPKNS_7contextE @1434
    _ZN4giac12parser_lexerC1Ev @1435
    _ZN4giac12parser_lexerD1Ev @1436
    _ZN4giac12permu2cyclesERKSt6vectorIiSaIiEE @1437
    _ZN4giac12plot_sommetsE @1438 DATA
    _ZN4giac12plotimplicitERKNS_3genES2_S2_S2_ddddddiiidRKNS_15dbgprint_vectorIS0_EEbPKNS_7contextE @1439
    _ZN4giac12plotimplicitERKNS_3genES2_S2_ddddiidRKNS_15dbgprint_vectorIS0_EEbPKNS_7contextE @1440
    _ZN4giac12plus_sqrt2_2E @1441 DATA
    _ZN4giac12plus_sqrt3_2E @1442 DATA
    _ZN4giac12plus_sqrt3_3E @1443 DATA
    _ZN4giac12poisson_icdfERKNS_3genES2_PKNS_7contextE @1444
    _ZN4giac12poisson_icdfEddPKNS_7contextE @1445
    _ZN4giac12poly_is_realERKNS_6tensorINS_3genEEE @1446
    _ZN4giac12powlog2floatE @1447 DATA
    _ZN4giac12print_FLOAT_ERKfPKNS_7contextE @1448
    _ZN4giac12print_binaryERKNS_11real_objectE @1449
    _ZN4giac12proot_cachedERKNS_15dbgprint_vectorINS_3genEEEdRS2_ @1450
    _ZN4giac12protect_sortERKNS_15dbgprint_vectorINS_3genEEEPKNS_7contextE @1451
    _ZN4giac12quoremdoubleERKSt6vectorIdSaIdEES4_RS2_S5_d @1452
    _ZN4giac12randbinomialEidPKNS_7contextE @1453
    _ZN4giac12rational_sumERKNS_3genES2_RS0_S3_bPKNS_7contextE @1454
    _ZN4giac12reduce1smallERNS_5poly8ERKS0_S1_S1_PNS_11environmentE @1455
    _ZN4giac12ref_gen_userC1ERKNS_8gen_userE @1456
    _ZN4giac12ref_gen_userD1Ev @1457
    _ZN4giac12ref_infinityE @1458 DATA
    _ZN4giac12ref_symbolicC1ERKNS_8symbolicE @1459
    _ZN4giac12ref_symbolicD1Ev @1460
    _ZN4giac12remove_equalEN9__gnu_cxx17__normal_iteratorIPKNS_3genESt6vectorIS2_SaIS2_EEEES8_ @1461
    _ZN4giac12remove_equalERKNS_3genE @1462
    _ZN4giac12rur_linsolveERKNS_11vectpolymodERKNS_7polymodES5_RKNS_15dbgprint_vectorINS_3genEEEiRS8_ @1463
    _ZN4giac12rur_separateERNS_11vectpolymodERNS_7polymodEiS3_RNS_15dbgprint_vectorINS_3genEEES7_i @1464
    _ZN4giac12series_flagsEPKNS_7contextE @1465
    _ZN4giac12series_flagsEiPKNS_7contextE @1466
    _ZN4giac12set_languageEiPKNS_7contextE @1467
    _ZN4giac12shiftmodpolyERNS_15dbgprint_vectorINS_3genEEEi @1468
    _ZN4giac12similitude3dERKNS_15dbgprint_vectorINS_3genEEERKS1_S6_S6_iPKNS_7contextE @1469
    _ZN4giac12smallmodrrefERSt6vectorIS0_IiSaIiEESaIS2_EERNS_15dbgprint_vectorINS_3genEEERS2_SA_RxiiiiiiiibPNS_19smallmodrref_temp_tE @1470
    _ZN4giac12smallmultmodEiRNS_7polymodEi @1471
    _ZN4giac12smallmultsubERKNS_5poly8EjiS2_RKNS_6tdeg_tERS0_i @1472
    _ZN4giac12smod_inplaceERNS_15dbgprint_vectorINS_3genEEERKS1_ @1473
    _ZN4giac12snedecor_cdfERKNS_3genES2_S2_PKNS_7contextE @1474
    _ZN4giac12sqff_evidentERKNS_6tensorINS_3genEEERSt6vectorINS_7facteurIS2_EESaIS7_EEbb @1475
    _ZN4giac12strassen_modEbbRKSt6vectorIS0_IiSaIiEESaIS2_EES6_RS4_iiiiiiii @1476
    _ZN4giac12string_undefE @1477 DATA
    _ZN4giac12student_icdfERKNS_3genES2_PKNS_7contextE @1478
    _ZN4giac12subresultantERKNS_6tensorINS_3genEEES4_RS1_RS2_ @1479
    _ZN4giac12subresultantERKNS_6tensorINS_3genEEES4_RS2_ @1480
    _ZN4giac12svg_preambleEdd @1481
    _ZN4giac12swap_indicesEPs @1482
    _ZN4giac12switch_rootsERKSt6vectorIiSaIiEERS0_INS_7basis_tESaIS5_EEjjjjiiRKS0_IjSaIjEENS_3genERA1_12__mpz_structi @1483
    _ZN4giac12symb_RPN_FORERKNS_3genES2_ @1484
    _ZN4giac12symb_composeERKNS_3genE @1485
    _ZN4giac12symb_programERKNS_3genE @1486
    _ZN4giac12symb_programERKNS_3genES2_S2_PKNS_7contextE @1487
    _ZN4giac12symb_segmentERKNS_3genES2_RKNS_15dbgprint_vectorIS0_EEiPKNS_7contextE @1488
    _ZN4giac12symb_texpandERKNS_3genE @1489
    _ZN4giac12tantocossin2ERKNS_3genEPKNS_7contextE @1490
    _ZN4giac12tantosincos2ERKNS_3genEPKNS_7contextE @1491
    _ZN4giac12taylorshift1EPA1_12__mpz_structi @1492
    _ZN4giac12tconvolutionERKNS_15dbgprint_vectorINS_3genEEES4_RS2_PKNS_7contextE @1493
    _ZN4giac12tconvolutionERKNS_3genES2_RKNS_15dbgprint_vectorIS0_EERS4_PKNS_7contextE @1494
    _ZN4giac12tex_preambleE @1495 DATA
    _ZN4giac12thread_paramC1Ev @1496
    _ZN4giac12thread_paramC2Ev @1497
    _ZN4giac12thread_paramD1Ev @1498
    _ZN4giac12ti_translateERSiRSo @1499
    _ZN4giac12total_degreeERKNS_6tensorINS_3genEEE @1500
    _ZN4giac12total_degreeERKNS_7index_mE @1501
    _ZN4giac12total_degreeIiEET_RKSt6vectorIS1_SaIS1_EE @1502
    _ZN4giac12total_degreeIsEET_RKSt6vectorIS1_SaIS1_EE @1503
    _ZN4giac12translate_atEPKc @1504
    _ZN4giac12trig2exp_tabE @1505 DATA
    _ZN4giac12turtle_stackEPKNS_7contextE @1506
    _ZN4giac12turtle_stateEPKNS_7contextE @1507
    _ZN4giac12u_pair_indexIjEC1Ejjj @1508
    _ZN4giac12u_pair_indexIjEC1Ev @1509
    _ZN4giac12u_pair_indexIyEC1Ejjy @1510
    _ZN4giac12u_pair_indexIyEC1Ev @1511
    _ZN4giac12unicode2utf8EPKw @1512
    _ZN4giac12unicode2utf8EPKwPcj @1513
    _ZN4giac12unitname_tabE @1514 DATA
    _ZN4giac12unmodularizeENS_6tensorINS_3genEEERS2_ @1515
    _ZN4giac12unmodularizeERKNS_15dbgprint_vectorINS_3genEEE @1516
    _ZN4giac12unmodularizeERKNS_6tensorINS_3genEEE @1517
    _ZN4giac12unmodularizeERKSt6vectorIiSaIiEE @1518
    _ZN4giac12unsigned_infE @1519 DATA
    _ZN4giac12utf82unicodeEPKc @1520
    _ZN4giac12utf82unicodeEPKcPwj @1521
    _ZN4giac12vecteur2prodERKNS_15dbgprint_vectorINS_3genEEE @1522
    _ZN4giac12vectzpolymodC1Ev @1523
    _ZN4giac12vectzpolymodD1Ev @1524
    _ZN4giac12weibull_icdfERKNS_3genES2_S2_S2_PKNS_7contextE @1525
    _ZN4giac12xcasroot_dirEPKc @1526
    _ZN4giac12zmakelinesubERKNS_8zpolymodEPKNS_6tdeg_tERKSt6vectorIS3_SaIS3_EERS6_IiSaIiEEii @1527
    _ZN4giac13GCDHEU_DEGREEE @1528 DATA
    _ZN4giac13GCDHEU_MAXTRYE @1529 DATA
    _ZN4giac13Heaviside_tabE @1530 DATA
    _ZN4giac13TRY_FU_UPRIMEE @1531 DATA
    _ZN4giac13Tref_fractionINS_3genEEC1ERKNS_9TfractionIS1_EE @1532
    _ZN4giac13Tref_fractionINS_3genEED1Ev @1533
    _ZN4giac13_PERCENTTOTALERKNS_3genEPKNS_7contextE @1534
    _ZN4giac13_Rankine_unitE @1535 DATA
    _ZN4giac13_VAS_positiveERKNS_3genEPKNS_7contextE @1536
    _ZN4giac13__arcmin_unitE @1537 DATA
    _ZN4giac13__interactiveE @1538 DATA
    _ZN4giac13__micron_unitE @1539 DATA
    _ZN4giac13__widget_sizeE @1540 DATA
    _ZN4giac13_add_languageERKNS_3genEPKNS_7contextE @1541
    _ZN4giac13_angle_radianERKNS_3genEPKNS_7contextE @1542
    _ZN4giac13_autosimplifyERKNS_3genEPKNS_7contextE @1543
    _ZN4giac13_binary_minusERKNS_3genEPKNS_7contextE @1544
    _ZN4giac13_binomial_cdfERKNS_3genEPKNS_7contextE @1545
    _ZN4giac13_cache_tortueERKNS_3genEPKNS_7contextE @1546
    _ZN4giac13_complex_modeERKNS_3genEPKNS_7contextE @1547
    _ZN4giac13_constant_oneERKNS_3genEPKNS_7contextE @1548
    _ZN4giac13_cst_epsilon0E @1549 DATA
    _ZN4giac13_cycles2permuERKNS_3genEPKNS_7contextE @1550
    _ZN4giac13_epsilon2zeroERKNS_3genEPKNS_7contextE @1551
    _ZN4giac13_equalposcompERKSt6vectorIiSaIiEEi @1552
    _ZN4giac13_est_conjugueERKNS_3genEPKNS_7contextE @1553
    _ZN4giac13_galois_fieldERKNS_3genEPKNS_7contextE @1554
    _ZN4giac13_hypersurfaceERKNS_3genEPKNS_7contextE @1555
    _ZN4giac13_inter_droiteERKNS_3genEPKNS_7contextE @1556
    _ZN4giac13_lapack_limitERKNS_3genEPKNS_7contextE @1557
    _ZN4giac13_maple_subsopERKNS_3genEPKNS_7contextE @1558
    _ZN4giac13_permu2cyclesERKNS_3genEPKNS_7contextE @1559
    _ZN4giac13_plotimplicitERKNS_3genEPKNS_7contextE @1560
    _ZN4giac13_poisson_icdfERKNS_3genEPKNS_7contextE @1561
    _ZN4giac13_quadrilatereERKNS_3genEPKNS_7contextE @1562
    _ZN4giac13_randbinomialERKNS_3genEPKNS_7contextE @1563
    _ZN4giac13_rationalrootERKNS_3genEPKNS_7contextE @1564
    _ZN4giac13_rmbreakpointERKNS_3genEPKNS_7contextE @1565
    _ZN4giac13_save_historyERKNS_3genEPKNS_7contextE @1566
    _ZN4giac13_semi_augmentERKNS_3genEPKNS_7contextE @1567
    _ZN4giac13_sialorssinonERKNS_3genEPKNS_7contextE @1568
    _ZN4giac13_snedecor_cdfERKNS_3genEPKNS_7contextE @1569
    _ZN4giac13_sommets_abcaERKNS_3genEPKNS_7contextE @1570
    _ZN4giac13_student_icdfERKNS_3genEPKNS_7contextE @1571
    _ZN4giac13_unarchive_tiERKNS_3genEPKNS_7contextE @1572
    _ZN4giac13_uniform_icdfERKNS_3genEPKNS_7contextE @1573
    _ZN4giac13_weibull_icdfERKNS_3genEPKNS_7contextE @1574
    _ZN4giac13abs_calc_modeEPKNS_7contextE @1575
    _ZN4giac13absolute_pathERKSs @1576
    _ZN4giac13acos2asin_tabE @1577 DATA
    _ZN4giac13acos2atan_tabE @1578 DATA
    _ZN4giac13add_extensionERKSsS1_S1_ @1579
    _ZN4giac13adjust_sst_atERKNS_3genEPKNS_7contextE @1580
    _ZN4giac13alias_at_IFTEE @1581 DATA
    _ZN4giac13alias_at_acosE @1582 DATA
    _ZN4giac13alias_at_asinE @1583 DATA
    _ZN4giac13alias_at_atanE @1584 DATA
    _ZN4giac13alias_at_blocE @1585 DATA
    _ZN4giac13alias_at_caseE @1586 DATA
    _ZN4giac13alias_at_coshE @1587 DATA
    _ZN4giac13alias_at_hashE @1588 DATA
    _ZN4giac13alias_at_ifteE @1589 DATA
    _ZN4giac13alias_at_plusE @1590 DATA
    _ZN4giac13alias_at_prodE @1591 DATA
    _ZN4giac13alias_at_sameE @1592 DATA
    _ZN4giac13alias_at_sinhE @1593 DATA
    _ZN4giac13alias_at_tanhE @1594 DATA
    _ZN4giac13alias_at_unitE @1595 DATA
    _ZN4giac13all_inf_equalERKSt6vectorIsSaIsEES4_ @1596
    _ZN4giac13all_sup_equalERKSt6vectorIsSaIsEES4_ @1597
    _ZN4giac13approx_rootofERKNS_3genEPKNS_7contextE @1598
    _ZN4giac13archive_countERKNS_3genEPKNS_7contextE @1599
    _ZN4giac13asin2acos_tabE @1600 DATA
    _ZN4giac13asin2atan_tabE @1601 DATA
    _ZN4giac13at_angleatrawE @1602 DATA
    _ZN4giac13at_betad_icdfE @1603 DATA
    _ZN4giac13at_breakpointE @1604 DATA
    _ZN4giac13at_cauchy_cdfE @1605 DATA
    _ZN4giac13at_changebaseE @1606 DATA
    _ZN4giac13at_check_typeE @1607 DATA
    _ZN4giac13at_chisquaredE @1608 DATA
    _ZN4giac13at_composepowE @1609 DATA
    _ZN4giac13at_cyclotomicE @1610 DATA
    _ZN4giac13at_deuxpointsE @1611 DATA
    _ZN4giac13at_distanceatE @1612 DATA
    _ZN4giac13at_divcrementE @1613 DATA
    _ZN4giac13at_equal2diffE @1614 DATA
    _ZN4giac13at_est_aligneE @1615 DATA
    _ZN4giac13at_fourier_anE @1616 DATA
    _ZN4giac13at_fourier_bnE @1617 DATA
    _ZN4giac13at_fourier_cnE @1618 DATA
    _ZN4giac13at_gammad_cdfE @1619 DATA
    _ZN4giac13at_hessenbergE @1620 DATA
    _ZN4giac13at_homothetieE @1621 DATA
    _ZN4giac13at_igamma_expE @1622 DATA
    _ZN4giac13at_makevectorE @1623 DATA
    _ZN4giac13at_maple2xcasE @1624 DATA
    _ZN4giac13at_maple_modeE @1625 DATA
    _ZN4giac13at_maple_rootE @1626 DATA
    _ZN4giac13at_maple_subsE @1627 DATA
    _ZN4giac13at_mediatriceE @1628 DATA
    _ZN4giac13at_mupad2xcasE @1629 DATA
    _ZN4giac13at_normal_cdfE @1630 DATA
    _ZN4giac13at_order_sizeE @1631 DATA
    _ZN4giac13at_plot_styleE @1632 DATA
    _ZN4giac13at_pointminusE @1633 DATA
    _ZN4giac13at_projectionE @1634 DATA
    _ZN4giac13at_quaternionE @1635 DATA
    _ZN4giac13at_randfisherE @1636 DATA
    _ZN4giac13at_similitudeE @1637 DATA
    _ZN4giac13at_slopeatrawE @1638 DATA
    _ZN4giac13at_tan2sincosE @1639 DATA
    _ZN4giac13at_vpotentialE @1640 DATA
    _ZN4giac13atan2acos_tabE @1641 DATA
    _ZN4giac13atan2asin_tabE @1642 DATA
    _ZN4giac13bernoulli_tabE @1643 DATA
    _ZN4giac13binary_op_tabEv @1644
    _ZN4giac13binomial_icdfERKNS_3genES2_S2_PKNS_7contextE @1645
    _ZN4giac13check_symb_ofERKNS_3genES2_PKNS_7contextE @1646
    _ZN4giac13check_threadsEi @1647
    _ZN4giac13check_vect_38ERKSs @1648
    _ZN4giac13chisquare_cdfERKNS_3genES2_S2_PKNS_7contextE @1649
    _ZN4giac13chk_equal_modERKNS_15dbgprint_vectorINS_3genEEERKSt6vectorIS5_IiSaIiEESaIS7_EEi @1650
    _ZN4giac13chk_equal_modERKNS_3genERKSt6vectorIiSaIiEEi @1651
    _ZN4giac13chk_equal_modERKNS_3genExi @1652
    _ZN4giac13chk_equal_modERKNS_5poly8ERKNS_7polymodEi @1653
    _ZN4giac13chk_equal_modERKNS_5poly8ES2_i @1654
    _ZN4giac13chk_equal_modERKNS_9vectpoly8ERKNS_11vectpolymodERKSt6vectorIjSaIjEEi @1655
    _ZN4giac13chk_equal_modERKNS_9vectpoly8ES2_RKSt6vectorIjSaIjEEi @1656
    _ZN4giac13ck_is_greaterERKNS_3genES2_PKNS_7contextE @1657
    _ZN4giac13class_minimumE @1658 DATA
    _ZN4giac13clone_contextEPKNS_7contextE @1659
    _ZN4giac13cocoa_greduceERKNS_8vectpolyES2_RKNS_3genERS0_ @1660
    _ZN4giac13complex_rootsERKNS_15dbgprint_vectorINS_3genEEERKS1_S6_S6_S6_RS1_RS2_d @1661
    _ZN4giac13complex_rootsERKNS_15dbgprint_vectorINS_3genEEERKS1_S6_S6_S6_bdb @1662
    _ZN4giac13complex_substERKNS_3genERKNS_15dbgprint_vectorIS0_EES6_PKNS_7contextE @1663
    _ZN4giac13complex_substERKNS_3genES2_S2_PKNS_7contextE @1664
    _ZN4giac13contentgcdmodERKNS_6tensorINS_3genEEES4_RKS1_RS2_S7_ @1665
    _ZN4giac13context_namesE @1666 DATA
    _ZN4giac13convert_int32IjEEbRKNS_6tensorINS_3genEEERKSt6vectorIsSaIsEERS6_INS_10T_unsignedIiT_EESaISD_EEi @1667
    _ZN4giac13convertdoubleERKNS_15dbgprint_vectorINS_3genEEEdRSt6vectorIdSaIdEE @1668
    _ZN4giac13cot_psi_cacheEiPKNS_7contextE @1669
    _ZN4giac13crationalrootERNS_6tensorINS_3genEEEb @1670
    _ZN4giac13create_matrixEPKjjRKSt6vectorIcSaIcEERS2_IS2_IiSaIiEESaIS8_EE @1671
    _ZN4giac13create_matrixERKSt6vectorIiSaIiEEPKjjRKS0_IcSaIcEERS0_IS2_SaIS2_EE @1672
    _ZN4giac13cst_RinfinityE @1673 DATA
    _ZN4giac13cst_epsilon0qE @1674 DATA
    _ZN4giac13cst_epsilonoxE @1675 DATA
    _ZN4giac13cst_epsilonsiE @1676 DATA
    _ZN4giac13cst_pi_over_2E @1677 DATA
    _ZN4giac13cst_qepsilon0E @1678 DATA
    _ZN4giac13csturm_squareERKNS_3genES2_S2_RS0_PKNS_7contextE @1679
    _ZN4giac13current_sheetERKNS_3genEPKNS_7contextE @1680
    _ZN4giac13default_colorEPKNS_7contextE @1681
    _ZN4giac13default_colorEiPKNS_7contextE @1682
    _ZN4giac13deletecomplexEPNS_11ref_complexE @1683
    _ZN4giac13distrib_nargsEi @1684
    _ZN4giac13do_linearfindERKNS_6tensorINS_3genEEEPNS_11environmentERS2_RNS_8vectpolyERNS_15dbgprint_vectorIS1_EERi @1685
    _ZN4giac13do_local_evalERKNS_14identificateurEib @1686
    _ZN4giac13dotvector_intERKSt6vectorIiSaIiEES4_i @1687
    _ZN4giac13double_is_intERKNS_3genEPKNS_7contextE @1688
    _ZN4giac13double_lu2invERNS_13matrix_doubleERKSt6vectorIiSaIiEE @1689
    _ZN4giac13est_paralleleERKNS_3genES2_PKNS_7contextE @1690
    _ZN4giac13evalf_inplaceERNS_6tensorINS_3genEEE @1691
    _ZN4giac13exact_inplaceERNS_6tensorINS_3genEEE @1692
    _ZN4giac13exactquotientERKNS_6tensorINS_3genEEES4_RS2_b @1693
    _ZN4giac13exp2power_tabE @1694 DATA
    _ZN4giac13factorcollectERKNS_3genEbPKNS_7contextE @1695
    _ZN4giac13factorial_tabE @1696 DATA
    _ZN4giac13fast_icontentERKNS_3genE @1697
    _ZN4giac13format_doubleEPKNS_7contextE @1698
    _ZN4giac13francis_schurERNS_10std_matrixINS_3genEEEiiS3_idbbbbPKNS_7contextE @1699
    _ZN4giac13francis_schurERNS_13matrix_doubleEiiS1_idbb @1700
    _ZN4giac13francis_schurERNS_21matrix_complex_doubleEiiS1_idbb @1701
    _ZN4giac13gen2complex_dERKNS_3genE @1702
    _ZN4giac13genfromstringERKSs @1703
    _ZN4giac13gentoofewargsERKSsPKNS_7contextE @1704
    _ZN4giac13geometric_cdfERKNS_3genES2_PKNS_7contextE @1705
    _ZN4giac13ggb_num_coeffERNS_3genE @1706
    _ZN4giac13giac_aide_dirEv @1707
    _ZN4giac13gnuplot_tstepE @1708 DATA
    _ZN4giac13guess_programERNS_3genEPKNS_7contextE @1709
    _ZN4giac13has_mod_coeffERKNS_15dbgprint_vectorINS_3genEEERS1_ @1710
    _ZN4giac13has_mod_coeffERKNS_3genERS0_ @1711
    _ZN4giac13has_mod_coeffERKNS_6tensorINS_3genEEERS1_ @1712
    _ZN4giac13has_num_coeffERKNS_15dbgprint_vectorINS_3genEEE @1713
    _ZN4giac13has_num_coeffERKNS_3genE @1714
    _ZN4giac13has_num_coeffERKNS_6tensorINS_3genEEE @1715
    _ZN4giac13horner_rootofERKNS_15dbgprint_vectorINS_3genEEERKS1_PKNS_7contextE @1716
    _ZN4giac13i_sqrt_minus1EPKNS_7contextE @1717
    _ZN4giac13i_sqrt_minus1EiPKNS_7contextE @1718
    _ZN4giac13idnt_symb_intERKNS_3genE @1719
    _ZN4giac13in_doublerrefERNS_13matrix_doubleERNS_15dbgprint_vectorINS_3genEEERSt6vectorIiSaIiEES9_RdiiiiiidibPNS_17doublerref_temp_tE @1720
    _ZN4giac13init_geogebraEbPKNS_7contextE @1721
    _ZN4giac13inner_POLYdimERKNS_15dbgprint_vectorINS_3genEEE @1722
    _ZN4giac13integrate_genERKNS_3genES2_PKNS_7contextE @1723
    _ZN4giac13interpolyedreERKNS_15dbgprint_vectorINS_3genEEERKS1_PKNS_7contextE @1724
    _ZN4giac13interpolygoneERKNS_15dbgprint_vectorINS_3genEEERKS1_PKNS_7contextE @1725
    _ZN4giac13invpowtan_tabE @1726 DATA
    _ZN4giac13is_cyclotomicERKNS_15dbgprint_vectorINS_3genEEEPKNS_7contextE @1727
    _ZN4giac13is_cyclotomicERKNS_15dbgprint_vectorINS_3genEEEd @1728
    _ZN4giac13is_elementaryERKNS_15dbgprint_vectorINS_3genEEERKS1_ @1729
    _ZN4giac13is_inequalityERKNS_3genE @1730
    _ZN4giac13is_inequationERKNS_3genE @1731
    _ZN4giac13is_linear_wrtERKNS_3genES2_RS0_S3_PKNS_7contextE @1732
    _ZN4giac13is_stochasticERKNS_3genERNS_15dbgprint_vectorIS0_EEPKNS_7contextE @1733
    _ZN4giac13is_zero__VECTERKNS_15dbgprint_vectorINS_3genEEEPKNS_7contextE @1734
    _ZN4giac13islesscomplexERKNS_3genES2_ @1735
    _ZN4giac13laplace_var_eE @1736 DATA
    _ZN4giac13limit_replaceE @1737 DATA
    _ZN4giac13make_symbolicERKNS_3genES2_ @1738
    _ZN4giac13makelinesplitERKNS_5poly8EPKNS_6tdeg_tERKNS_7polymodERSt6vectorItSaItEE @1739
    _ZN4giac13makelinesplitERKNS_7polymodEPKNS_6tdeg_tES2_RSt6vectorItSaItEE @1740
    _ZN4giac13makemodquotedERKNS_3genES2_ @1741
    _ZN4giac13matrice_eraseERKNS_15dbgprint_vectorINS_3genEEEiiiiPKNS_7contextE @1742
    _ZN4giac13matrix2mathmlERKNS_15dbgprint_vectorINS_3genEEEPKNS_7contextE @1743
    _ZN4giac13matrix_doubleC1Ei @1744
    _ZN4giac13matrix_doubleC1EiSt6vectorIdSaIdEE @1745
    _ZN4giac13matrix_doubleC1Ev @1746
    _ZN4giac13matrix_doubleD1Ev @1747
    _ZN4giac13mergeifactorsERKNS_15dbgprint_vectorINS_3genEEES4_RS2_ @1748
    _ZN4giac13minus_sqrt2_2E @1749 DATA
    _ZN4giac13minus_sqrt3_2E @1750 DATA
    _ZN4giac13minus_sqrt3_3E @1751 DATA
    _ZN4giac13mksa_registerEPKcPKNS_9mksa_unitE @1752
    _ZN4giac13mws_translateERSiRSo @1753
    _ZN4giac13my_mpz_gcdextERA1_12__mpz_structS2_S2_RA1_KS0_S5_ @1754
    _ZN4giac13my_mpz_invertERA1_12__mpz_structRA1_KS0_S5_ @1755
    _ZN4giac13nearest_pointERKNS_15dbgprint_vectorINS_3genEEERKS1_dPKNS_7contextE @1756
    _ZN4giac13no_context_imERKNS_3genE @1757
    _ZN4giac13no_context_reERKNS_3genE @1758
    _ZN4giac13normalize_envEPNS_11environmentE @1759
    _ZN4giac13nr_pointers_tC1ERKS0_ @1760
    _ZN4giac13nr_pointers_tC1EjPNS_3genES2_S2_S1_ia @1761
    _ZN4giac13nr_pointers_tD1Ev @1762
    _ZN4giac13nr_pointers_taSERKS0_ @1763
    _ZN4giac13of_pointer_38E @1764 DATA
    _ZN4giac13operator_plusERKNS_15dbgprint_vectorINS_3genEEES4_PNS_11environmentE @1765
    _ZN4giac13operator_plusERKNS_3genES2_PKNS_7contextE @1766
    _ZN4giac13operator_plusERKNS_3genES2_jPKNS_7contextE @1767
    _ZN4giac13papier_lignesERNS_15dbgprint_vectorINS_3genEEEddddddddRKS2_PKNS_7contextE @1768
    _ZN4giac13pari_nffactorERKNS_3genES2_RKNS_15dbgprint_vectorIS0_EERS0_PKNS_7contextE @1769
    _ZN4giac13pari_polrootsERKNS_15dbgprint_vectorINS_3genEEERS2_lPKNS_7contextE @1770
    _ZN4giac13parse_programEPKwS1_RNS_15dbgprint_vectorINS_3genEEES5_S5_S5_S5_S5_S5_S5_S5_S5_RS3_PKNS_7contextE @1771
    _ZN4giac13plus_one_halfE @1772 DATA
    _ZN4giac13pointdivisionERKNS_3genES2_PKNS_7contextE @1773
    _ZN4giac13poly_truncateERNS_15dbgprint_vectorINS_6monomeEEEiPKNS_7contextE @1774
    _ZN4giac13polynome_lessERKNS_6tensorINS_3genEEES4_ @1775
    _ZN4giac13powexpand_tabE @1776 DATA
    _ZN4giac13powneg2invpowERKNS_3genEPKNS_7contextE @1777
    _ZN4giac13print_DOUBLE_EdPKNS_7contextE @1778
    _ZN4giac13print_DOUBLE_Edj @1779
    _ZN4giac13printasDigitsERKNS_3genEPKcPKNS_7contextE @1780
    _ZN4giac13printasRANDOMERKNS_3genEPKcPKNS_7contextE @1781
    _ZN4giac13printassuffixERKNS_3genEPKcPKNS_7contextE @1782
    _ZN4giac13proba_epsilonEPKNS_7contextE @1783
    _ZN4giac13program_leaveERKNS_3genEbPNS_12debug_structE @1784
    _ZN4giac13protect_solveERKNS_3genERKNS_14identificateurEiPKNS_7contextE @1785
    _ZN4giac13purgenoassumeERKNS_3genEPKNS_7contextE @1786
    _ZN4giac13put_attributsERKNS_3genERKNS_15dbgprint_vectorIS0_EEPKNS_7contextE @1787
    _ZN4giac13quote_programERKNS_3genEPKNS_7contextE @1788
    _ZN4giac13rand_intervalERKNS_15dbgprint_vectorINS_3genEEEbPKNS_7contextE @1789
    _ZN4giac13randchisquareEiPKNS_7contextE @1790
    _ZN4giac13real_intervalC1ERA1_K13__mpfi_struct @1791
    _ZN4giac13real_intervalC1ERKNS_11real_objectE @1792
    _ZN4giac13real_intervalC1ERKS0_ @1793
    _ZN4giac13real_intervalC1Ev @1794
    _ZN4giac13real_intervalC2ERA1_K13__mpfi_struct @1795
    _ZN4giac13real_intervalD0Ev @1796
    _ZN4giac13real_intervalD1Ev @1797
    _ZN4giac13real_intervalaSERKNS_11real_objectE @1798
    _ZN4giac13real_intervalaSERKS0_ @1799
    _ZN4giac13reduce_divremERKNS_6tensorINS_3genEEES4_RKNS_15dbgprint_vectorIS1_EEiRS2_S9_ @1800
    _ZN4giac13remove_at_pntERKNS_3genE @1801
    _ZN4giac13rewrite_hyperERKNS_3genEPKNS_7contextE @1802
    _ZN4giac13scalarproductERKNS_15dbgprint_vectorINS_3genEEES4_PKNS_7contextE @1803
    _ZN4giac13series__SPOL1ERKNS_3genERKNS_14identificateurES2_iiPKNS_7contextE @1804
    _ZN4giac13series__SPOL1ERKNS_3genERKNS_14identificateurES2_iiRNS_15dbgprint_vectorINS_6monomeEEEPKNS_7contextE @1805
    _ZN4giac13sincostan_tabE @1806 DATA
    _ZN4giac13snedecor_icdfERKNS_3genES2_S2_PKNS_7contextE @1807
    _ZN4giac13sort_vectpolyEN9__gnu_cxx17__normal_iteratorIPNS_6tensorINS_3genEEESt6vectorIS4_SaIS4_EEEES9_ @1808
    _ZN4giac13spread2mathmlERKNS_15dbgprint_vectorINS_3genEEEiPKNS_7contextE @1809
    _ZN4giac13sprintfdoubleEPcPKcd @1810
    _ZN4giac13squarefree_fpERKNS_6tensorINS_3genEEEjj @1811
    _ZN4giac13string2mathmlERKSs @1812
    _ZN4giac13strongconnectERKSt6vectorIS0_IjSaIjEESaIS2_EERS0_INS_6vertexESaIS7_EERiRS2_RS0_IbSaIbEERS4_j @1813
    _ZN4giac13symb2poly_numERKNS_3genEPKNS_7contextE @1814
    _ZN4giac13symb_RPN_CASEERKNS_3genE @1815
    _ZN4giac13symb_findhelpERKNS_3genE @1816
    _ZN4giac13symb_intervalERKNS_3genES2_ @1817
    _ZN4giac13symb_linsolveERKNS_3genES2_ @1818
    _ZN4giac13symb_partfracERKNS_3genE @1819
    _ZN4giac13symb_pnt_nameERKNS_3genES2_S2_PKNS_7contextE @1820
    _ZN4giac13symb_rpn_progERKNS_3genE @1821
    _ZN4giac13tdeg_t_sort_tC1Ei @1822
    _ZN4giac13theta__IDNT_eE @1823 DATA
    _ZN4giac13transpositionEiii @1824
    _ZN4giac13user_functionC1ERKS0_ @1825
    _ZN4giac13user_functionC1ERKSsi @1826
    _ZN4giac13user_functionD1Ev @1827
    _ZN4giac13user_functionaSERKS0_ @1828
    _ZN4giac13user_operatorERKNS_3genEPKNS_7contextE @1829
    _ZN4giac13vecteur2indexERKNS_15dbgprint_vectorINS_3genEEERSt6vectorIsSaIsEE @1830
    _ZN4giac13window_switchERKNS_3genEPKNS_7contextE @1831
    _ZN4giac13zsmallmultmodEiRNS_8zpolymodEi @1832
    _ZN4giac14CAN_USE_LAPACKE @1833 DATA
    _ZN4giac14D_at_factorialE @1834 DATA
    _ZN4giac14_Angstrom_unitE @1835 DATA
    _ZN4giac14_IDNT_infinityEv @1836
    _ZN4giac14_PERCENTCHANGEERKNS_3genEPKNS_7contextE @1837
    _ZN4giac14__Rankine_unitE @1838 DATA
    _ZN4giac14_baisse_crayonERKNS_3genEPKNS_7contextE @1839
    _ZN4giac14_binomial_icdfERKNS_3genEPKNS_7contextE @1840
    _ZN4giac14_chisquare_cdfERKNS_3genEPKNS_7contextE @1841
    _ZN4giac14_constant_zeroERKNS_3genEPKNS_7contextE @1842
    _ZN4giac14_crationalrootERKNS_3genEPKNS_7contextE @1843
    _ZN4giac14_cst_RinfinityE @1844 DATA
    _ZN4giac14_cst_epsilon0qE @1845 DATA
    _ZN4giac14_cst_epsilonoxE @1846 DATA
    _ZN4giac14_cst_epsilonsiE @1847 DATA
    _ZN4giac14_cst_qepsilon0E @1848 DATA
    _ZN4giac14_disque_centreERKNS_3genEPKNS_7contextE @1849
    _ZN4giac14_distanceatrawERKNS_3genEPKNS_7contextE @1850
    _ZN4giac14_est_paralleleERKNS_3genEPKNS_7contextE @1851
    _ZN4giac14_est_rectangleERKNS_3genEPKNS_7contextE @1852
    _ZN4giac14_exbissectriceERKNS_3genEPKNS_7contextE @1853
    _ZN4giac14_function_diffERKNS_3genEPKNS_7contextE @1854
    _ZN4giac14_geometric_cdfERKNS_3genEPKNS_7contextE @1855
    _ZN4giac14_implicit_diffERKNS_3genEPKNS_7contextE @1856
    _ZN4giac14_is_polynomialERKNS_3genEPKNS_7contextE @1857
    _ZN4giac14_isobarycentreERKNS_3genEPKNS_7contextE @1858
    _ZN4giac14_jacobi_symbolERKNS_3genEPKNS_7contextE @1859
    _ZN4giac14_montre_tortueERKNS_3genEPKNS_7contextE @1860
    _ZN4giac14_point_polaireERKNS_3genEPKNS_7contextE @1861
    _ZN4giac14_pointdivisionERKNS_3genEPKNS_7contextE @1862
    _ZN4giac14_polar_complexERKNS_3genEPKNS_7contextE @1863
    _ZN4giac14_proba_epsilonERKNS_3genEPKNS_7contextE @1864
    _ZN4giac14_randchisquareERKNS_3genEPKNS_7contextE @1865
    _ZN4giac14_randgeometricERKNS_3genEPKNS_7contextE @1866
    _ZN4giac14_restart_modesERKNS_3genEPKNS_7contextE @1867
    _ZN4giac14_show_languageERKNS_3genEPKNS_7contextE @1868
    _ZN4giac14_snedecor_icdfERKNS_3genEPKNS_7contextE @1869
    _ZN4giac14_spread2mathmlERKNS_3genEPKNS_7contextE @1870
    _ZN4giac14_tourne_droiteERKNS_3genEPKNS_7contextE @1871
    _ZN4giac14_tourne_gaucheERKNS_3genEPKNS_7contextE @1872
    _ZN4giac14_turtle_stack_Ev @1873
    _ZN4giac14accurate_evalfERKNS_15dbgprint_vectorINS_3genEEEi @1874
    _ZN4giac14accurate_evalfERKNS_3genEi @1875
    _ZN4giac14alias_at_acoshE @1876 DATA
    _ZN4giac14alias_at_asinhE @1877 DATA
    _ZN4giac14alias_at_atanhE @1878 DATA
    _ZN4giac14alias_at_breakE @1879 DATA
    _ZN4giac14alias_at_equalE @1880 DATA
    _ZN4giac14alias_at_interE @1881 DATA
    _ZN4giac14alias_at_localE @1882 DATA
    _ZN4giac14alias_at_minusE @1883 DATA
    _ZN4giac14alias_at_pointE @1884 DATA
    _ZN4giac14alias_at_unionE @1885 DATA
    _ZN4giac14analytic_applyEPKNS_18unary_function_ptrERKNS_15dbgprint_vectorINS_3genEEEPKNS_7contextE @1886
    _ZN4giac14analytic_applyERKNS_3genES2_RKNS_15dbgprint_vectorIS0_EEPKNS_7contextE @1887
    _ZN4giac14apply_to_equalERKNS_3genEPFS0_S2_PKNS_7contextEES5_ @1888
    _ZN4giac14apply_to_equalERKNS_3genERKPFS0_S2_E @1889
    _ZN4giac14aspen_linsolveERKNS_15dbgprint_vectorINS_3genEEEPKNS_7contextE @1890
    _ZN4giac14assume_t_in_abERNS_3genERKS0_S3_bbPKNS_7contextE @1891
    _ZN4giac14assumesymbolicERKNS_3genES0_PKNS_7contextE @1892
    _ZN4giac14at_approx_modeE @1893 DATA
    _ZN4giac14at_axe_radicalE @1894 DATA
    _ZN4giac14at_bissectriceE @1895 DATA
    _ZN4giac14at_cauchy_icdfE @1896 DATA
    _ZN4giac14at_circonscritE @1897 DATA
    _ZN4giac14at_contourplotE @1898 DATA
    _ZN4giac14at_coordonneesE @1899 DATA
    _ZN4giac14at_demi_droiteE @1900 DATA
    _ZN4giac14at_est_elementE @1901 DATA
    _ZN4giac14at_est_isoceleE @1902 DATA
    _ZN4giac14at_est_losangeE @1903 DATA
    _ZN4giac14at_exponentialE @1904 DATA
    _ZN4giac14at_gammad_icdfE @1905 DATA
    _ZN4giac14at_gramschmidtE @1906 DATA
    _ZN4giac14at_graph3d2texE @1907 DATA
    _ZN4giac14at_hypersphereE @1908 DATA
    _ZN4giac14at_interactiveE @1909 DATA
    _ZN4giac14at_isopolygoneE @1910 DATA
    _ZN4giac14at_kolmogorovdE @1911 DATA
    _ZN4giac14at_kolmogorovtE @1912 DATA
    _ZN4giac14at_maple2mupadE @1913 DATA
    _ZN4giac14at_multcrementE @1914 DATA
    _ZN4giac14at_multinomialE @1915 DATA
    _ZN4giac14at_multistringE @1916 DATA
    _ZN4giac14at_mupad2mapleE @1917 DATA
    _ZN4giac14at_negbinomialE @1918 DATA
    _ZN4giac14at_normal_icdfE @1919 DATA
    _ZN4giac14at_perimeteratE @1920 DATA
    _ZN4giac14at_plotcontourE @1921 DATA
    _ZN4giac14at_poisson_cdfE @1922 DATA
    _ZN4giac14at_randfisherdE @1923 DATA
    _ZN4giac14at_randnormaldE @1924 DATA
    _ZN4giac14at_randstudentE @1925 DATA
    _ZN4giac14at_rm_all_varsE @1926 DATA
    _ZN4giac14at_spreadsheetE @1927 DATA
    _ZN4giac14at_student_cdfE @1928 DATA
    _ZN4giac14at_switch_axesE @1929 DATA
    _ZN4giac14at_tan2cossin2E @1930 DATA
    _ZN4giac14at_tan2sincos2E @1931 DATA
    _ZN4giac14at_translationE @1932 DATA
    _ZN4giac14at_uniform_cdfE @1933 DATA
    _ZN4giac14at_widget_sizeE @1934 DATA
    _ZN4giac14center_historyE @1935 DATA
    _ZN4giac14change_subtypeERKNS_3genEi @1936
    _ZN4giac14checkanglemodeEPKNS_7contextE @1937
    _ZN4giac14chisquare_icdfERKNS_3genES2_PKNS_7contextE @1938
    _ZN4giac14ck_is_positiveERKNS_3genEPKNS_7contextE @1939
    _ZN4giac14ck_parameter_tEPKNS_7contextE @1940
    _ZN4giac14ck_parameter_uEPKNS_7contextE @1941
    _ZN4giac14ck_parameter_vEPKNS_7contextE @1942
    _ZN4giac14ck_parameter_xEPKNS_7contextE @1943
    _ZN4giac14ck_parameter_yEPKNS_7contextE @1944
    _ZN4giac14ck_parameter_zEPKNS_7contextE @1945
    _ZN4giac14cocoa_in_idealERKNS_8vectpolyES2_RKNS_3genE @1946
    _ZN4giac14compare_heap_tC1Es @1947
    _ZN4giac14compare_heap_tclERKNS_6heap_tES3_ @1948
    _ZN4giac14convert_doubleIjEEbRKNS_6tensorINS_3genEEERKSt6vectorIsSaIsEERS6_INS_10T_unsignedIdT_EESaISD_EE @1949
    _ZN4giac14convert_doubleIyEEbRKNS_6tensorINS_3genEEERKSt6vectorIsSaIsEERS6_INS_10T_unsignedIdT_EESaISD_EE @1950
    _ZN4giac14cst_kBoltzmannE @1951 DATA
    _ZN4giac14decimal_digitsEPKNS_7contextE @1952
    _ZN4giac14decimal_digitsEiPKNS_7contextE @1953
    _ZN4giac14decompose_plusERKNS_15dbgprint_vectorINS_3genEEERKS1_RS2_RS1_PKNS_7contextE @1954
    _ZN4giac14decompose_prodERKNS_15dbgprint_vectorINS_3genEEERKS1_RS2_RS1_PKNS_7contextE @1955
    _ZN4giac14deletesymbolicEPNS_12ref_symbolicE @1956
    _ZN4giac14diagonal_applyERKNS_3genES2_RKNS_15dbgprint_vectorIS0_EEPKNS_7contextE @1957
    _ZN4giac14divisionby0errERKNS_3genEPKNS_7contextE @1958
    _ZN4giac14dotvecteur_intERKSt6vectorIiSaIiEES4_ @1959
    _ZN4giac14double2vecteurEPKdi @1960
    _ZN4giac14est_cocycliqueERKNS_3genES2_S2_S2_PKNS_7contextE @1961
    _ZN4giac14est_coplanaireERKNS_3genES2_S2_S2_PKNS_7contextE @1962
    _ZN4giac14est_harmoniqueERKNS_3genES2_S2_S2_PKNS_7contextE @1963
    _ZN4giac14est_orthogonalERKNS_3genES2_S2_S2_PKNS_7contextE @1964
    _ZN4giac14evalf2bcd_nockERKNS_3genEiPKNS_7contextE @1965
    _ZN4giac14exp2sincos_tabE @1966 DATA
    _ZN4giac14factorunivsqffERKNS_6tensorINS_3genEEEPNS_11environmentERNS_8vectpolyERiii @1967
    _ZN4giac14fastcurveprintE @1968 DATA
    _ZN4giac14find_all_indexERKSsRSt8multimapISsSsSt4lessISsESaISt4pairIS0_SsEEES9_ @1969
    _ZN4giac14find_good_evalERKNS_6tensorINS_3genEEERS2_RNS_15dbgprint_vectorIS1_EE @1970
    _ZN4giac14find_good_evalERKNS_6tensorINS_3genEEES4_RS2_S5_RNS_15dbgprint_vectorIS1_EEbRKS1_ @1971
    _ZN4giac14find_in_folderERNS_15dbgprint_vectorINS_3genEEERKS1_ @1972
    _ZN4giac14findfirstpointERKNS_15dbgprint_vectorINS_3genEEE @1973
    _ZN4giac14float2rationalEddPKNS_7contextE @1974
    _ZN4giac14fonction_bidonEv @1975
    _ZN4giac14fromto_restoreERjRPNS_3genES3_S3_RS1_RNS_15dbgprint_vectorIS1_EERaRSt6vectorINS_13nr_pointers_tESaISA_EE @1976
    _ZN4giac14genmaxordererrEPKNS_7contextE @1977
    _ZN4giac14gentoomanyargsERKSsPKNS_7contextE @1978
    _ZN4giac14geometric_icdfERKNS_3genES2_PKNS_7contextE @1979
    _ZN4giac14heap_reducemodERKNS_7polymodERKNS_11vectpolymodERKSt6vectorIjSaIjEEjRS3_RS0_i @1980
    _ZN4giac14heap_t_compareC1ERKSt6vectorINS_6heap_tESaIS2_EEs @1981
    _ZN4giac14heap_t_compareclEjj @1982
    _ZN4giac14home_directoryEv @1983
    _ZN4giac14html_help_initEPKcibb @1984
    _ZN4giac14hypinv2exp_tabE @1985 DATA
    _ZN4giac14identificateur24MakeCopyOfNameIfNotLocalEv @1986
    _ZN4giac14identificateur4evalEiRKNS_3genEPKNS_7contextE @1987
    _ZN4giac14identificateur4pushEiRKNS_3genE @1988
    _ZN4giac14identificateur7in_evalEiRKNS_3genERS1_PKNS_7contextEb @1989
    _ZN4giac14identificateur8unassignEv @1990
    _ZN4giac14identificateurC1EPKc @1991
    _ZN4giac14identificateurC1EPKcRKNS_3genE @1992
    _ZN4giac14identificateurC1ERKS0_ @1993
    _ZN4giac14identificateurC1ERKSs @1994
    _ZN4giac14identificateurC1ERKSsRKNS_3genE @1995
    _ZN4giac14identificateurC1Ev @1996
    _ZN4giac14identificateurC2EPKc @1997
    _ZN4giac14identificateurC2EPKcRKNS_3genE @1998
    _ZN4giac14identificateurC2ERKS0_ @1999
    _ZN4giac14identificateurC2ERKSs @2000
    _ZN4giac14identificateurC2ERKSsRKNS_3genE @2001
    _ZN4giac14identificateurC2Ev @2002
    _ZN4giac14identificateurD1Ev @2003
    _ZN4giac14identificateurD2Ev @2004
    _ZN4giac14identificateuraSERKS0_ @2005
    _ZN4giac14identificateureqERKNS_3genE @2006
    _ZN4giac14identificateureqERKS0_ @2007
    _ZN4giac14indexed_stringC1ERKS0_ @2008
    _ZN4giac14indexed_stringC1EiRKSs @2009
    _ZN4giac14indexed_stringD1Ev @2010
    _ZN4giac14indexed_stringaSERKS0_ @2011
    _ZN4giac14inequality_tabE @2012 DATA
    _ZN4giac14inferieur_egalERKNS_3genES2_PKNS_7contextE @2013
    _ZN4giac14int_linsolve_lERKSt6vectorIS0_IiSaIiEESaIS2_EEiiRKS2_RS2_i @2014
    _ZN4giac14int_linsolve_uERKSt6vectorIS0_IiSaIiEESaIS2_EEiiRKS2_RS0_IxSaIxEEi @2015
    _ZN4giac14integer_formatEPKNS_7contextE @2016
    _ZN4giac14integer_formatEiPKNS_7contextE @2017
    _ZN4giac14interhyperplanERKNS_3genES2_PKNS_7contextE @2018
    _ZN4giac14intgab_ratfracERKNS_3genES2_RS0_PKNS_7contextE @2019
    _ZN4giac14invd_blocksizeE @2020 DATA
    _ZN4giac14inverse_tab_opE @2021 DATA
    _ZN4giac14invexptoexpnegERKNS_3genEPKNS_7contextE @2022
    _ZN4giac14is_array_indexERKNS_3genES2_PKNS_7contextE @2023
    _ZN4giac14is_meromorphicERKNS_3genES2_RS0_S3_S3_PKNS_7contextE @2024
    _ZN4giac14is_mod_matriceERKNS_15dbgprint_vectorINS_3genEEERSt6vectorIS5_IiSaIiEESaIS7_EERi @2025
    _ZN4giac14is_mod_vecteurERKNS_15dbgprint_vectorINS_3genEEERSt6vectorIiSaIiEERi @2026
    _ZN4giac14lapack2matriceEPdjjRNS_15dbgprint_vectorINS_3genEEE @2027
    _ZN4giac14makelinesplitsERKNS_7polymodEPKNS_6tdeg_tES2_RSt6vectorItSaItEE @2028
    _ZN4giac14makelinesplituERKNS_7polymodEPKNS_6tdeg_tES2_RSt6vectorIjSaIjEE @2029
    _ZN4giac14makenewvecteurERKNS_3genE @2030
    _ZN4giac14makenewvecteurERKNS_3genES2_ @2031
    _ZN4giac14makenewvecteurERKNS_3genES2_S2_ @2032
    _ZN4giac14makenewvecteurERKNS_3genES2_S2_S2_ @2033
    _ZN4giac14makenewvecteurERKNS_3genES2_S2_S2_S2_ @2034
    _ZN4giac14makenewvecteurERKNS_3genES2_S2_S2_S2_S2_ @2035
    _ZN4giac14makenewvecteurERKNS_3genES2_S2_S2_S2_S2_S2_ @2036
    _ZN4giac14makenewvecteurERKNS_3genES2_S2_S2_S2_S2_S2_S2_ @2037
    _ZN4giac14makenewvecteurERKNS_3genES2_S2_S2_S2_S2_S2_S2_S2_ @2038
    _ZN4giac14matrice2lapackERKNS_15dbgprint_vectorINS_3genEEEPdPKNS_7contextE @2039
    _ZN4giac14matrice_insertERKNS_15dbgprint_vectorINS_3genEEEiiiiRKS1_PKNS_7contextE @2040
    _ZN4giac14mdividebypivotERNS_15dbgprint_vectorINS_3genEEEi @2041
    _ZN4giac14mignotte_boundERKNS_15dbgprint_vectorINS_3genEEE @2042
    _ZN4giac14mignotte_boundERKNS_6tensorINS_3genEEE @2043
    _ZN4giac14minus_one_halfE @2044 DATA
    _ZN4giac14multdoublepolyEdRSt6vectorIdSaIdEEd @2045
    _ZN4giac14multmatvecteurERKNS_13matrix_doubleERKSt6vectorIdSaIdEERS5_ @2046
    _ZN4giac14multmatvecteurERKNS_15dbgprint_vectorINS_3genEEES4_ @2047
    _ZN4giac14multmatvecteurERKNS_15dbgprint_vectorINS_3genEEES4_RS2_ @2048
    _ZN4giac14multmatvecteurERKNS_15dbgprint_vectorINS_3genEEES4_RS2_i @2049
    _ZN4giac14multvecteurmatERKNS_15dbgprint_vectorINS_3genEEES4_ @2050
    _ZN4giac14multvecteurmatERKNS_15dbgprint_vectorINS_3genEEES4_RS2_ @2051
    _ZN4giac14newton_improveERKNS_15dbgprint_vectorINS_3genEEES4_bRS2_S5_iiiiRKS1_S7_ @2052
    _ZN4giac14normalize_sqrtERKNS_3genEPKNS_7contextE @2053
    _ZN4giac14operator_equalERKNS_3genES2_PKNS_7contextE @2054
    _ZN4giac14operator_minusERKNS_15dbgprint_vectorINS_3genEEES4_PNS_11environmentE @2055
    _ZN4giac14operator_minusERKNS_3genES2_PKNS_7contextE @2056
    _ZN4giac14operator_minusERKNS_3genES2_jPKNS_7contextE @2057
    _ZN4giac14operator_timesERKNS_15dbgprint_vectorINS_3genEEERKS1_PNS_11environmentE @2058
    _ZN4giac14operator_timesERKNS_15dbgprint_vectorINS_3genEEES4_PNS_11environmentE @2059
    _ZN4giac14operator_timesERKNS_15dbgprint_vectorINS_3genEEES4_PNS_11environmentERS2_ @2060
    _ZN4giac14operator_timesERKNS_3genERKNS_15dbgprint_vectorIS0_EEPNS_11environmentE @2061
    _ZN4giac14operator_timesERKNS_3genES2_PKNS_7contextE @2062
    _ZN4giac14ordered_factorERKNS_3genERNS_15dbgprint_vectorIS0_EEbPKNS_7contextE @2063
    _ZN4giac14padic_linsolveERKNS_15dbgprint_vectorINS_3genEEES4_RS2_RS1_S6_S6_ji @2064
    _ZN4giac14paramplotparamERKNS_3genEbPKNS_7contextE @2065
    _ZN4giac14piecewise2whenERKNS_3genEPKNS_7contextE @2066
    _ZN4giac14plotpreprocessERKNS_3genEPKNS_7contextE @2067
    _ZN4giac14plus_idnt_symbERKNS_3genE @2068
    _ZN4giac14poly12polynomeERKNS_15dbgprint_vectorINS_3genEEE @2069
    _ZN4giac14poly12polynomeERKNS_15dbgprint_vectorINS_3genEEEiRNS_6tensorIS1_EEi @2070
    _ZN4giac14poly12polynomeERKNS_15dbgprint_vectorINS_3genEEEii @2071
    _ZN4giac14polynome2poly1ERKNS_3genEi @2072
    _ZN4giac14polynome2poly1ERKNS_6tensorINS_3genEEE @2073
    _ZN4giac14polynome2poly1ERKNS_6tensorINS_3genEEEi @2074
    _ZN4giac14polynome2poly1ERKNS_6tensorINS_3genEEEiRNS_15dbgprint_vectorIS1_EE @2075
    _ZN4giac14pownegtoinvpowERKNS_3genEPKNS_7contextE @2076
    _ZN4giac14powtopowexpandERKNS_3genEPKNS_7contextE @2077
    _ZN4giac14print_the_typeEiPKNS_7contextE @2078
    _ZN4giac14read_attributsERKNS_15dbgprint_vectorINS_3genEEERS2_PKNS_7contextE @2079
    _ZN4giac14reducesmallmodERNS_7polymodERKNS_11vectpolymodERKSt6vectorIjSaIjEEjiS1_b @2080
    _ZN4giac14release_memoryIiEEvRSt6vectorIT_SaIS2_EE @2081
    _ZN4giac14removecommentsEPKcPc @2082
    _ZN4giac14reverse_rsolveERKNS_15dbgprint_vectorINS_3genEEEb @2083
    _ZN4giac14scalar_productERKNS_3genES2_PKNS_7contextE @2084
    _ZN4giac14seqapp_computeERKNS_15dbgprint_vectorINS_3genEEES4_S4_S4_iiPKNS_7contextE @2085
    _ZN4giac14seqapp_computeERKNS_3genERKNS_15dbgprint_vectorIS0_EES2_S2_iiPKNS_7contextE @2086
    _ZN4giac14seqapp_prepareERKNS_15dbgprint_vectorINS_3genEEERS2_S5_PKNS_7contextE @2087
    _ZN4giac14seqapp_prepareERKNS_3genERS0_RNS_15dbgprint_vectorIS0_EEPKNS_7contextEi @2088
    _ZN4giac14simplex_reduceERKNS_15dbgprint_vectorINS_3genEEERS2_RS1_bbPKNS_7contextE @2089
    _ZN4giac14smaller_factorERNS_15dbgprint_vectorINS_3genEEE @2090
    _ZN4giac14solve_fcns_tabE @2091 DATA
    _ZN4giac14sparse_elementC1Eij @2092
    _ZN4giac14sparse_elementC1Ev @2093
    _ZN4giac14spread_convertERKNS_3genEiiPKNS_7contextE @2094
    _ZN4giac14spread_formulaEPKNS_7contextE @2095
    _ZN4giac14spread_formulaEiPKNS_7contextE @2096
    _ZN4giac14square_modulusERKNS_3genEPKNS_7contextE @2097
    _ZN4giac14step_infolevelE @2098 DATA
    _ZN4giac14strassen_limitE @2099 DATA
    _ZN4giac14superieur_egalERKNS_3genES2_PKNS_7contextE @2100
    _ZN4giac14symb_RPN_LOCALERKNS_3genES2_ @2101
    _ZN4giac14symb_RPN_UNTILERKNS_3genES2_ @2102
    _ZN4giac14symb_RPN_WHILEERKNS_3genES2_ @2103
    _ZN4giac14symb_intersectERKNS_3genE @2104
    _ZN4giac14symb_resultantERKNS_3genE @2105
    _ZN4giac14symb_size_lessERKNS_3genES2_ @2106
    _ZN4giac14symb_try_catchERKNS_3genE @2107
    _ZN4giac14tan2sincos_tabE @2108 DATA
    _ZN4giac14tdeg_t_greaterERKNS_6tdeg_tES2_s @2109
    _ZN4giac14thread_modrrefEPv @2110
    _ZN4giac14thrownulllinesERKNS_15dbgprint_vectorINS_3genEEE @2111
    _ZN4giac14vecteur2turtleERKNS_15dbgprint_vectorINS_3genEEE @2112
    _ZN4giac14vector2vecteurERKNS_15dbgprint_vectorINS_3genEEE @2113
    _ZN4giac14when2piecewiseERKNS_3genEPKNS_7contextE @2114
    _ZN4giac14zmakelinesplitERKNS_8zpolymodEPKNS_6tdeg_tERKSt6vectorIS3_SaIS3_EERS6_ItSaItEE @2115
    _ZN4giac15D_at_order_sizeE @2116 DATA
    _ZN4giac15HELP_MAXLENSIZEE @2117 DATA
    _ZN4giac15HeavisidetosignERKNS_3genEPKNS_7contextE @2118
    _ZN4giac15LIST_SIZE_LIMITE @2119 DATA
    _ZN4giac15__Angstrom_unitE @2120 DATA
    _ZN4giac15__current_sheetE @2121 DATA
    _ZN4giac15__window_switchE @2122 DATA
    _ZN4giac15_adjoint_matrixERKNS_3genEPKNS_7contextE @2123
    _ZN4giac15_as_function_ofERKNS_3genEPKNS_7contextE @2124
    _ZN4giac15_canonical_formERKNS_3genEPKNS_7contextE @2125
    _ZN4giac15_chisquare_icdfERKNS_3genEPKNS_7contextE @2126
    _ZN4giac15_cst_kBoltzmannE @2127 DATA
    _ZN4giac15_dessine_tortueERKNS_3genEPKNS_7contextE @2128
    _ZN4giac15_div_harmoniqueERKNS_3genEPKNS_7contextE @2129
    _ZN4giac15_est_cocycliqueERKNS_3genEPKNS_7contextE @2130
    _ZN4giac15_est_coplanaireERKNS_3genEPKNS_7contextE @2131
    _ZN4giac15_est_harmoniqueERKNS_3genEPKNS_7contextE @2132
    _ZN4giac15_est_orthogonalERKNS_3genEPKNS_7contextE @2133
    _ZN4giac15_float2rationalERKNS_3genEPKNS_7contextE @2134
    _ZN4giac15_frobenius_normERKNS_3genEPKNS_7contextE @2135
    _ZN4giac15_geometric_icdfERKNS_3genEPKNS_7contextE @2136
    _ZN4giac15_implicitplot3dERKNS_3genEPKNS_7contextE @2137
    _ZN4giac15_inferieur_egalERKNS_3genEPKNS_7contextE @2138
    _ZN4giac15_integer_formatERKNS_3genEPKNS_7contextE @2139
    _ZN4giac15_invd_blocksizeERKNS_3genEPKNS_7contextE @2140
    _ZN4giac15_is_pseudoprimeERKNS_3genEPKNS_7contextE @2141
    _ZN4giac15_maple_ifactorsERKNS_3genEPKNS_7contextE @2142
    _ZN4giac15_mult_conjugateERKNS_3genEPKNS_7contextE @2143
    _ZN4giac15_padic_linsolveERKNS_3genEPKNS_7contextE @2144
    _ZN4giac15_perimeteratrawERKNS_3genEPKNS_7contextE @2145
    _ZN4giac15_plotinequationERKNS_3genEPKNS_7contextE @2146
    _ZN4giac15_reverse_rsolveERKNS_3genEPKNS_7contextE @2147
    _ZN4giac15_scalar_productERKNS_3genEPKNS_7contextE @2148
    _ZN4giac15_simplex_reduceERKNS_3genEPKNS_7contextE @2149
    _ZN4giac15_step_infolevelERKNS_3genEPKNS_7contextE @2150
    _ZN4giac15_strassen_limitERKNS_3genEPKNS_7contextE @2151
    _ZN4giac15_superieur_egalERKNS_3genEPKNS_7contextE @2152
    _ZN4giac15_triangle_paperERKNS_3genEPKNS_7contextE @2153
    _ZN4giac15_triangle_pleinERKNS_3genEPKNS_7contextE @2154
    _ZN4giac15add_multvecteurERNS_15dbgprint_vectorINS_3genEEERKS1_RKS2_ @2155
    _ZN4giac15alias_at_DialogE @2156 DATA
    _ZN4giac15alias_at_dollarE @2157 DATA
    _ZN4giac15alias_at_equal2E @2158 DATA
    _ZN4giac15alias_at_plot3dE @2159 DATA
    _ZN4giac15alias_at_returnE @2160 DATA
    _ZN4giac15archive_restoreEP6_iobufPKNS_7contextE @2161
    _ZN4giac15archive_restoreEPvPFjS0_jjS0_EPKNS_7contextE @2162
    _ZN4giac15archive_sessionEbPKNS_7contextE @2163
    _ZN4giac15archive_sessionEbRKSsPKNS_7contextE @2164
    _ZN4giac15archive_sessionEbRSoPKNS_7contextE @2165
    _ZN4giac15at_Psi_minus_lnE @2166 DATA
    _ZN4giac15at_additionallyE @2167 DATA
    _ZN4giac15at_angle_radianE @2168 DATA
    _ZN4giac15at_binary_minusE @2169 DATA
    _ZN4giac15at_binomial_cdfE @2170 DATA
    _ZN4giac15at_complex_modeE @2171 DATA
    _ZN4giac15at_epsilon2zeroE @2172 DATA
    _ZN4giac15at_est_conjugueE @2173 DATA
    _ZN4giac15at_exponentialdE @2174 DATA
    _ZN4giac15at_hypersurfaceE @2175 DATA
    _ZN4giac15at_implicitplotE @2176 DATA
    _ZN4giac15at_inter_uniqueE @2177 DATA
    _ZN4giac15at_maple_subsopE @2178 DATA
    _ZN4giac15at_plotimplicitE @2179 DATA
    _ZN4giac15at_poisson_icdfE @2180 DATA
    _ZN4giac15at_quadrilatereE @2181 DATA
    _ZN4giac15at_randstudentdE @2182 DATA
    _ZN4giac15at_rmbreakpointE @2183 DATA
    _ZN4giac15at_save_historyE @2184 DATA
    _ZN4giac15at_sialorssinonE @2185 DATA
    _ZN4giac15at_snedecor_cdfE @2186 DATA
    _ZN4giac15at_student_icdfE @2187 DATA
    _ZN4giac15at_unarchive_tiE @2188 DATA
    _ZN4giac15at_uniform_icdfE @2189 DATA
    _ZN4giac15at_uniformd_cdfE @2190 DATA
    _ZN4giac15autoscaleminmaxERSt6vectorIdSaIdEERdS4_b @2191
    _ZN4giac15cas_entree_nameEv @2192
    _ZN4giac15cas_sortie_nameEv @2193
    _ZN4giac15check_file_pathERKSs @2194
    _ZN4giac15cleanup_contextEPKNS_7contextE @2195
    _ZN4giac15compare_heap_ttC1Es @2196
    _ZN4giac15compare_heap_ttclERKNS_7heap_ttES3_ @2197
    _ZN4giac15complex2vecteurERKNS_3genEPKNS_7contextE @2198
    _ZN4giac15conique_reduiteERKNS_3genES2_RKNS_15dbgprint_vectorIS0_EERS0_S7_RS4_S8_S7_S7_S8_S7_bPKNS_7contextE @2199
    _ZN4giac15cst_clightspeedE @2200 DATA
    _ZN4giac15cst_euler_gammaE @2201 DATA
    _ZN4giac15dbgprint_vectorINS0_INS_6monomeEEEEC1Ev @2202
    _ZN4giac15dbgprint_vectorINS0_INS_6monomeEEEED1Ev @2203
    _ZN4giac15dbgprint_vectorINS_3genEEC1ERKN9__gnu_cxx17__normal_iteratorIPKS1_St6vectorIS1_SaIS1_EEEESC_ @2204
    _ZN4giac15dbgprint_vectorINS_3genEEC1ERKS2_ @2205
    _ZN4giac15dbgprint_vectorINS_3genEEC1Ei @2206
    _ZN4giac15dbgprint_vectorINS_3genEEC1EiRKS1_ @2207
    _ZN4giac15dbgprint_vectorINS_3genEEC1Ev @2208
    _ZN4giac15dbgprint_vectorINS_3genEED1Ev @2209
    _ZN4giac15dbgprint_vectorINS_3genEEaSERKS2_ @2210
    _ZN4giac15dbgprint_vectorINS_6monomeEEC1ERKN9__gnu_cxx17__normal_iteratorIPKS1_St6vectorIS1_SaIS1_EEEESC_ @2211
    _ZN4giac15dbgprint_vectorINS_6monomeEEC1ERKS2_ @2212
    _ZN4giac15dbgprint_vectorINS_6monomeEEC1EiRKS1_ @2213
    _ZN4giac15dbgprint_vectorINS_6monomeEEC1Ev @2214
    _ZN4giac15dbgprint_vectorINS_6monomeEED1Ev @2215
    _ZN4giac15dbgprint_vectorINS_6monomeEEaSERKS2_ @2216
    _ZN4giac15debug_infolevelE @2217 DATA
    _ZN4giac15distrib_supportEiRNS_3genES1_b @2218
    _ZN4giac15do_hessenberg_pEPv @2219
    _ZN4giac15do_hessenberg_pERNS_13matrix_doubleERSt6vectorIdSaIdEEii @2220
    _ZN4giac15dotvecteur_int_EN9__gnu_cxx17__normal_iteratorIPKSt6vectorIiSaIiEES2_IS4_SaIS4_EEEERS5_RS2_IxSaIxEE @2221
    _ZN4giac15end_VECT_stringEibPKNS_7contextE @2222
    _ZN4giac15est_cospheriqueERKNS_3genES2_S2_S2_S2_PKNS_7contextE @2223
    _ZN4giac15est_equilateralERKNS_3genES2_S2_PKNS_7contextE @2224
    _ZN4giac15factorial2gammaERKNS_3genEPKNS_7contextE @2225
    _ZN4giac15find_doc_prefixEi @2226
    _ZN4giac15findfirstcercleERKNS_15dbgprint_vectorINS_3genEEE @2227
    _ZN4giac15firstcoefftruncERKNS_3genE @2228
    _ZN4giac15gamma2factorialERKNS_3genEPKNS_7contextE @2229
    _ZN4giac15gcdsmallmodpolyERKNS_15dbgprint_vectorINS_3genEEES4_iRS2_ @2230
    _ZN4giac15gcdsmallmodpolyERKNS_6tensorINS_3genEEES4_iRS2_S5_S5_b @2231
    _ZN4giac15gcdsmallmodpolyERKSt6vectorIiSaIiEES4_iRS2_ @2232
    _ZN4giac15gcdsmallmodpolyERKSt6vectorIiSaIiEES4_iRS2_PS2_S6_ @2233
    _ZN4giac15genstabilityerrEPKNS_7contextE @2234
    _ZN4giac15giac_eval_levelERKNS_3genEPKNS_7contextE @2235
    _ZN4giac15halftan_hyp2expERKNS_3genEPKNS_7contextE @2236
    _ZN4giac15has_denominatorERKNS_3genE @2237
    _ZN4giac15has_static_helpEPKciRS1_S2_S2_S2_ @2238
    _ZN4giac15hexa_print_INT_Ei @2239
    _ZN4giac15hexa_print_ZINTERA1_K12__mpz_struct @2240
    _ZN4giac15horner_intervalERKNS_15dbgprint_vectorINS_3genEEERKS1_ @2241
    _ZN4giac15horner_intervalERKNS_15dbgprint_vectorINS_3genEEERKS1_S6_ @2242
    _ZN4giac15in_mmult_doubleERKNS_13matrix_doubleES2_RS0_iiiiiibiii @2243
    _ZN4giac15incomplete_betaEdddb @2244
    _ZN4giac15inplace_divpolyERNS_6tensorINS_3genEEERKS1_ @2245
    _ZN4giac15int_linsolve_l4ERKSt6vectorIS0_IiSaIiEESaIS2_EEiiRKS2_S8_S8_S8_RS2_S9_S9_S9_i @2246
    _ZN4giac15int_linsolve_u4ERKSt6vectorIS0_IiSaIiEESaIS2_EEiiRKS2_S8_S8_S8_RS0_IxSaIxEESB_SB_SB_i @2247
    _ZN4giac15interplansphereERKNS_3genES2_PKNS_7contextE @2248
    _ZN4giac15is_assumed_realERKNS_3genEPKNS_7contextE @2249
    _ZN4giac15is_constant_wrtERKNS_3genES2_PKNS_7contextE @2250
    _ZN4giac15is_context_busyEPKNS_7contextE @2251
    _ZN4giac15is_distributionERKNS_3genE @2252
    _ZN4giac15is_divisible_byERKNS_3genEm @2253
    _ZN4giac15is_exactly_zeroERKNS_3genE @2254
    _ZN4giac15is_known_rootofERKNS_15dbgprint_vectorINS_3genEEERS1_PKNS_7contextE @2255
    _ZN4giac15is_sq_minus_oneERKNS_3genE @2256
    _ZN4giac15is_squarematrixERKNS_15dbgprint_vectorINS_3genEEE @2257
    _ZN4giac15is_squarematrixERKNS_3genE @2258
    _ZN4giac15last_evaled_argEPKNS_7contextE @2259
    _ZN4giac15lexer_functionsEv @2260
    _ZN4giac15lock_syms_mutexEv @2261
    _ZN4giac15makefreematriceERKNS_15dbgprint_vectorINS_3genEEE @2262
    _ZN4giac15mathml_preambleE @2263 DATA
    _ZN4giac15matrice_extractERKNS_15dbgprint_vectorINS_3genEEEiiii @2264
    _ZN4giac15minus_cos_pi_12E @2265 DATA
    _ZN4giac15minus_sin_pi_12E @2266 DATA
    _ZN4giac15minus_tan_pi_12E @2267 DATA
    _ZN4giac15modpoly2mpzpolyERKNS_15dbgprint_vectorINS_3genEEERPA1_12__mpz_struct @2268
    _ZN4giac15mpzpoly2modpolyEPA1_12__mpz_structRNS_15dbgprint_vectorINS_3genEEE @2269
    _ZN4giac15need_workaroundERKNS_3genE @2270
    _ZN4giac15new_ref_complexENS_3genES0_ @2271
    _ZN4giac15new_ref_vecteurERKNS_15dbgprint_vectorINS_3genEEE @2272
    _ZN4giac15no_context_conjERKNS_3genE @2273
    _ZN4giac15parameter2pointERKNS_15dbgprint_vectorINS_3genEEEPKNS_7contextE @2274
    _ZN4giac15parser_filenameEPKNS_7contextE @2275
    _ZN4giac15parser_filenameERKSsPKNS_7contextE @2276
    _ZN4giac15pascal_nth_lineEi @2277
    _ZN4giac15perpendiculaireERKNS_3genEbPKNS_7contextE @2278
    _ZN4giac15piecewisetowhenERKNS_3genEPKNS_7contextE @2279
    _ZN4giac15polynome12poly1ERKNS_6tensorINS_3genEEE @2280
    _ZN4giac15printasconstantERKNS_3genEPKcPKNS_7contextE @2281
    _ZN4giac15printinner_VECTERKNS_15dbgprint_vectorINS_3genEEEiPKNS_7contextE @2282
    _ZN4giac15proba2adjacenceERKNS_15dbgprint_vectorINS_3genEEERSt6vectorIS5_IjSaIjEESaIS7_EEbPKNS_7contextE @2283
    _ZN4giac15reduce1smallmodERNS_7polymodERKS0_S1_i @2284
    _ZN4giac15ref_real_objectC1ERKNS_11real_objectE @2285
    _ZN4giac15ref_real_objectC1Ev @2286
    _ZN4giac15ref_real_objectD1Ev @2287
    _ZN4giac15remove_filenameERKSs @2288
    _ZN4giac15remove_identityERNS_15dbgprint_vectorINS_3genEEE @2289
    _ZN4giac15remove_identityERNS_15dbgprint_vectorINS_3genEEEPKNS_7contextE @2290
    _ZN4giac15remove_identityERSt6vectorIS0_IiSaIiEESaIS2_EEi @2291
    _ZN4giac15remove_languageEi @2292
    _ZN4giac15rur_coordinatesERKNS_7polymodES2_RNS_15dbgprint_vectorINS_3genEEE @2293
    _ZN4giac15setstabilityerrEPKNS_7contextE @2294
    _ZN4giac15smallmultsubmodERKNS_7polymodEiS2_RS0_i @2295
    _ZN4giac15smallmultsubmodERKNS_7polymodEjiS2_RKNS_6tdeg_tERS0_i @2296
    _ZN4giac15solvepreprocessERKNS_3genEbPKNS_7contextE @2297
    _ZN4giac15sort_vectpoly_tC1Ev @2298
    _ZN4giac15sort_vectpoly_tclERKNS_6tensorINS_3genEEES5_ @2299
    _ZN4giac15string_infinityE @2300 DATA
    _ZN4giac15symb_check_typeERKNS_3genEPKNS_7contextE @2301
    _ZN4giac15tan2cossin2_tabE @2302 DATA
    _ZN4giac15tan2sincos2_tabE @2303 DATA
    _ZN4giac15texprintascrossERKNS_3genEPKcPKNS_7contextE @2304
    _ZN4giac15threads_allowedE @2305 DATA
    _ZN4giac15tiasc_translateERKSs @2306
    _ZN4giac15vector_aide_ptrEv @2307
    _ZN4giac15whentopiecewiseERKNS_3genEPKNS_7contextE @2308
    _ZN4giac16INT_KARAMUL_SIZEE @2309 DATA
    _ZN4giac16MODFACTOR_PRIMESE @2310 DATA
    _ZN4giac16TsimplifybyTlgcdINS_3genEEENS_6tensorIT_EERS4_S5_ @2311
    _ZN4giac16_HeavisidetosignERKNS_3genEPKNS_7contextE @2312
    _ZN4giac16_ampersand_timesERKNS_3genEPKNS_7contextE @2313
    _ZN4giac16_center2intervalERKNS_3genEPKNS_7contextE @2314
    _ZN4giac16_conique_reduiteERKNS_3genEPKNS_7contextE @2315
    _ZN4giac16_conj_harmoniqueERKNS_3genEPKNS_7contextE @2316
    _ZN4giac16_cst_clightspeedE @2317 DATA
    _ZN4giac16_debug_infolevelERKNS_3genEPKNS_7contextE @2318
    _ZN4giac16_est_cospheriqueERKNS_3genEPKNS_7contextE @2319
    _ZN4giac16_est_equilateralERKNS_3genEPKNS_7contextE @2320
    _ZN4giac16_exponential_cdfERKNS_3genEPKNS_7contextE @2321
    _ZN4giac16_extract_measureERKNS_3genEPKNS_7contextE @2322
    _ZN4giac16_halftan_hyp2expERKNS_3genEPKNS_7contextE @2323
    _ZN4giac16_interval2centerERKNS_3genEPKNS_7contextE @2324
    _ZN4giac16_legendre_symbolERKNS_3genEPKNS_7contextE @2325
    _ZN4giac16_negbinomial_cdfERKNS_3genEPKNS_7contextE @2326
    _ZN4giac16_parallelepipedeERKNS_3genEPKNS_7contextE @2327
    _ZN4giac16_parallelogrammeERKNS_3genEPKNS_7contextE @2328
    _ZN4giac16_pcar_hessenbergERKNS_3genEPKNS_7contextE @2329
    _ZN4giac16_perpendiculaireERKNS_3genEPKNS_7contextE @2330
    _ZN4giac16_polygone_ouvertERKNS_3genEPKNS_7contextE @2331
    _ZN4giac16_polygone_rempliERKNS_3genEPKNS_7contextE @2332
    _ZN4giac16_prog_eval_levelERKNS_3genEPKNS_7contextE @2333
    _ZN4giac16_randmultinomialERKNS_3genEPKNS_7contextE @2334
    _ZN4giac16_rectangle_pleinERKNS_3genEPKNS_7contextE @2335
    _ZN4giac16_remove_languageERKNS_3genEPKNS_7contextE @2336
    _ZN4giac16_threads_allowedERKNS_3genEPKNS_7contextE @2337
    _ZN4giac16add_autosimplifyERKNS_3genEPKNS_7contextE @2338
    _ZN4giac16addsamepower_genERN9__gnu_cxx17__normal_iteratorIPKNS_8monomialINS_3genEEESt6vectorIS4_SaIS4_EEEESB_RS9_ @2339
    _ZN4giac16alias_at_RPN_FORE @2340 DATA
    _ZN4giac16alias_at_displayE @2341 DATA
    _ZN4giac16alias_at_programE @2342 DATA
    _ZN4giac16alias_at_segmentE @2343 DATA
    _ZN4giac16alias_at_tilocalE @2344 DATA
    _ZN4giac16alternate_seriesERKNS_3genES2_iPKNS_7contextE @2345
    _ZN4giac16analytic_sommetsE @2346 DATA
    _ZN4giac16asinacosatan_tabE @2347 DATA
    _ZN4giac16at_binomial_icdfE @2348 DATA
    _ZN4giac16at_chisquare_cdfE @2349 DATA
    _ZN4giac16at_current_sheetE @2350 DATA
    _ZN4giac16at_distanceatrawE @2351 DATA
    _ZN4giac16at_est_paralleleE @2352 DATA
    _ZN4giac16at_est_rectangleE @2353 DATA
    _ZN4giac16at_exbissectriceE @2354 DATA
    _ZN4giac16at_function_diffE @2355 DATA
    _ZN4giac16at_geometric_cdfE @2356 DATA
    _ZN4giac16at_implicit_diffE @2357 DATA
    _ZN4giac16at_isobarycentreE @2358 DATA
    _ZN4giac16at_jacobi_symbolE @2359 DATA
    _ZN4giac16at_lnGamma_minusE @2360 DATA
    _ZN4giac16at_pointdivisionE @2361 DATA
    _ZN4giac16at_polar_complexE @2362 DATA
    _ZN4giac16at_proba_epsilonE @2363 DATA
    _ZN4giac16at_randchisquareE @2364 DATA
    _ZN4giac16at_randgeometricE @2365 DATA
    _ZN4giac16at_snedecor_icdfE @2366 DATA
    _ZN4giac16at_uniformd_icdfE @2367 DATA
    _ZN4giac16at_user_operatorE @2368 DATA
    _ZN4giac16at_window_switchE @2369 DATA
    _ZN4giac16bisection_solverERKNS_3genES2_S2_S2_RiPKNS_7contextE @2370
    _ZN4giac16bounded_functionEPKNS_7contextE @2371
    _ZN4giac16cas_setup_stringEPKNS_7contextE @2372
    _ZN4giac16check_not_assumeERKNS_3genERS0_bPKNS_7contextE @2373
    _ZN4giac16checkshortshiftsERKSt6vectorItSaItEE @2374
    _ZN4giac16ckmultmatvecteurERKNS_15dbgprint_vectorINS_3genEEES4_ @2375
    _ZN4giac16conique_ratparamERKNS_3genES2_PKNS_7contextE @2376
    _ZN4giac16convert_intervalERKNS_3genEiPKNS_7contextE @2377
    _ZN4giac16convolutionpowerERKNS_15dbgprint_vectorINS_3genEEEiRS2_PKNS_7contextE @2378
    _ZN4giac16cossinexp2rootofERKNS_3genEPKNS_7contextE @2379
    _ZN4giac16curveintercircleERKNS_3genES2_bPKNS_7contextE @2380
    _ZN4giac16default_helpfileE @2381 DATA
    _ZN4giac16diffeq_constanteEiPKNS_7contextE @2382
    _ZN4giac16doubleassume_andERKNS_15dbgprint_vectorINS_3genEEERKS1_ibPKNS_7contextE @2383
    _ZN4giac16error_token_nameEPKNS_7contextE @2384
    _ZN4giac16error_token_nameERKSsPKNS_7contextE @2385
    _ZN4giac16est_trianglerectERKNS_3genES2_S2_PKNS_7contextE @2386
    _ZN4giac16eval_before_diffERKNS_3genES2_PKNS_7contextE @2387
    _ZN4giac16evalfdouble2reimERKNS_3genERS0_S3_S3_PKNS_7contextE @2388
    _ZN4giac16factorialtogammaERKNS_3genEPKNS_7contextE @2389
    _ZN4giac16fast_is_even_oddERKNS_3genES2_PKNS_7contextE @2390
    _ZN4giac16find_lang_prefixEi @2391
    _ZN4giac16first_error_lineEPKNS_7contextE @2392
    _ZN4giac16first_error_lineEiPKNS_7contextE @2393
    _ZN4giac16francis_iterate1ERNS_13matrix_doubleEiiS1_dbdbRSt6vectorIdSaIdEE @2394
    _ZN4giac16francis_iterate1ERNS_21matrix_complex_doubleEiiS1_dbSt7complexIdEb @2395
    _ZN4giac16francis_iterate2ERNS_13matrix_doubleEiiS1_dbS1_S1_bRSt6vectorIdSaIdEE @2396
    _ZN4giac16francis_iterate2ERNS_21matrix_complex_doubleEiiS1_dbS1_b @2397
    _ZN4giac16gammatofactorialERKNS_3genEPKNS_7contextE @2398
    _ZN4giac16gcd_modular_algoERNS_6tensorINS_3genEEES3_S3_b @2399
    _ZN4giac16gcddoublemodpolyERKNS_15dbgprint_vectorINS_3genEEES4_dRS2_ @2400
    _ZN4giac16genpoint2vecteurERKNS_3genEPKNS_7contextE @2401
    _ZN4giac16geo_setup_stringEv @2402
    _ZN4giac16gnuplot_show_pntERKNS_8symbolicEPKNS_7contextE @2403
    _ZN4giac16has_rootof_valueERKNS_3genERS0_PKNS_7contextE @2404
    _ZN4giac16has_sparse_poly1ERKNS_3genE @2405
    _ZN4giac16hessenberg_orthoERNS_10std_matrixINS_3genEEES3_PKNS_7contextE @2406
    _ZN4giac16hessenberg_orthoERNS_10std_matrixINS_3genEEES3_iibidPKNS_7contextE @2407
    _ZN4giac16hessenberg_orthoERNS_13matrix_doubleES1_iibiRSt6vectorIdSaIdEE @2408
    _ZN4giac16hessenberg_orthoERNS_21matrix_complex_doubleES1_iibi @2409
    _ZN4giac16hessenberg_schurERNS_10std_matrixINS_3genEEES3_idPKNS_7contextE @2410
    _ZN4giac16householder_multERKNS_13matrix_doubleERKSt6vectorIdSaIdEERS5_i @2411
    _ZN4giac16householder_multERKSt6vectorIdSaIdEERKNS_13matrix_doubleERS2_ib @2412
    _ZN4giac16householder_multERKSt6vectorIdSaIdEERKNS_13matrix_doubleERS2_ibii @2413
    _ZN4giac16hyperplan_normalERKNS_3genE @2414
    _ZN4giac16i_lex_is_greaterERKNS_7index_mES2_ @2415
    _ZN4giac16in_francis_schurERNS_13matrix_doubleEiiS1_idbS1_S1_bRSt6vectorIdSaIdEE @2416
    _ZN4giac16in_francis_schurERNS_21matrix_complex_doubleEiiS1_idbS1_b @2417
    _ZN4giac16in_mws_translateERSiRSo @2418
    _ZN4giac16increasing_powerEPKNS_7contextE @2419
    _ZN4giac16increasing_powerEbPKNS_7contextE @2420
    _ZN4giac16inferieur_strictERKNS_3genES2_PKNS_7contextE @2421
    _ZN4giac16inplace_divisionERNS_3genERKS0_ @2422
    _ZN4giac16inplace_multpolyERKNS_3genERNS_6tensorIS0_EE @2423
    _ZN4giac16integrate_id_remERKNS_3genES2_RS0_PKNS_7contextE @2424
    _ZN4giac16integrate_id_remERKNS_3genES2_RS0_PKNS_7contextEi @2425
    _ZN4giac16invalidserieserrERKSsPKNS_7contextE @2426
    _ZN4giac16is_constant_idntERKNS_3genE @2427
    _ZN4giac16is_fully_numericERKNS_15dbgprint_vectorINS_3genEEEi @2428
    _ZN4giac16is_fully_numericERKNS_3genEi @2429
    _ZN4giac16is_known_name_38E @2430 DATA
    _ZN4giac16is_operator_charEc @2431
    _ZN4giac16is_quadratic_wrtERKNS_3genES2_RS0_S3_S3_PKNS_7contextE @2432
    _ZN4giac16lexer_translatorEv @2433
    _ZN4giac16lidnt_function38ERKNS_3genE @2434
    _ZN4giac16lidnt_function38ERKNS_3genERNS_15dbgprint_vectorIS0_EE @2435
    _ZN4giac16linear_changevarERKNS_15dbgprint_vectorINS_3genEEERKS1_S6_ @2436
    _ZN4giac16linear_integrateERKNS_3genES2_RS0_PKNS_7contextE @2437
    _ZN4giac16liste2symboliqueERKNS_15dbgprint_vectorINS_3genEEE @2438
    _ZN4giac16local_sto_doubleEdRKNS_14identificateurEPKNS_7contextE @2439
    _ZN4giac16localized_stringC1ERKS0_ @2440
    _ZN4giac16localized_stringC1EiRKSs @2441
    _ZN4giac16localized_stringD1Ev @2442
    _ZN4giac16localized_stringaSERKS0_ @2443
    _ZN4giac16minus_tan_5pi_12E @2444 DATA
    _ZN4giac16modgcd_cachesizeE @2445 DATA
    _ZN4giac16modified_compareC1Ev @2446
    _ZN4giac16modified_compareclERKNS_3genES3_ @2447
    _ZN4giac16mpcar_hessenbergERKNS_15dbgprint_vectorINS_3genEEEiPKNS_7contextE @2448
    _ZN4giac16mpzclass_allowedE @2449 DATA
    _ZN4giac16need_parenthesisERKNS_3genE @2450
    _ZN4giac16new_ref_symbolicERKNS_8symbolicE @2451
    _ZN4giac16no_context_evalfERKNS_3genE @2452
    _ZN4giac16octal_print_INT_Ei @2453
    _ZN4giac16octal_print_ZINTERA1_K12__mpz_struct @2454
    _ZN4giac16operator_plus_eqERNS_3genERKS0_PKNS_7contextE @2455
    _ZN4giac16padic_linsolve_cERKNS_15dbgprint_vectorINS_3genEEES4_S4_jRKS1_j @2456
    _ZN4giac16parent_cas_setupEPKNS_7contextE @2457
    _ZN4giac16pascal_next_lineERKNS_15dbgprint_vectorINS_3genEEE @2458
    _ZN4giac16poly1_2_polynomeERKNS_15dbgprint_vectorINS_3genEEEi @2459
    _ZN4giac16primitive_tab_opE @2460 DATA
    _ZN4giac16printasinnerblocERKNS_3genEPKNS_7contextE @2461
    _ZN4giac16printasinputformERKNS_3genEPKcPKNS_7contextE @2462
    _ZN4giac16protection_levelE @2463 DATA
    _ZN4giac16rat_jordan_blockERKNS_15dbgprint_vectorINS_3genEEEib @2464
    _ZN4giac16recompute_minmaxERKNS_15dbgprint_vectorINS_3genEEES4_RKS1_S6_RS1_S7_RS2_S8_iPKNS_7contextE @2465
    _ZN4giac16recursive_normalERKNS_3genEPKNS_7contextE @2466
    _ZN4giac16recursive_normalERKNS_3genEbPKNS_7contextE @2467
    _ZN4giac16ref_polynome2genEPNS_11Tref_tensorINS_3genEEE @2468
    _ZN4giac16ref_sparse_poly1C1ERKNS_15dbgprint_vectorINS_6monomeEEE @2469
    _ZN4giac16ref_sparse_poly1D1Ev @2470
    _ZN4giac16ref_void_pointerC1EPv @2471
    _ZN4giac16remove_extensionERKSs @2472
    _ZN4giac16remove_multiplesERNS_15dbgprint_vectorINS_3genEEE @2473
    _ZN4giac16rewrite_prod_invERKNS_3genERS0_S3_ @2474
    _ZN4giac16set_lexer_stringERKSsRPvPKNS_7contextE @2475
    _ZN4giac16set_turtle_stateERKNS_15dbgprint_vectorINS_3genEEEPKNS_7contextE @2476
    _ZN4giac16sinhcoshtanh_tabE @2477 DATA
    _ZN4giac16solvepostprocessERKNS_3genES2_PKNS_7contextE @2478
    _ZN4giac16static_help_sortC1Ev @2479
    _ZN4giac16static_help_sortclERKNS_13static_help_tES3_ @2480
    _ZN4giac16superieur_strictERKNS_3genES2_PKNS_7contextE @2481
    _ZN4giac16symb_program_stoERKNS_3genES2_S2_S2_bPKNS_7contextE @2482
    _ZN4giac16symb_size_less_tC1Ev @2483
    _ZN4giac16symb_size_less_tclERKNS_3genES3_ @2484
    _ZN4giac16symbolique2listeERKNS_3genEPKNS_7contextE @2485
    _ZN4giac16texprintasdollarERKNS_3genEPKcPKNS_7contextE @2486
    _ZN4giac16thread_mmult_modEPv @2487
    _ZN4giac16thread_param_ptrEPKNS_7contextE @2488
    _ZN4giac16trivial_n_factorERNS_3genE @2489
    _ZN4giac16tsimplify_commonERKNS_3genEPKNS_7contextE @2490
    _ZN4giac16unitname_tab_endE @2491 DATA
    _ZN4giac16user_screen_io_xE @2492 DATA
    _ZN4giac16user_screen_io_yE @2493 DATA
    _ZN4giac16vecteur2polynomeERKNS_15dbgprint_vectorINS_3genEEEi @2494
    _ZN4giac17D_at_Psi_minus_lnE @2495 DATA
    _ZN4giac17PARENTHESIS_NWAITE @2496 DATA
    _ZN4giac17TEST_PROBAB_PRIMEE @2497 DATA
    _ZN4giac17_IDNT_euler_gammaE @2498 DATA
    _ZN4giac17_VECT_is_constantERKNS_15dbgprint_vectorINS_3genEEE @2499
    _ZN4giac17_bounded_functionERKNS_3genEPKNS_7contextE @2500
    _ZN4giac17_diagramme_batonsERKNS_3genEPKNS_7contextE @2501
    _ZN4giac17_euler_mac_laurinERKNS_3genEPKNS_7contextE @2502
    _ZN4giac17_exponential_icdfERKNS_3genEPKNS_7contextE @2503
    _ZN4giac17_inferieur_strictERKNS_3genEPKNS_7contextE @2504
    _ZN4giac17_modgcd_cachesizeERKNS_3genEPKNS_7contextE @2505
    _ZN4giac17_mpzclass_allowedERKNS_3genEPKNS_7contextE @2506
    _ZN4giac17_mult_c_conjugateERKNS_3genEPKNS_7contextE @2507
    _ZN4giac17_negbinomial_icdfERKNS_3genEPKNS_7contextE @2508
    _ZN4giac17_power_regressionERKNS_3genEPKNS_7contextE @2509
    _ZN4giac17_rat_jordan_blockERKNS_3genEPKNS_7contextE @2510
    _ZN4giac17_recursive_normalERKNS_3genEPKNS_7contextE @2511
    _ZN4giac17_superieur_strictERKNS_3genEPKNS_7contextE @2512
    _ZN4giac17_tetraedre_centreERKNS_3genEPKNS_7contextE @2513
    _ZN4giac17_triangle_isoceleERKNS_3genEPKNS_7contextE @2514
    _ZN4giac17alias_at_RPN_CASEE @2515 DATA
    _ZN4giac17alias_at_continueE @2516 DATA
    _ZN4giac17alias_at_divisionE @2517 DATA
    _ZN4giac17alias_at_intervalE @2518 DATA
    _ZN4giac17alias_at_pointpowE @2519 DATA
    _ZN4giac17alias_at_pourcentE @2520 DATA
    _ZN4giac17alias_at_rpn_progE @2521 DATA
    _ZN4giac17aplatir_fois_plusERKNS_3genE @2522
    _ZN4giac17apply_permutationERKSt6vectorIiSaIiEES4_RS2_ @2523
    _ZN4giac17at_adjoint_matrixE @2524 DATA
    _ZN4giac17at_as_function_ofE @2525 DATA
    _ZN4giac17at_chisquare_icdfE @2526 DATA
    _ZN4giac17at_div_harmoniqueE @2527 DATA
    _ZN4giac17at_est_cocycliqueE @2528 DATA
    _ZN4giac17at_est_harmoniqueE @2529 DATA
    _ZN4giac17at_est_orthogonalE @2530 DATA
    _ZN4giac17at_float2rationalE @2531 DATA
    _ZN4giac17at_frobenius_normE @2532 DATA
    _ZN4giac17at_geometric_icdfE @2533 DATA
    _ZN4giac17at_inferieur_egalE @2534 DATA
    _ZN4giac17at_maple_ifactorsE @2535 DATA
    _ZN4giac17at_perimeteratrawE @2536 DATA
    _ZN4giac17at_randchisquaredE @2537 DATA
    _ZN4giac17at_superieur_egalE @2538 DATA
    _ZN4giac17back_change_scaleERNS_15dbgprint_vectorINS_3genEEERKS1_ @2539
    _ZN4giac17begin_VECT_stringEibPKNS_7contextE @2540
    _ZN4giac17binary_print_INT_Ei @2541
    _ZN4giac17binary_print_ZINTERA1_K12__mpz_struct @2542
    _ZN4giac17cantor_zassenhausERKNS_15dbgprint_vectorINS_3genEEEiRKSt6vectorIS2_SaIS2_EEPNS_11environmentERS7_ @2543
    _ZN4giac17cantor_zassenhausERKSt6vectorINS_7facteurINS_15dbgprint_vectorINS_3genEEEEESaIS5_EERKS0_IS4_SaIS4_EEPNS_11environmentERSB_ @2544
    _ZN4giac17checkf4buchbergerERNS_9vectpoly8ERKS0_RSt6vectorIjSaIjEEjd @2545
    _ZN4giac17clear_prog_statusEPKNS_7contextE @2546
    _ZN4giac17complex_variablesEPKNS_7contextE @2547
    _ZN4giac17complex_variablesEbPKNS_7contextE @2548
    _ZN4giac17convertfromdoubleERKSt6vectorIdSaIdEERNS_15dbgprint_vectorINS_3genEEEd @2549
    _ZN4giac17dichotomic_searchEPKPKcjS1_ @2550
    _ZN4giac17do_factorunivsqffERKNS_6tensorINS_3genEEEPNS_11environmentERNS_8vectpolyERiii @2551
    _ZN4giac17double_linsolve_lERKNS_13matrix_doubleEiiRKSt6vectorIdSaIdEERS5_ @2552
    _ZN4giac17double_linsolve_uERKNS_13matrix_doubleEiiRKSt6vectorIdSaIdEERS5_ @2553
    _ZN4giac17doublerref_temp_tC1Ev @2554
    _ZN4giac17doublerref_temp_tD1Ev @2555
    _ZN4giac17equation_homogeneERKNS_3genEPKNS_7contextE @2556
    _ZN4giac17evalf2double_nockERKNS_3genEiPKNS_7contextE @2557
    _ZN4giac17extract_submatrixERKNS_15dbgprint_vectorINS_3genEEERKSt6vectorIjSaIjEERS2_ @2558
    _ZN4giac17f_compare_contextC1EPFbRKNS_3genES3_PKNS_7contextEES6_ @2559
    _ZN4giac17f_compare_contextclERKNS_3genES3_ @2560
    _ZN4giac17find_plotseq_argsERKNS_3genERS0_S3_RdS4_S4_RiRNS_15dbgprint_vectorIS0_EEPKNS_7contextE @2561
    _ZN4giac17first_ascend_sortERKNS_3genES2_ @2562
    _ZN4giac17gcd_modular_algo1ERNS_6tensorINS_3genEEES3_S3_b @2563
    _ZN4giac17gendivisionby0errERKNS_3genEPKNS_7contextE @2564
    _ZN4giac17get_animation_pntERKNS_3genEi @2565
    _ZN4giac17giac_additionallyERKNS_3genEPKNS_7contextE @2566
    _ZN4giac17graph_output_typeERKNS_3genE @2567
    _ZN4giac17hessenberg_ortho3ERNS_13matrix_doubleES1_iibRSt6vectorIdSaIdEE @2568
    _ZN4giac17householder_mult2ERKNS_13matrix_doubleERKSt6vectorIdSaIdEERS5_S8_ib @2569
    _ZN4giac17i_3var_is_greaterERKNS_7index_mES2_ @2570
    _ZN4giac17i_7var_is_greaterERKNS_7index_mES2_ @2571
    _ZN4giac17in_find_extensionERKNS_3genERNS_15dbgprint_vectorIS0_EERSt6vectorIiSaIiEERS0_PKNS_7contextE @2572
    _ZN4giac17in_heap_reducemodERKNS_7polymodERKNS_11vectpolymodERKSt6vectorIjSaIjEEjRS3_RS0_PS0_i @2573
    _ZN4giac17integrate_gen_remERKNS_3genES2_RS0_PKNS_7contextE @2574
    _ZN4giac17interdroitecercleERKNS_3genES2_PKNS_7contextE @2575
    _ZN4giac17is_file_availableEPKc @2576
    _ZN4giac17is_hypergeometricERKNS_3genERKNS_14identificateurERNS_15dbgprint_vectorIS0_EERNS_6tensorIS0_EESB_SB_PKNS_7contextE @2577
    _ZN4giac17is_perfect_squareERKNS_3genE @2578
    _ZN4giac17is_probab_prime_pERKNS_3genE @2579
    _ZN4giac17keep_in_rectangleERKNS_15dbgprint_vectorINS_3genEEES1_RKS1_S6_S6_bPKNS_7contextE @2580
    _ZN4giac17laplace_reduce_pfERKNS_2pfINS_3genEEERNS_6tensorIS1_EE @2581
    _ZN4giac17lcmdeno_convertedERNS_15dbgprint_vectorINS_3genEEERS1_PKNS_7contextE @2582
    _ZN4giac17lexer_line_numberEPKNS_7contextE @2583
    _ZN4giac17lexer_line_numberEiPKNS_7contextE @2584
    _ZN4giac17library_functionsEv @2585
    _ZN4giac17makesuite_inplaceERKNS_3genES2_ @2586
    _ZN4giac17measure_functionsE @2587 DATA
    _ZN4giac17not_point_sommetsE @2588 DATA
    _ZN4giac17operator_minus_eqERNS_3genERKS0_PKNS_7contextE @2589
    _ZN4giac17pari_lift_combineERKNS_15dbgprint_vectorINS_3genEEERKSt6vectorIS2_SaIS2_EERS1_RS7_ @2590
    _ZN4giac17pari_polresultantERKNS_3genES2_RKNS_15dbgprint_vectorIS0_EERS0_PKNS_7contextE @2591
    _ZN4giac17powneg2invpow_tabE @2592 DATA
    _ZN4giac17printasmaple_subsERKNS_3genEPKcPKNS_7contextE @2593
    _ZN4giac17printastifunctionERKNS_3genEPKcPKNS_7contextE @2594
    _ZN4giac17pseudo_rat_to_ratERKNS_15dbgprint_vectorINS_3genEEEi @2595
    _ZN4giac17quadrique_reduiteERKNS_3genES2_RKNS_15dbgprint_vectorIS0_EERS0_S7_S7_RS4_S8_S8_S8_S7_S8_S8_bPKNS_7contextE @2596
    _ZN4giac17ref_real_intervalC1ERKNS_13real_intervalE @2597
    _ZN4giac17ref_real_intervalC1Ev @2598
    _ZN4giac17ref_real_intervalD1Ev @2599
    _ZN4giac17remove_not_in_arcERKNS_15dbgprint_vectorINS_3genEEERKS1_PKNS_7contextE @2600
    _ZN4giac17scientific_formatEPKNS_7contextE @2601
    _ZN4giac17scientific_formatEiPKNS_7contextE @2602
    _ZN4giac17selection2vecteurERKSt6vectorIiSaIiEEPKNS_7contextE @2603
    _ZN4giac17set_lexer_symbolsERKNS_15dbgprint_vectorINS_3genEEEPKNS_7contextE @2604
    _ZN4giac17simplifyfactorialERKNS_3genEPKNS_7contextE @2605
    _ZN4giac17splitmultivarpolyERKNS_6tensorINS_3genEEEi @2606
    _ZN4giac17tconvolutionpowerERKNS_15dbgprint_vectorINS_3genEEEiRS2_PKNS_7contextE @2607
    _ZN4giac17try_sparse_factorERKNS_6tensorINS_3genEEERKSt6vectorINS_7facteurIS2_EESaIS7_EEiRS9_ @2608
    _ZN4giac17tsimplify_noexplnERKNS_3genEiiPKNS_7contextE @2609
    _ZN4giac17unarchive_sessionERKNS_3genEiS2_PKNS_7contextEb @2610
    _ZN4giac17unarchive_sessionERKSsiRKNS_3genEPKNS_7contextE @2611
    _ZN4giac17unarchive_sessionERSiiRKNS_3genEPKNS_7contextE @2612
    _ZN4giac17unlock_syms_mutexEv @2613
    _ZN4giac18DEFAULT_EVAL_LEVELE @2614 DATA
    _ZN4giac18D_at_lnGamma_minusE @2615 DATA
    _ZN4giac18MAX_PRINTABLE_ZINTE @2616 DATA
    _ZN4giac18SOLVER_MAX_ITERATEE @2617 DATA
    _ZN4giac18VAS_positive_rootsERKNS_15dbgprint_vectorINS_3genEEERKS1_S6_S6_S6_PKNS_7contextE @2618
    _ZN4giac18_Ox_2d_unit_vectorERKNS_3genEPKNS_7contextE @2619
    _ZN4giac18_Ox_3d_unit_vectorERKNS_3genEPKNS_7contextE @2620
    _ZN4giac18_Oy_2d_unit_vectorERKNS_3genEPKNS_7contextE @2621
    _ZN4giac18_Oy_3d_unit_vectorERKNS_3genEPKNS_7contextE @2622
    _ZN4giac18_Oz_3d_unit_vectorERKNS_3genEPKNS_7contextE @2623
    _ZN4giac18_complex_variablesERKNS_3genEPKNS_7contextE @2624
    _ZN4giac18_constants_catalogERKNS_3genEPKNS_7contextE @2625
    _ZN4giac18_linear_regressionERKNS_3genEPKNS_7contextE @2626
    _ZN4giac18_osculating_circleERKNS_3genEPKNS_7contextE @2627
    _ZN4giac18_polar2rectangularERKNS_3genEPKNS_7contextE @2628
    _ZN4giac18_quadrique_reduiteERKNS_3genEPKNS_7contextE @2629
    _ZN4giac18_rectangular2polarERKNS_3genEPKNS_7contextE @2630
    _ZN4giac18_scientific_formatERKNS_3genEPKNS_7contextE @2631
    _ZN4giac18adjust_int_sum_argERNS_15dbgprint_vectorINS_3genEEERi @2632
    _ZN4giac18alias_at_RPN_LOCALE @2633 DATA
    _ZN4giac18alias_at_RPN_WHILEE @2634 DATA
    _ZN4giac18alias_at_decrementE @2635 DATA
    _ZN4giac18alias_at_differentE @2636 DATA
    _ZN4giac18alias_at_incrementE @2637 DATA
    _ZN4giac18alias_at_intersectE @2638 DATA
    _ZN4giac18alias_at_maple_libE @2639 DATA
    _ZN4giac18alias_at_normalmodE @2640 DATA
    _ZN4giac18alias_at_pointplusE @2641 DATA
    _ZN4giac18alias_at_pointprodE @2642 DATA
    _ZN4giac18alias_at_quote_powE @2643 DATA
    _ZN4giac18alias_unsigned_infE @2644 DATA
    _ZN4giac18aspen_linsolve_2x2ERKNS_3genES2_S2_S2_S2_S2_PKNS_7contextE @2645
    _ZN4giac18aspen_linsolve_3x3ERKNS_3genES2_S2_S2_S2_S2_S2_S2_S2_S2_S2_S2_PKNS_7contextE @2646
    _ZN4giac18at_ampersand_timesE @2647 DATA
    _ZN4giac18at_conique_reduiteE @2648 DATA
    _ZN4giac18at_conj_harmoniqueE @2649 DATA
    _ZN4giac18at_est_cospheriqueE @2650 DATA
    _ZN4giac18at_est_equilateralE @2651 DATA
    _ZN4giac18at_exponential_cdfE @2652 DATA
    _ZN4giac18at_extract_measureE @2653 DATA
    _ZN4giac18at_halftan_hyp2expE @2654 DATA
    _ZN4giac18at_legendre_symbolE @2655 DATA
    _ZN4giac18at_parallelogrammeE @2656 DATA
    _ZN4giac18at_pcar_hessenbergE @2657 DATA
    _ZN4giac18at_perpendiculaireE @2658 DATA
    _ZN4giac18at_polygone_ouvertE @2659 DATA
    _ZN4giac18at_randmultinomialE @2660 DATA
    _ZN4giac18autoname_plus_plusERSs @2661
    _ZN4giac18check_local_assignERKNS_3genEPKNS_7contextE @2662
    _ZN4giac18check_local_assignERKNS_3genERKNS_15dbgprint_vectorIS0_EERS4_S7_S7_S7_bPKNS_7contextE @2663
    _ZN4giac18ck_int_numericallyERKNS_3genES2_S2_S2_S2_PKNS_7contextE @2664
    _ZN4giac18conjugate_gradientERKNS_15dbgprint_vectorINS_3genEEES4_S4_dPKNS_7contextE @2665
    _ZN4giac18continued_frac2genESt6vectorIiSaIiEEddPKNS_7contextE @2666
    _ZN4giac18convert_double_intERNS_15dbgprint_vectorINS_3genEEE @2667
    _ZN4giac18decrease_selectionERKSsRiS2_ @2668
    _ZN4giac18delete_ref_vecteurEPNS_11ref_vecteurE @2669
    _ZN4giac18double_linsolve_l4ERKNS_13matrix_doubleEiiRKSt6vectorIdSaIdEES7_S7_S7_RS5_S8_S8_S8_ @2670
    _ZN4giac18double_linsolve_u4ERKNS_13matrix_doubleEiiRKSt6vectorIdSaIdEES7_S7_S7_RS5_S8_S8_S8_ @2671
    _ZN4giac18droite_by_equationERKNS_15dbgprint_vectorINS_3genEEEbPKNS_7contextE @2672
    _ZN4giac18file_not_availableEPKc @2673
    _ZN4giac18find_singularitiesERKNS_3genERKNS_14identificateurEiPKNS_7contextE @2674
    _ZN4giac18first_descend_sortERKNS_3genES2_ @2675
    _ZN4giac18gen_sort_f_contextEN9__gnu_cxx17__normal_iteratorIPNS_3genESt6vectorIS2_SaIS2_EEEES7_PFbRKS2_S9_PKNS_7contextEESC_ @2676
    _ZN4giac18global_window_xmaxE @2677 DATA
    _ZN4giac18global_window_xminE @2678 DATA
    _ZN4giac18global_window_ymaxE @2679 DATA
    _ZN4giac18global_window_yminE @2680 DATA
    _ZN4giac18has_special_syntaxEPKc @2681
    _ZN4giac18hessenberg_idnt_2pERNS_13matrix_doubleERKSt6vectorIdSaIdEERS4_S7_S7_ @2682
    _ZN4giac18hessenberg_p_pass1ERNS_13matrix_doubleERKSt6vectorIdSaIdEES6_iii @2683
    _ZN4giac18i_11var_is_greaterERKNS_7index_mES2_ @2684
    _ZN4giac18increase_selectionERKSsRiS2_ @2685
    _ZN4giac18inter2hypersurfaceERKNS_3genES2_PKNS_7contextE @2686
    _ZN4giac18interactive_op_tabE @2687 DATA
    _ZN4giac18is_admissible_polyERKNS_6tensorINS_3genEEERiRS2_RNS_15dbgprint_vectorIS1_EEPKNS_7contextE @2688
    _ZN4giac18is_assumed_integerERKNS_3genEPKNS_7contextE @2689
    _ZN4giac18is_idnt_function38ERKNS_3genE @2690
    _ZN4giac18is_integer_matriceERKNS_15dbgprint_vectorINS_3genEEE @2691
    _ZN4giac18is_integer_vecteurERKNS_15dbgprint_vectorINS_3genEEE @2692
    _ZN4giac18islesscomplexthanfERKNS_3genES2_ @2693
    _ZN4giac18linear_combinationERKNS_3genERKNS_15dbgprint_vectorIS0_EES2_S6_RS4_id @2694
    _ZN4giac18linear_combinationERKNS_3genERKNS_15dbgprint_vectorIS0_EES2_S6_S2_RS4_di @2695
    _ZN4giac18linear_combinationEdRKSt6vectorIdSaIdEEdS4_RS2_id @2696
    _ZN4giac18make_free_variableERNS_3genEPKNS_7contextEbS0_S0_ @2697
    _ZN4giac18minimal_polynomialERKNS_3genEbPKNS_7contextE @2698
    _ZN4giac18mksa_register_unitEPKcPKNS_9mksa_unitE @2699
    _ZN4giac18mmult_double_blockERKNS_13matrix_doubleEiiS2_iiRS0_iiiiib @2700
    _ZN4giac18multmatvecteur_intERKSt6vectorIS0_IiSaIiEESaIS2_EERKS2_RS0_IxSaIxEE @2701
    _ZN4giac18partial_derivativeC2Ev @2702
    _ZN4giac18partial_derivativeD0Ev @2703
    _ZN4giac18partial_derivativeD1Ev @2704
    _ZN4giac18partial_derivativeD2Ev @2705
    _ZN4giac18probabilistic_pminERKNS_15dbgprint_vectorINS_3genEEERS2_bPKNS_7contextE @2706
    _ZN4giac18read_tmintmaxtstepERNS_15dbgprint_vectorINS_3genEEERS1_iRdS5_S5_RbS6_PKNS_7contextE @2707
    _ZN4giac18reducef4buchbergerERSt6vectorIiSaIiEERKS0_IS0_INS_14sparse_elementESaIS4_EESaIS6_EEi @2708
    _ZN4giac18ref_identificateurC1EPKc @2709
    _ZN4giac18ref_identificateurC1ERKNS_14identificateurE @2710
    _ZN4giac18ref_identificateurD1Ev @2711
    _ZN4giac18revlex_parametrizeERNS_15dbgprint_vectorINS_3genEEERKS2_Ri @2712
    _ZN4giac18schur_eigenvectorsERNS_15dbgprint_vectorINS_3genEEES3_dPKNS_7contextE @2713
    _ZN4giac18separate_variablesERKNS_3genES2_S2_RS0_S3_PKNS_7contextE @2714
    _ZN4giac18set_decimal_digitsEiPKNS_7contextE @2715
    _ZN4giac18sqff_ffield_factorERKSt6vectorINS_7facteurINS_6tensorINS_3genEEEEESaIS5_EEiPNS_11environmentERS7_ @2716
    _ZN4giac18string_euler_gammaE @2717 DATA
    _ZN4giac18symb_interrogationERKNS_3genES2_ @2718
    _ZN4giac18tdeg_t_all_greaterERKNS_6tdeg_tES2_s @2719
    _ZN4giac18tdeg_t_lex_greaterERKNS_6tdeg_tES2_ @2720
    _ZN4giac18thread_eval_statusEPKNS_7contextE @2721
    _ZN4giac18thread_eval_statusEiPKNS_7contextE @2722
    _ZN4giac18turtlevect2vecteurERKSt6vectorINS_11logo_turtleESaIS1_EE @2723
    _ZN4giac18unary_function_ptrC1EPKNS_23unary_function_abstractE @2724
    _ZN4giac18unary_function_ptrC1EPKNS_23unary_function_abstractEii @2725
    _ZN4giac18unary_function_ptrC1EPKNS_25alias_unary_function_evalEii @2726
    _ZN4giac18unary_function_ptrC2EPKNS_23unary_function_abstractEii @2727
    _ZN4giac18unary_function_ptrC2EPKNS_25alias_unary_function_evalEii @2728
    _ZN4giac18unitptr_tab_lengthE @2729 DATA
    _ZN4giac18update_completionsEv @2730
    _ZN4giac18user_operator_listE @2731 DATA
    _ZN4giac18utf8pos2unicodeposEPKcjb @2732
    _ZN4giac18vecteur2turtlevectERKNS_15dbgprint_vectorINS_3genEEE @2733
    _ZN4giac18vecteur2vector_intERKNS_15dbgprint_vectorINS_3genEEEiRSt6vectorIiSaIiEE @2734
    _ZN4giac18vector_int2vecteurERKSt6vectorIiSaIiEERNS_15dbgprint_vectorINS_3genEEE @2735
    _ZN4giac18zint2simpldoublposERKNS_3genERS0_S3_RbiPKNS_7contextE @2736
    _ZN4giac19MAX_RECURSION_LEVELE @2737 DATA
    _ZN4giac19PROOT_FACTOR_MAXDEGE @2738 DATA
    _ZN4giac19_Celsius2FahrenheitERKNS_3genEPKNS_7contextE @2739
    _ZN4giac19_Fahrenheit2CelsiusERKNS_3genEPKNS_7contextE @2740
    _ZN4giac19_all_trig_solutionsERKNS_3genEPKNS_7contextE @2741
    _ZN4giac19_conjugate_gradientERKNS_3genEPKNS_7contextE @2742
    _ZN4giac19_double_deux_pointsERKNS_3genEPKNS_7contextE @2743
    _ZN4giac19_fin_enregistrementERKNS_3genEPKNS_7contextE @2744
    _ZN4giac19_linear_interpolateERKNS_3genEPKNS_7contextE @2745
    _ZN4giac19_polaire_reciproqueERKNS_3genEPKNS_7contextE @2746
    _ZN4giac19_polygonscatterplotERKNS_3genEPKNS_7contextE @2747
    _ZN4giac19_taux_accroissementERKNS_3genEPKNS_7contextE @2748
    _ZN4giac19_triangle_rectangleERKNS_3genEPKNS_7contextE @2749
    _ZN4giac19add_printinner_VECTERSsRKNS_15dbgprint_vectorINS_3genEEEiPKNS_7contextE @2750
    _ZN4giac19addvecteur_longlongERSt6vectorIxSaIxEERKS2_ @2751
    _ZN4giac19algebraic_EXTensionERKNS_3genES2_ @2752
    _ZN4giac19alias_at_check_typeE @2753 DATA
    _ZN4giac19alias_at_divcrementE @2754 DATA
    _ZN4giac19alias_at_plot_styleE @2755 DATA
    _ZN4giac19alias_at_pointminusE @2756 DATA
    _ZN4giac19at_bounded_functionE @2757 DATA
    _ZN4giac19at_euler_mac_laurinE @2758 DATA
    _ZN4giac19at_exponential_icdfE @2759 DATA
    _ZN4giac19at_exponentiald_cdfE @2760 DATA
    _ZN4giac19at_inferieur_strictE @2761 DATA
    _ZN4giac19at_negbinomial_icdfE @2762 DATA
    _ZN4giac19at_superieur_strictE @2763 DATA
    _ZN4giac19at_triangle_isoceleE @2764 DATA
    _ZN4giac19background_callbackERKNS_3genEPv @2765
    _ZN4giac19bounded_function_noEPKNS_7contextE @2766
    _ZN4giac19bounded_function_noEiPKNS_7contextE @2767
    _ZN4giac19chk_double_intervalERKNS_3genERdS3_PKNS_7contextE @2768
    _ZN4giac19common_minimal_POLYERKNS_3genES2_RS0_S3_RiPKNS_7contextE @2769
    _ZN4giac19compare_heap_tt_ptrC1Es @2770
    _ZN4giac19compare_heap_tt_ptrclERKNS_11heap_tt_ptrES3_ @2771
    _ZN4giac19complex_display_ptrERKNS_3genE @2772
    _ZN4giac19current_folder_nameE @2773 DATA
    _ZN4giac19curve_surface_applyERKNS_3genES2_PFS0_S2_S2_PKNS_7contextEES5_ @2774
    _ZN4giac19delete_lexer_stringERP15yy_buffer_stateRPv @2775
    _ZN4giac19divided_differencesERKNS_15dbgprint_vectorINS_3genEEES4_ @2776
    _ZN4giac19divided_differencesERKNS_15dbgprint_vectorINS_3genEEES4_RS2_PNS_11environmentE @2777
    _ZN4giac19do_francis_iterate2ERNS_13matrix_doubleEiiddS1_bRSt6vectorIdSaIdEE @2778
    _ZN4giac19est_faisceau_cercleERKNS_3genES2_S2_S2_S2_S2_PKNS_7contextE @2779
    _ZN4giac19est_faisceau_droiteERKNS_3genES2_S2_PKNS_7contextE @2780
    _ZN4giac19est_parallelogrammeERKNS_3genES2_S2_S2_PKNS_7contextE @2781
    _ZN4giac19est_perpendiculaireERKNS_3genES2_PKNS_7contextE @2782
    _ZN4giac19eval_with_xy_quotedERKNS_3genEPKNS_7contextE @2783
    _ZN4giac19factorial2gamma_tabE @2784 DATA
    _ZN4giac19find_or_make_symbolERKSsRNS_3genEPvbPKNS_7contextE @2785
    _ZN4giac19find_or_make_symbolERKSsbPKNS_7contextE @2786
    _ZN4giac19function_regressionERKNS_3genES2_S2_RS0_S3_RdS4_S3_PKNS_7contextE @2787
    _ZN4giac19gamma2factorial_tabE @2788 DATA
    _ZN4giac19geninvalidserieserrERKSsPKNS_7contextE @2789
    _ZN4giac19giac_current_statusEbPKNS_7contextE @2790
    _ZN4giac19halftan_hyp2exp_tabE @2791 DATA
    _ZN4giac19has_undef_stringerrERKNS_3genERSs @2792
    _ZN4giac19history_begin_levelE @2793 DATA
    _ZN4giac19hp38_display_in_majEPKc @2794
    _ZN4giac19hypersphere_parameqERKNS_3genERKNS_15dbgprint_vectorIS0_EE @2795
    _ZN4giac19ichrem_smod_inplaceEPA1_12__mpz_structS2_S2_S2_RNS_3genERKS3_ @2796
    _ZN4giac19increment_comment_sERKSsPKNS_7contextE @2797
    _ZN4giac19increment_comment_sEcPKNS_7contextE @2798
    _ZN4giac19index_hash_functionERKSt6vectorIsSaIsEE @2799
    _ZN4giac19initialisation_doneEPKNS_7contextE @2800
    _ZN4giac19initialisation_doneEiPKNS_7contextE @2801
    _ZN4giac19is_fraction_matriceERKNS_15dbgprint_vectorINS_3genEEE @2802
    _ZN4giac19is_fraction_vecteurERKNS_15dbgprint_vectorINS_3genEEE @2803
    _ZN4giac19is_strictly_greaterERKNS_3genES2_PKNS_7contextE @2804
    _ZN4giac19lexer_column_numberEPKNS_7contextE @2805
    _ZN4giac19move_selection_leftERKSsRiS2_ @2806
    _ZN4giac19mulpoly_interpolateERKNS_6tensorINS_3genEEES4_RS2_PNS_11environmentE @2807
    _ZN4giac19point_sommet_tab_opE @2808 DATA
    _ZN4giac19prog_eval_level_valEPKNS_7contextE @2809
    _ZN4giac19prog_eval_level_valEiPKNS_7contextE @2810
    _ZN4giac19recursive_ratnormalERKNS_3genEPKNS_7contextE @2811
    _ZN4giac19rewrite_with_t_realERNS_3genERKS0_PKNS_7contextE @2812
    _ZN4giac19sinhcoshtanhinv_tabE @2813 DATA
    _ZN4giac19smallmodrref_temp_tC1Ev @2814
    _ZN4giac19smallmodrref_temp_tD1Ev @2815
    _ZN4giac19solve_zero_extremumERKNS_3genES2_S2_RiPKNS_7contextE @2816
    _ZN4giac19solve_zero_extremumERKNS_3genES2_S2_ddRiPKNS_7contextE @2817
    _ZN4giac19sparse_element_tri1C1Ev @2818
    _ZN4giac19sparse_element_tri1clERKNS_14sparse_elementES3_ @2819
    _ZN4giac19subvecteur_longlongERSt6vectorIxSaIxEERKS2_ @2820
    _ZN4giac19symb_inferieur_egalERKNS_3genE @2821
    _ZN4giac19symb_inferieur_egalERKNS_3genES2_ @2822
    _ZN4giac19symb_superieur_egalERKNS_3genE @2823
    _ZN4giac19symb_superieur_egalERKNS_3genES2_ @2824
    _ZN4giac19symbolic_preprocessERKNS_7polymodERKNS_11vectpolymodERKSt6vectorIjSaIjEEjRS3_RS0_PS0_ @2825
    _ZN4giac19tab_one_letter_idntE @2826 DATA
    _ZN4giac19tdeg_t_3var_greaterERKNS_6tdeg_tES2_ @2827
    _ZN4giac19tdeg_t_7var_greaterERKNS_6tdeg_tES2_ @2828
    _ZN4giac19type_operator_timesERKNS_3genES2_RS0_ @2829
    _ZN4giac19type_operator_timesERKSt6vectorIiSaIiEES4_RS2_ @2830
    _ZN4giac19type_operator_timesERKdS1_Rd @2831
    _ZN4giac19type_operator_timesERKiS1_Ri @2832
    _ZN4giac19type_operator_timesERKxS1_Rx @2833
    _ZN4giac19unary_function_evalC1EjRKPFNS_3genERKS1_PKNS_7contextEEPKNS_18partial_derivativeEPFS1_S3_iRKNS_18unary_function_ptrEiRS1_S6_EPKc @2834
    _ZN4giac19unary_function_evalC1EjRKPFNS_3genERKS1_PKNS_7contextEEPKNS_18partial_derivativeEPFS1_S3_iRKNS_18unary_function_ptrEiRS1_S6_EPKcPFSsS3_SL_S6_ESN_SN_ @2835
    _ZN4giac19unary_function_evalC1EjRKPFNS_3genERKS1_PKNS_7contextEEPKNS_18partial_derivativeEPKc @2836
    _ZN4giac19unary_function_evalC1EjRKPFNS_3genERKS1_PKNS_7contextEEPKNS_18partial_derivativeEPKcPFSsS3_SF_S6_ESH_SH_ @2837
    _ZN4giac19unary_function_evalC1EjRKPFNS_3genERKS1_PKNS_7contextEEPKc @2838
    _ZN4giac19unary_function_evalC1EjRKPFNS_3genERKS1_PKNS_7contextEEPKcPFSsS3_SC_S6_ESE_SE_ @2839
    _ZN4giac19unary_function_evalD0Ev @2840
    _ZN4giac19unary_function_evalD1Ev @2841
    _ZN4giac19unary_function_listC1EjRKSt6vectorINS_18unary_function_ptrESaIS2_EE @2842
    _ZN4giac19unary_function_listC2EjRKSt6vectorINS_18unary_function_ptrESaIS2_EE @2843
    _ZN4giac19unary_function_listD0Ev @2844
    _ZN4giac19unary_function_listD1Ev @2845
    _ZN4giac19unary_function_userC1EjRKNS_3genERKSs @2846
    _ZN4giac19unary_function_userC1EjRKNS_3genERKSsPFSsS3_PKcPKNS_7contextEESC_SC_ @2847
    _ZN4giac19unary_function_userD0Ev @2848
    _ZN4giac19unary_function_userD1Ev @2849
    _ZN4giac19unit_conversion_mapEv @2850
    _ZN4giac19unsplitmultivarpolyERKNS_6tensorINS_3genEEEi @2851
    _ZN4giac19variables_are_filesEPKNS_7contextE @2852
    _ZN4giac19variables_are_filesEbPKNS_7contextE @2853
    _ZN4giac20FACTORIAL_SIZE_LIMITE @2854 DATA
    _ZN4giac20GBASIS_DETERMINISTICE @2855 DATA
    _ZN4giac20MuldensemodpolysmallERKN9__gnu_cxx17__normal_iteratorIPKNS_3genESt6vectorIS2_SaIS2_EEEESA_SA_SA_PNS_11environmentERNS_15dbgprint_vectorIS2_EE @2856
    _ZN4giac20_GROUP__VECT_subtypeE @2857 DATA
    _ZN4giac20_est_faisceau_cercleERKNS_3genEPKNS_7contextE @2858
    _ZN4giac20_est_faisceau_droiteERKNS_3genEPKNS_7contextE @2859
    _ZN4giac20_est_parallelogrammeERKNS_3genEPKNS_7contextE @2860
    _ZN4giac20_est_perpendiculaireERKNS_3genEPKNS_7contextE @2861
    _ZN4giac20_interactive_plotodeERKNS_3genEPKNS_7contextE @2862
    _ZN4giac20_logistic_regressionERKNS_3genEPKNS_7contextE @2863
    _ZN4giac20_reset_solve_counterERKNS_3genEPKNS_7contextE @2864
    _ZN4giac20_solve_zero_extremumERKNS_3genEPKNS_7contextE @2865
    _ZN4giac20alias_at_multcrementE @2866 DATA
    _ZN4giac20archive_function_tabEv @2867
    _ZN4giac20at_complex_variablesE @2868 DATA
    _ZN4giac20at_exponentiald_icdfE @2869 DATA
    _ZN4giac20at_scientific_formatE @2870 DATA
    _ZN4giac20cobyla_giac_functionEiiPdS0_S0_Pv @2871
    _ZN4giac20float2continued_fracEdd @2872
    _ZN4giac20hash_function_objectC1Ev @2873
    _ZN4giac20householder_idn_multERKNS_13matrix_doubleERKSt6vectorIdSaIdEERS5_i @2874
    _ZN4giac20hypersphere_equationERKNS_3genERKNS_15dbgprint_vectorIS0_EE @2875
    _ZN4giac20interdroitehyperplanERKNS_3genES2_PKNS_7contextE @2876
    _ZN4giac20inv_linear_changevarERKNS_15dbgprint_vectorINS_3genEEERKS1_S6_ @2877
    _ZN4giac20is_algebraic_programERKNS_3genERS0_S3_ @2878
    _ZN4giac20is_strictly_positiveERKNS_3genEPKNS_7contextE @2879
    _ZN4giac20lexer_tab_int_valuesE @2880 DATA
    _ZN4giac20modpoly2smallmodpolyERKNS_15dbgprint_vectorINS_3genEEERSt6vectorIiSaIiEEi @2881
    _ZN4giac20move_selection_rightERKSsRiS2_ @2882
    _ZN4giac20newton_complex_1rootERKNS_15dbgprint_vectorINS_3genEEERKS1_S6_S6_S6_RS2_d @2883
    _ZN4giac20padic_linsolve_solveERKNS_15dbgprint_vectorINS_3genEEERKS1_RKSt6vectorIiSaIiEESB_S4_S4_S4_S4_RS2_ @2884
    _ZN4giac20print_intvar_counterEPKNS_7contextE @2885
    _ZN4giac20print_program_syntaxEi @2886
    _ZN4giac20read1arg_from_streamERSiPKNS_7contextE @2887
    _ZN4giac20readargs_from_streamERSiRNS_15dbgprint_vectorINS_3genEEEPKNS_7contextE @2888
    _ZN4giac20rref_f4buchbergermodERNS_11vectpolymodES1_RKSt6vectorIjSaIjEEjRKS0_RKNS_7polymodEiRS2_IiSaIiEEb @2889
    _ZN4giac20smallmodpoly2modpolyERKSt6vectorIiSaIiEERNS_15dbgprint_vectorINS_3genEEEi @2890
    _ZN4giac20tdeg_t_11var_greaterERKNS_6tdeg_tES2_ @2891
    _ZN4giac20tran_vect_vector_intERKSt6vectorIS0_IiSaIiEESaIS2_EERS4_ @2892
    _ZN4giac20translate_underscoreERKSs @2893
    _ZN4giac20type_operator_reduceERKNS_3genES2_RS0_i @2894
    _ZN4giac20type_operator_reduceERKdS1_Rdi @2895
    _ZN4giac20type_operator_reduceERKiS1_Rii @2896
    _ZN4giac20type_operator_reduceERKxS1_Rxi @2897
    _ZN4giac20unary_function_unaryC1EjRKPFNS_3genERKS1_EPKc @2898
    _ZN4giac20unary_function_unaryD0Ev @2899
    _ZN4giac20unary_function_unaryD1Ev @2900
    _ZN4giac20user_screen_fontsizeE @2901 DATA
    _ZN4giac20vecteur2sparse_poly1ERKNS_15dbgprint_vectorINS_3genEEE @2902
    _ZN4giac20vecteur_2_vector_intERKNS_15dbgprint_vectorINS_3genEEE @2903
    _ZN4giac20vector_int_2_vecteurERKSt6vectorIiSaIiEE @2904
    _ZN4giac20vector_int_2_vecteurERKSt6vectorIiSaIiEEPKNS_7contextE @2905
    _ZN4giac20vectpoly8_2_vectpolyERKNS_9vectpoly8ERNS_8vectpolyE @2906
    _ZN4giac20vectpoly_2_vectpoly8ERKNS_8vectpolyEiRNS_9vectpoly8E @2907
    _ZN4giac20zsymbolic_preprocessERKSt6vectorINS_6tdeg_tESaIS1_EERKNS_12vectzpolymodERKS0_IjSaIjEEjRS0_IS3_SaIS3_EERS3_SG_ @2908
    _ZN4giac21_accumulate_head_tailERKNS_3genEPKNS_7contextE @2909
    _ZN4giac21_coordonnees_polairesERKNS_3genEPKNS_7contextE @2910
    _ZN4giac21_debut_enregistrementERKNS_3genEPKNS_7contextE @2911
    _ZN4giac21_triangle_equilateralERKNS_3genEPKNS_7contextE @2912
    _ZN4giac21alias_at_binary_minusE @2913 DATA
    _ZN4giac21as_linear_combinationERKNS_3genERNS_15dbgprint_vectorIS0_EEPKNS_7contextE @2914
    _ZN4giac21at_Celsius2FahrenheitE @2915 DATA
    _ZN4giac21at_Fahrenheit2CelsiusE @2916 DATA
    _ZN4giac21at_all_trig_solutionsE @2917 DATA
    _ZN4giac21at_double_deux_pointsE @2918 DATA
    _ZN4giac21at_polaire_reciproqueE @2919 DATA
    _ZN4giac21at_triangle_rectangleE @2920 DATA
    _ZN4giac21bi_linear_combinationESt7complexIdERSt6vectorIS1_SaIS1_EES1_S5_ii @2921
    _ZN4giac21bi_linear_combinationEdRSt6vectorISt7complexIdESaIS2_EES2_S5_ @2922
    _ZN4giac21change_monomial_orderERNS_6tensorINS_3genEEERKS1_ @2923
    _ZN4giac21ctrl_c_signal_handlerEi @2924
    _ZN4giac21do_thread_double_linvEPv @2925
    _ZN4giac21est_parallele_vecteurERKNS_15dbgprint_vectorINS_3genEEES4_PKNS_7contextE @2926
    _ZN4giac21est_parallele_vecteurERKNS_15dbgprint_vectorINS_3genEEES4_RS1_PKNS_7contextE @2927
    _ZN4giac21francis_schur_iterateERNS_10std_matrixINS_3genEEEdRKS1_iiiS3_bPKNS_7contextE @2928
    _ZN4giac21has_algebraic_programERKNS_3genE @2929
    _ZN4giac21hypersurface_equationERKNS_3genERKNS_15dbgprint_vectorIS0_EEPKNS_7contextE @2930
    _ZN4giac21increment_instructionERKNS_15dbgprint_vectorINS_3genEEEPKNS_7contextE @2931
    _ZN4giac21increment_instructionERKNS_3genEPKNS_7contextE @2932
    _ZN4giac21is_known_name_home_38EPKc @2933
    _ZN4giac21is_known_name_home_38EPKcS1_ @2934
    _ZN4giac21is_n_minus_one_or_twoERKNS_3genE @2935
    _ZN4giac21is_rewritable_as_f_ofERKNS_3genES2_RS0_S2_PKNS_7contextE @2936
    _ZN4giac21lapack2matrice_doubleEPdiiRNS_13matrix_doubleE @2937
    _ZN4giac21lexer_function_removeERKSt6vectorINS_13user_functionESaIS1_EE @2938
    _ZN4giac21matrice_double2lapackERKNS_13matrix_doubleEPd @2939
    _ZN4giac21matrix_complex_doubleC1Ei @2940
    _ZN4giac21matrix_complex_doubleC1Ev @2941
    _ZN4giac21matrix_complex_doubleD1Ev @2942
    _ZN4giac21modlinear_combinationERNS_15dbgprint_vectorINS_3genEEERKS1_RKS2_S5_ii @2943
    _ZN4giac21modlinear_combinationERSt6vectorIiSaIiEEiRKS2_iiib @2944
    _ZN4giac21print_realvar_counterEPKNS_7contextE @2945
    _ZN4giac21printcell_current_colEPKNS_7contextE @2946
    _ZN4giac21printcell_current_colEiPKNS_7contextE @2947
    _ZN4giac21printcell_current_rowEPKNS_7contextE @2948
    _ZN4giac21printcell_current_rowEiPKNS_7contextE @2949
    _ZN4giac21printsommetasoperatorERKNS_3genEPKcPKNS_7contextE @2950
    _ZN4giac21protected_read_configEPKNS_7contextEb @2951
    _ZN4giac21reducef4buchberger_32ERSt6vectorIiSaIiEERKS0_IS0_INS_8sparse32ESaIS4_EESaIS6_EEiRS0_IxSaIxEE @2952
    _ZN4giac21reducef4buchbergerposERSt6vectorIiSaIiEERKS0_IS2_SaIS2_EES2_i @2953
    _ZN4giac21reducemodf4buchbergerERNS_11vectpolymodES1_RKSt6vectorIjSaIjEEjiRNS_6info_tE @2954
    _ZN4giac21remove_multiplicitiesERKNS_15dbgprint_vectorINS_3genEEERSt6vectorINS_7facteurINS_6tensorIS1_EEEESaIS9_EEbPKNS_7contextE @2955
    _ZN4giac21remove_not_in_segmentERKNS_3genES2_iRKNS_15dbgprint_vectorIS0_EEPKNS_7contextE @2956
    _ZN4giac21selection2vecteurevalERKSt6vectorIiSaIiEEPKNS_7contextE @2957
    _ZN4giac21square_hadamard_boundERKNS_15dbgprint_vectorINS_3genEEE @2958
    _ZN4giac21symb_inferieur_strictERKNS_3genE @2959
    _ZN4giac21symb_inferieur_strictERKNS_3genES2_ @2960
    _ZN4giac21symb_superieur_strictERKNS_3genE @2961
    _ZN4giac21symb_superieur_strictERKNS_3genES2_ @2962
    _ZN4giac21tdeg_t_revlex_greaterERKNS_6tdeg_tES2_ @2963
    _ZN4giac22HENSEL_QUADRATIC_POWERE @2964 DATA
    _ZN4giac22MAX_ALG_EXT_ORDER_SIZEE @2965 DATA
    _ZN4giac22_cumulated_frequenciesERKNS_3genEPKNS_7contextE @2966
    _ZN4giac22_inferieur_strict_sortERKNS_3genEPKNS_7contextE @2967
    _ZN4giac22_parabolic_interpolateERKNS_3genEPKNS_7contextE @2968
    _ZN4giac22_polynomial_regressionERKNS_3genEPKNS_7contextE @2969
    _ZN4giac22_power_regression_plotERKNS_3genEPKNS_7contextE @2970
    _ZN4giac22_rectangular2sphericalERKNS_3genEPKNS_7contextE @2971
    _ZN4giac22_spherical2rectangularERKNS_3genEPKNS_7contextE @2972
    _ZN4giac22adjust_complex_displayERNS_3genEi @2973
    _ZN4giac22alias_at_pointdivisionE @2974 DATA
    _ZN4giac22archive_function_indexERKNS_18unary_function_ptrE @2975
    _ZN4giac22at_est_faisceau_cercleE @2976 DATA
    _ZN4giac22at_est_faisceau_droiteE @2977 DATA
    _ZN4giac22at_est_parallelogrammeE @2978 DATA
    _ZN4giac22at_est_perpendiculaireE @2979 DATA
    _ZN4giac22at_interactive_odeplotE @2980 DATA
    _ZN4giac22at_interactive_plotodeE @2981 DATA
    _ZN4giac22checkf4buchbergersplitERNS_9vectpoly8ERKS0_RSt6vectorIjSaIjEEjd @2982
    _ZN4giac22ck_is_strictly_greaterERKNS_3genES2_PKNS_7contextE @2983
    _ZN4giac22do_thread_mmult_doubleEPv @2984
    _ZN4giac22gen2continued_fractionERKNS_3genEiPKNS_7contextE @2985
    _ZN4giac22generalized_dotvecteurERKNS_15dbgprint_vectorINS_3genEEES4_i @2986
    _ZN4giac22giac_gcd_modular_algo1ERNS_6tensorINS_3genEEES3_S3_ @2987
    _ZN4giac22hessenberg_householderERNS_13matrix_doubleES1_b @2988
    _ZN4giac22householder_idnt_mult2ERKNS_13matrix_doubleERKSt6vectorIdSaIdEERS5_S8_S8_i @2989
    _ZN4giac22hyperplan2hypersurfaceERKNS_3genE @2990
    _ZN4giac22hyperplan_normal_pointERKNS_3genERNS_15dbgprint_vectorIS0_EES5_ @2991
    _ZN4giac22i_total_lex_is_greaterERKNS_7index_mES2_ @2992
    _ZN4giac22inputform_pre_analysisERKNS_3genEPKNS_7contextE @2993
    _ZN4giac22interhypersurfacecurveERKNS_3genES2_PKNS_7contextE @2994
    _ZN4giac22is_algebraic_extensionERKNS_3genE @2995
    _ZN4giac22lexer_localization_mapEv @2996
    _ZN4giac22makespreadsheetmatriceERNS_15dbgprint_vectorINS_3genEEEPKNS_7contextE @2997
    _ZN4giac22matrice2std_matrix_genERKNS_15dbgprint_vectorINS_3genEEERNS_10std_matrixIS1_EE @2998
    _ZN4giac22padic_linsolve_prepareERKNS_15dbgprint_vectorINS_3genEEERS1_RSt6vectorIiSaIiEES9_RS2_SA_SA_SA_ @2999
    _ZN4giac22print_rewrite_prod_invE @3000 DATA
    _ZN4giac22rationalparam2equationERKNS_3genES2_S2_S2_PKNS_7contextE @3001
    _ZN4giac22read_reduction_optionsERKNS_3genERNS_15dbgprint_vectorIS0_EERbRiS6_S6_S7_ @3002
    _ZN4giac22rur_convert_univariateERKNS_15dbgprint_vectorINS_3genEEEiRNS_7polymodE @3003
    _ZN4giac22specialtexprint_doubleEPKNS_7contextE @3004
    _ZN4giac22specialtexprint_doubleEbPKNS_7contextE @3005
    _ZN4giac22std_matrix_gen2matriceERKNS_10std_matrixINS_3genEEERNS_15dbgprint_vectorIS1_EE @3006
    _ZN4giac22system_browser_commandERKSs @3007
    _ZN4giac22tri_linear_combinationERKNS_3genERKNS_15dbgprint_vectorIS0_EES2_S6_S2_S6_RS4_ @3008
    _ZN4giac22tri_linear_combinationERKNS_3genES2_S2_S2_S2_S2_RA1_13__mpfr_structS5_ @3009
    _ZN4giac22tri_linear_combinationERKdRKSt6vectorIdSaIdEES1_S6_S1_S6_RS4_ @3010
    _ZN4giac22tri_linear_combinationEdRSt6vectorIdSaIdEEdS3_dS3_dddii @3011
    _ZN4giac22tri_linear_combinationEdRSt6vectorIdSaIdEEdS3_dS3_dii @3012
    _ZN4giac22try_hensel_lift_factorERKNS_6tensorINS_3genEEES4_RKSt6vectorINS_7facteurIS2_EESaIS7_EEiRS9_ @3013
    _ZN4giac22unary_function_composeC1EjRKSt6vectorINS_18unary_function_ptrESaIS2_EE @3014
    _ZN4giac22unary_function_composeC2EjRKSt6vectorINS_18unary_function_ptrESaIS2_EE @3015
    _ZN4giac22unary_function_composeD0Ev @3016
    _ZN4giac22unary_function_composeD1Ev @3017
    _ZN4giac22vecteur2vectvector_intERKNS_15dbgprint_vectorINS_3genEEEiRSt6vectorIS5_IiSaIiEESaIS7_EE @3018
    _ZN4giac22vector_completions_ptrEv @3019
    _ZN4giac22vectpoly_2_vectpolymodERKNS_8vectpolyEiRNS_11vectpolymodEi @3020
    _ZN4giac22vectpolymod_2_vectpolyERKNS_9vectpoly8ERNS_8vectpolyE @3021
    _ZN4giac22vectvector_int2vecteurERKSt6vectorIS0_IiSaIiEESaIS2_EERNS_15dbgprint_vectorINS_3genEEE @3022
    _ZN4giac23_covariance_correlationERKNS_3genEPKNS_7contextE @3023
    _ZN4giac23_exponential_regressionERKNS_3genEPKNS_7contextE @3024
    _ZN4giac23_linear_regression_plotERKNS_3genEPKNS_7contextE @3025
    _ZN4giac23_logarithmic_regressionERKNS_3genEPKNS_7contextE @3026
    _ZN4giac23_lower_incomplete_gammaERKNS_3genEPKNS_7contextE @3027
    _ZN4giac23_upper_incomplete_gammaERKNS_3genEPKNS_7contextE @3028
    _ZN4giac23alias_at_inferieur_egalE @3029 DATA
    _ZN4giac23alias_at_superieur_egalE @3030 DATA
    _ZN4giac23at_accumulate_head_tailE @3031 DATA
    _ZN4giac23at_non_recursive_normalE @3032 DATA
    _ZN4giac23at_triangle_equilateralE @3033 DATA
    _ZN4giac23builtin_lexer_functionsEv @3034
    _ZN4giac23calc_endlines_positionsERKNS_15dbgprint_vectorINS_3genEEES4_iRSt6vectorIiSaIiEES8_ @3035
    _ZN4giac23checkreducef4buchbergerERSt6vectorIiSaIiEES3_RKS0_IS0_INS_14sparse_elementESaIS4_EESaIS6_EEi @3036
    _ZN4giac23ck_is_strictly_positiveERKNS_3genEPKNS_7contextE @3037
    _ZN4giac23do_thread_double_lu2invEPv @3038
    _ZN4giac23extractmatricefromsheetERKNS_15dbgprint_vectorINS_3genEEE @3039
    _ZN4giac23facteur_polynome_sort_tC1Ev @3040
    _ZN4giac23facteur_polynome_sort_tclERKNS_7facteurINS_6tensorINS_3genEEEEES7_ @3041
    _ZN4giac23fast_divide_by_icontentERKNS_3genES2_ @3042
    _ZN4giac23gnuplot_pixels_per_evalE @3043 DATA
    _ZN4giac23inputform_post_analysisERKNS_15dbgprint_vectorINS_3genEEERKS1_PKNS_7contextE @3044
    _ZN4giac23integrate_without_lnabsERKNS_3genES2_PKNS_7contextE @3045
    _ZN4giac23islesscomplexthanf_sortEN9__gnu_cxx17__normal_iteratorIPNS_3genESt6vectorIS2_SaIS2_EEEES7_ @3046
    _ZN4giac23lexer_close_parenthesisEPKNS_7contextE @3047
    _ZN4giac23lexer_close_parenthesisEbPKNS_7contextE @3048
    _ZN4giac23limit_tractable_replaceEv @3049
    _ZN4giac23linear_integrate_nostepERKNS_3genES2_RS0_iPKNS_7contextE @3050
    _ZN4giac23matrix_unsigned2matriceERKSt6vectorIS0_IjSaIjEESaIS2_EERNS_15dbgprint_vectorINS_3genEEE @3051
    _ZN4giac23notexprint_plot_sommetsE @3052 DATA
    _ZN4giac23perpendiculaire_communeERKNS_3genES2_RS0_S3_RNS_15dbgprint_vectorIS0_EEPKNS_7contextE @3053
    _ZN4giac23reducef4buchbergersplitERSt6vectorIiSaIiEERKS0_IS0_ItSaItEESaIS5_EERKS0_IjSaIjEERS0_IS2_SaIS2_EERS0_INS_12coeffindex_tESaISH_EEiRS0_IxSaIxEE @3054
    _ZN4giac23symb_double_deux_pointsERKNS_3genE @3055
    _ZN4giac23tdeg_t_strictly_greaterERKNS_6tdeg_tES2_s @3056
    _ZN4giac23transpose_square_matrixERNS_13matrix_doubleE @3057
    _ZN4giac23unary_function_abstractC1EjPKc @3058
    _ZN4giac23unary_function_abstractC2EjPKc @3059
    _ZN4giac23unary_function_abstractC2EjPKcPFSsRKNS_3genES2_PKNS_7contextEESA_SA_ @3060
    _ZN4giac23unary_function_abstractC2EjPKcPKNS_18partial_derivativeE @3061
    _ZN4giac23unary_function_abstractC2EjPKcPKNS_18partial_derivativeEPFNS_3genERKS6_iRKNS_18unary_function_ptrEiRS6_PKNS_7contextEE @3062
    _ZN4giac23unary_function_abstractC2EjPKcPKNS_18partial_derivativeEPFNS_3genERKS6_iRKNS_18unary_function_ptrEiRS6_PKNS_7contextEEPFSsS8_S2_SF_ESJ_SJ_ @3063
    _ZN4giac23unary_function_abstractC2EjPKcPKNS_18partial_derivativeEPFSsRKNS_3genES2_PKNS_7contextEESD_SD_ @3064
    _ZN4giac23unary_function_abstractC2EjRKSs @3065
    _ZN4giac23unary_function_abstractC2EjRKSsPFSsRKNS_3genEPKcPKNS_7contextEESC_SC_ @3066
    _ZN4giac23unary_function_abstractD0Ev @3067
    _ZN4giac23unary_function_abstractD1Ev @3068
    _ZN4giac23unary_function_abstractD2Ev @3069
    _ZN4giac23unary_function_constantC1EjRKNS_3genE @3070
    _ZN4giac23unary_function_constantD0Ev @3071
    _ZN4giac23unary_function_constantD1Ev @3072
    _ZN4giac23upper_incomplete_gammadEddb @3073
    _ZN4giac23vecteur2vector_polynomeERKNS_15dbgprint_vectorINS_3genEEES4_RNS_8vectpolyE @3074
    _ZN4giac23vector_unsigned2vecteurERKSt6vectorIjSaIjEERNS_15dbgprint_vectorINS_3genEEE @3075
    _ZN4giac24NEWTON_DEFAULT_ITERATIONE @3076 DATA
    _ZN4giac24_perpendiculaire_communeERKNS_3genEPKNS_7contextE @3077
    _ZN4giac24alias_at_ampersand_timesE @3078 DATA
    _ZN4giac24bi_linear_combination_ACEdRSt6vectorIdSaIdEEdS3_ii @3079
    _ZN4giac24bi_linear_combination_CAEdRSt6vectorIdSaIdEEdS3_ii @3080
    _ZN4giac24builtin_lexer_functions_E @3081 DATA
    _ZN4giac24hypersphere2hypersurfaceERKNS_3genE @3082
    _ZN4giac24implicittex_plot_sommetsE @3083 DATA
    _ZN4giac24in_gbasisf4buchbergermodERNS_11vectpolymodEjRSt6vectorIjSaIjEEibPS2_ISt4pairIjjESaIS7_EEPS2_INS_6info_tESaISB_EEb @3084
    _ZN4giac24in_gbasisf4buchbergermodERNS_9vectpoly8ERNS_11vectpolymodERSt6vectorIjSaIjEEibPS4_ISt4pairIjjESaIS9_EEPS4_INS_6info_tESaISD_EEb @3085
    _ZN4giac24inter2cercles_or_spheresERKNS_3genES2_S2_S2_bPKNS_7contextE @3086
    _ZN4giac24intercartesianparametricERKNS_3genES2_RNS_15dbgprint_vectorIS0_EEPKNS_7contextE @3087
    _ZN4giac24is_discrete_distributionEi @3088
    _ZN4giac24is_irreducible_primitiveERKNS_15dbgprint_vectorINS_3genEEERKS1_RS2_bPKNS_7contextE @3089
    _ZN4giac24lexer_functions_registerERKNS_18unary_function_ptrEPKci @3090
    _ZN4giac24lexer_tab_int_values_endE @3091 DATA
    _ZN4giac24nosplit_polygon_functionE @3092 DATA
    _ZN4giac24polynome_or_sparse_poly1ERKNS_3genES2_ @3093
    _ZN4giac24reducef4buchbergersplitsERSt6vectorIiSaIiEERKS0_IS0_ItSaItEESaIS5_EERS0_IS2_SaIS2_EERS0_INS_12coeffindex_tESaISD_EEiRS0_IxSaIxEE @3094
    _ZN4giac24reducef4buchbergersplituERSt6vectorIiSaIiEERKS0_IS0_IjSaIjEESaIS5_EERS0_IS2_SaIS2_EERS0_INS_12coeffindex_tESaISD_EEiRS0_IxSaIxEE @3095
    _ZN4giac24smallmulpoly_interpolateINS_3genEjEEvRKSt6vectorINS_10T_unsignedIT_T0_EESaIS6_EESA_RS8_RKS2_IS5_SaIS5_EERKS2_IsSaIsEE @3096
    _ZN4giac24smallmulpoly_interpolateINS_3genEjEEvRKSt6vectorINS_10T_unsignedIT_T0_EESaIS6_EESA_RS8_RKS2_IsSaIsEE @3097
    _ZN4giac24smallmulpoly_interpolateIijEEvRKSt6vectorINS_10T_unsignedIT_T0_EESaIS5_EES9_RS7_RKS1_IS4_SaIS4_EERKS1_IsSaIsEEi @3098
    _ZN4giac24smallmulpoly_interpolateIijEEvRKSt6vectorINS_10T_unsignedIT_T0_EESaIS5_EES9_RS7_RKS1_IsSaIsEEi @3099
    _ZN4giac24texprintsommetasoperatorERKNS_3genEPKcPKNS_7contextE @3100
    _ZN4giac24transformation_functionsE @3101 DATA
    _ZN4giac24type_operator_plus_timesERKNS_3genES2_RS0_ @3102
    _ZN4giac24type_operator_plus_timesERKSt6vectorIiSaIiEES4_RS2_ @3103
    _ZN4giac24type_operator_plus_timesERKdS1_Rd @3104
    _ZN4giac24type_operator_plus_timesERKiS1_Ri @3105
    _ZN4giac24type_operator_plus_timesERKxS1_Rx @3106
    _ZN4giac24unarchive_session_stringERKSsiRKNS_3genEPKNS_7contextE @3107
    _ZN4giac24unary_function_innerprodC1EjRKSt6vectorIiSaIiEE @3108
    _ZN4giac24unary_function_innerprodD0Ev @3109
    _ZN4giac24unary_function_innerprodD1Ev @3110
    _ZN4giac24vecteur_2_vectvector_intERKNS_15dbgprint_vectorINS_3genEEE @3111
    _ZN4giac24vectvector_int_2_vecteurERKSt6vectorIS0_IiSaIiEESaIS2_EE @3112
    _ZN4giac25_logistic_regression_plotERKNS_3genEPKNS_7contextE @3113
    _ZN4giac25alias_at_inferieur_strictE @3114 DATA
    _ZN4giac25alias_at_superieur_strictE @3115 DATA
    _ZN4giac25at_lower_incomplete_gammaE @3116 DATA
    _ZN4giac25at_upper_incomplete_gammaE @3117 DATA
    _ZN4giac25bi_tri_linear_combinationEddddddddRSt6vectorIdSaIdEES3_S3_S3_ii @3118
    _ZN4giac25conique_quadrique_reduiteERKNS_3genEPKNS_7contextEb @3119
    _ZN4giac25context0_thread_param_ptrEv @3120
    _ZN4giac25double_linear_combinationERSt6vectorIdSaIdEEdRKS2_ii @3121
    _ZN4giac25fl_widget_delete_functionE @3122 DATA
    _ZN4giac25hessenberg_ortho3_flush_pERNS_13matrix_doubleEbRSt6vectorIdSaIdEEb @3123
    _ZN4giac25i_lex_is_strictly_greaterERKNS_7index_mES2_ @3124
    _ZN4giac25i_total_revlex_is_greaterERKNS_7index_mES2_ @3125
    _ZN4giac25last_evaled_function_nameEPKNS_7contextE @3126
    _ZN4giac25lexer_localization_vectorEv @3127
    _ZN4giac25limit_symbolic_preprocessERKNS_3genERKNS_14identificateurES2_iPKNS_7contextE @3128
    _ZN4giac25limit_tractable_functionsEv @3129
    _ZN4giac25m_lex_is_strictly_greaterINS_3genEEEbRKNS_8monomialIT_EES6_ @3130
    _ZN4giac25maple_sum_product_unquoteERNS_15dbgprint_vectorINS_3genEEEPKNS_7contextE @3131
    _ZN4giac25matrice2std_matrix_doubleERKNS_15dbgprint_vectorINS_3genEEERNS_13matrix_doubleEb @3132
    _ZN4giac25partial_derivative_oneargC1EPFNS_3genERKS1_E @3133
    _ZN4giac25partial_derivative_oneargC1EPFNS_3genERKS1_PKNS_7contextEE @3134
    _ZN4giac25partial_derivative_oneargC1ERKNS_18unary_function_ptrE @3135
    _ZN4giac25partial_derivative_oneargC2EPFNS_3genERKS1_E @3136
    _ZN4giac25partial_derivative_oneargC2EPFNS_3genERKS1_PKNS_7contextEE @3137
    _ZN4giac25partial_derivative_oneargD0Ev @3138
    _ZN4giac25partial_derivative_oneargD1Ev @3139
    _ZN4giac25regression_plot_attributsERKNS_3genERNS_15dbgprint_vectorIS0_EERbS6_PKNS_7contextE @3140
    _ZN4giac25sign_floor_ceil_round_tabE @3141 DATA
    _ZN4giac25sincostansinhcoshtanh_tabE @3142 DATA
    _ZN4giac25symb_non_recursive_normalERKNS_3genE @3143
    _ZN4giac25update_lexer_localizationERKSt6vectorIiSaIiEERSt3mapISsSsSt4lessISsESaISt4pairIKSsSsEEERSt8multimapISsNS_16localized_stringES7_SaIS8_IS9_SF_EEE @3144
    _ZN4giac26find_curve_parametrizationERKNS_3genERS0_S2_dS3_S3_bPKNS_7contextE @3145
    _ZN4giac26find_irreducible_primitiveEiibPKNS_7contextE @3146
    _ZN4giac26fl_widget_archive_functionE @3147 DATA
    _ZN4giac26francis_schur_iterate_realERNS_10std_matrixINS_3genEEEiiiS3_bPKNS_7contextE @3148
    _ZN4giac26generalized_multmatvecteurERKNS_15dbgprint_vectorINS_3genEEES4_ @3149
    _ZN4giac26i_3var_is_strictly_greaterERKNS_7index_mES2_ @3150
    _ZN4giac26i_7var_is_strictly_greaterERKNS_7index_mES2_ @3151
    _ZN4giac26islesscomplexthanf_compareC1Ev @3152
    _ZN4giac26islesscomplexthanf_compareclERKNS_3genES3_ @3153
    _ZN4giac26lexer_tab_int_values_beginE @3154 DATA
    _ZN4giac26local_sto_double_incrementEdRKNS_14identificateurEPKNS_7contextE @3155
    _ZN4giac26m_3var_is_strictly_greaterINS_3genEEEbRKNS_8monomialIT_EES6_ @3156
    _ZN4giac26m_7var_is_strictly_greaterINS_3genEEEbRKNS_8monomialIT_EES6_ @3157
    _ZN4giac26protect_find_singularitiesERKNS_3genERKNS_14identificateurEiPKNS_7contextE @3158
    _ZN4giac26registered_lexer_functionsEv @3159
    _ZN4giac26sort_vector_sparse_elementEN9__gnu_cxx17__normal_iteratorIPNS_14sparse_elementESt6vectorIS2_SaIS2_EEEES7_ @3160
    _ZN4giac26type_operator_times_reduceERKiS1_Rii @3161
    _ZN4giac26vector_of_polynome2vecteurERKNS_8vectpolyE @3162
    _ZN4giac27_coordonnees_rectangulairesERKNS_3genEPKNS_7contextE @3163
    _ZN4giac27_polynomial_regression_plotERKNS_3genEPKNS_7contextE @3164
    _ZN4giac27alias_at_double_deux_pointsE @3165 DATA
    _ZN4giac27archive_function_tab_lengthE @3166 DATA
    _ZN4giac27back_lexer_localization_mapEv @3167
    _ZN4giac27builtin_lexer_functions_endEv @3168
    _ZN4giac27convert_to_euler_mac_laurinERKNS_3genERKNS_14identificateurERS0_PKNS_7contextE @3169
    _ZN4giac27fl_widget_texprint_functionE @3170 DATA
    _ZN4giac27i_11var_is_strictly_greaterERKNS_7index_mES2_ @3171
    _ZN4giac27increment_lexer_line_numberEPKNS_7contextE @3172
    _ZN4giac27int_multilinear_combinationERSt6vectorIiSaIiEEiS3_iS3_iS3_iRKS2_iii @3173
    _ZN4giac27m_11var_is_strictly_greaterINS_3genEEEbRKNS_8monomialIT_EES6_ @3174
    _ZN4giac28_exponential_regression_plotERKNS_3genEPKNS_7contextE @3175
    _ZN4giac28_logarithmic_regression_plotERKNS_3genEPKNS_7contextE @3176
    _ZN4giac28checkreducef4buchbergersplitERSt6vectorIiSaIiEES3_RKS0_IS0_ItSaItEESaIS5_EERS0_IS2_SaIS2_EERS0_INS_12coeffindex_tESaISD_EEi @3177
    _ZN4giac28fl_widget_unarchive_functionE @3178 DATA
    _ZN4giac28rur_quotient_ideal_dimensionERKNS_11vectpolymodERNS_7polymodE @3179
    _ZN4giac28vector_giac_double_2_vecteurERKSt6vectorIdSaIdEE @3180
    _ZN4giac29MAX_COMMON_ALG_EXT_ORDER_SIZEE @3181 DATA
    _ZN4giac29builtin_lexer_functions_beginEv @3182
    _ZN4giac29find_multi_linear_combinationERSt6vectorIS0_IiSaIiEESaIS2_EEiRiS6_S6_iii @3183
    _ZN4giac29fl_widget_updatepict_functionE @3184 DATA
    _ZN4giac29hash_function_unsigned_objectC1Ev @3185
    _ZN4giac29lex_is_strictly_greater_deg_tERKSt6vectorIsSaIsEES4_ @3186
    _ZN4giac29multvectvector_int_vector_intERKSt6vectorIS0_IiSaIiEESaIS2_EERKS2_iRS2_ @3187
    _ZN4giac2EiERKNS_3genEPKNS_7contextE @3188
    _ZN4giac2EiERKNS_3genEiPKNS_7contextE @3189
    _ZN4giac2FPERKNS_3genEPKNS_7contextE @3190
    _ZN4giac2H0E @3191 DATA
    _ZN4giac2f5ERNS_8vectpolyERKNS_3genE @3192
    _ZN4giac2imERKNS_3genEPKNS_7contextE @3193
    _ZN4giac2imERKNS_6tensorINS_3genEEE @3194
    _ZN4giac2lnERKNS_3genEPKNS_7contextE @3195
    _ZN4giac2luERKNS_3genEPKNS_7contextE @3196
    _ZN4giac2onERKNS_3genES2_RS0_PKNS_7contextE @3197
    _ZN4giac2pfINS_3genEEC1ERKNS_6tensorIS1_EES6_S6_i @3198
    _ZN4giac2pfINS_3genEEC1ERKS2_ @3199
    _ZN4giac2pfINS_3genEED1Ev @3200
    _ZN4giac2pfINS_3genEEaSERKS2_ @3201
    _ZN4giac2qrERKNS_3genEPKNS_7contextE @3202
    _ZN4giac2reERKNS_3genEPKNS_7contextE @3203
    _ZN4giac2reERKNS_6tensorINS_3genEEE @3204
    _ZN4giac2reERNS_10std_matrixINS_3genEEEiPKNS_7contextE @3205
    _ZN4giac2sqERKNS_3genE @3206
    _ZN4giac30builtin_lexer_functions_numberE @3207 DATA
    _ZN4giac30builtin_lexer_functions_sortedE @3208 DATA
    _ZN4giac30double_multilinear_combinationERSt6vectorIdSaIdEEdS3_dS3_dS3_dRKS2_ii @3209
    _ZN4giac30std_matrix_gen2matrice_destroyERNS_10std_matrixINS_3genEEERNS_15dbgprint_vectorIS1_EE @3210
    _ZN4giac30vect_vecteur_2_vect_vector_intERKNS_10std_matrixINS_3genEEEiRSt6vectorIS5_IiSaIiEESaIS7_EE @3211
    _ZN4giac30vect_vector_int_2_vect_vecteurERKSt6vectorIS0_IiSaIiEESaIS2_EERNS_10std_matrixINS_3genEEE @3212
    _ZN4giac31i_total_lex_is_strictly_greaterERKNS_7index_mES2_ @3213
    _ZN4giac31m_total_lex_is_strictly_greaterINS_3genEEEbRKNS_8monomialIT_EES6_ @3214
    _ZN4giac31type_operator_plus_times_reduceERKNS_3genES2_RS0_i @3215
    _ZN4giac31type_operator_plus_times_reduceERKdS1_Rdi @3216
    _ZN4giac31type_operator_plus_times_reduceERKiS1_Rii @3217
    _ZN4giac31type_operator_plus_times_reduceERKxS1_Rxi @3218
    _ZN4giac32rref_f4buchbergermod_interreduceERNS_11vectpolymodERKSt6vectorIjSaIjEES1_S6_jRKS0_RKNS_7polymodEiRS2_IiSaIiEE @3219
    _ZN4giac32vectvector_giac_double_2_vecteurERKSt6vectorIS0_IdSaIdEESaIS2_EE @3220
    _ZN4giac33matrice2std_matrix_complex_doubleERKNS_15dbgprint_vectorINS_3genEEERNS_21matrix_complex_doubleEb @3221
    _ZN4giac34i_total_revlex_is_strictly_greaterERKNS_7index_mES2_ @3222
    _ZN4giac34increment_lexer_line_number_setcolEPvPKNS_7contextE @3223
    _ZN4giac34m_total_revlex_is_strictly_greaterINS_3genEEEbRKNS_8monomialIT_EES6_ @3224
    _ZN4giac34print_with_parenthesis_if_requiredERKNS_3genEiPKNS_7contextE @3225
    _ZN4giac34rref_f4buchbergermod_nointerreduceERNS_11vectpolymodERKSt6vectorIjSaIjEES1_S6_jRKS0_RKNS_7polymodEiRS2_IiSaIiEE @3226
    _ZN4giac36type_operator_plus_times_reduce_nockERKiS1_Rii @3227
    _ZN4giac37rref_f4buchbergermodsplit_interreduceERNS_11vectpolymodERKSt6vectorIjSaIjEES1_S6_jRKS0_RKNS_7polymodEiRS2_IiSaIiEE @3228
    _ZN4giac37std_matrix_gen2std_matrix_giac_doubleERKNS_10std_matrixINS_3genEEERNS_13matrix_doubleEb @3229
    _ZN4giac37std_matrix_giac_double2std_matrix_genERKNS_13matrix_doubleERNS_10std_matrixINS_3genEEE @3230
    _ZN4giac3AddINS_3genEEEvRNSt6vectorINS_8monomialIT_EESaIS5_EE14const_iteratorES9_S9_S9_RS7_PFbRKNS_7index_mESD_E @3231
    _ZN4giac3DivINS_3genEEEvRNSt6vectorINS_8monomialIT_EESaIS5_EE14const_iteratorES9_RKS4_RS7_ @3232
    _ZN4giac3EtaERKNS_3genEPKNS_7contextE @3233
    _ZN4giac3EtaERKNS_3genEiPKNS_7contextE @3234
    _ZN4giac3MulINS_3genEEEvRNSt6vectorINS_8monomialIT_EESaIS5_EE14const_iteratorES9_RKS4_RS7_ @3235
    _ZN4giac3MulINS_3genEEEvRNSt6vectorINS_8monomialIT_EESaIS5_EE14const_iteratorES9_S9_S9_RS7_PFbRKNS_7index_mESD_ESt26pointer_to_binary_functionIRKS5_SI_bE @3236
    _ZN4giac3PsiERKNS_3genEPKNS_7contextE @3237
    _ZN4giac3PsiERKNS_3genEiPKNS_7contextE @3238
    _ZN4giac3SubINS_3genEEEvRNSt6vectorINS_8monomialIT_EESaIS5_EE14const_iteratorES9_S9_S9_RS7_PFbRKNS_7index_mESD_E @3239
    _ZN4giac3_CiERKNS_3genEPKNS_7contextE @3240
    _ZN4giac3_EiERKNS_3genEPKNS_7contextE @3241
    _ZN4giac3_LQERKNS_3genEPKNS_7contextE @3242
    _ZN4giac3_LUERKNS_3genEPKNS_7contextE @3243
    _ZN4giac3_QRERKNS_3genEPKNS_7contextE @3244
    _ZN4giac3_SiERKNS_3genEPKNS_7contextE @3245
    _ZN4giac3_atERKNS_3genEPKNS_7contextE @3246
    _ZN4giac3_buE @3247 DATA
    _ZN4giac3_cdERKNS_3genEPKNS_7contextE @3248
    _ZN4giac3_idERKNS_3genEPKNS_7contextE @3249
    _ZN4giac3_ofERKNS_3genEPKNS_7contextE @3250
    _ZN4giac3_ouERKNS_3genEPKNS_7contextE @3251
    _ZN4giac3_sqERKNS_3genEPKNS_7contextE @3252
    _ZN4giac3absERKNS_3genEPKNS_7contextE @3253
    _ZN4giac3addERKNS_6tdeg_tES2_RS0_i @3254
    _ZN4giac3argERKNS_3genEPKNS_7contextE @3255
    _ZN4giac3axqERKNS_15dbgprint_vectorINS_3genEEES4_PKNS_7contextE @3256
    _ZN4giac3cdfEi @3257
    _ZN4giac3cosERKNS_3genEPKNS_7contextE @3258
    _ZN4giac3dbgERKNS_6tensorINS_3genEEE @3259
    _ZN4giac3ddfERKNS_15dbgprint_vectorINS_3genEEERKSt6vectorIS2_SaIS2_EEPNS_11environmentERS5_INS_7facteurIS2_EESaISD_EE @3260
    _ZN4giac3dupERNS_15dbgprint_vectorINS_3genEEE @3261
    _ZN4giac3e2rERKNS_3genERKNS_15dbgprint_vectorIS0_EEPKNS_7contextE @3262
    _ZN4giac3e2rERKNS_3genES2_PKNS_7contextE @3263
    _ZN4giac3egvERKNS_15dbgprint_vectorINS_3genEEERS2_S5_PKNS_7contextEbbb @3264
    _ZN4giac3erfERKNS_3genEPKNS_7contextE @3265
    _ZN4giac3expERKNS_3genEPKNS_7contextE @3266
    _ZN4giac3fftERKNS_15dbgprint_vectorINS_3genEEES4_RS2_PNS_11environmentE @3267
    _ZN4giac3fftERKNS_3genEiPKNS_7contextE @3268
    _ZN4giac3gcdERKNS_15dbgprint_vectorINS_3genEEES4_PNS_11environmentE @3269
    _ZN4giac3gcdERKNS_3genES2_ @3270
    _ZN4giac3gcdERKNS_3genES2_PKNS_7contextE @3271
    _ZN4giac3gcdERKNS_6tensorINS_3genEEES4_ @3272
    _ZN4giac3gcdERKNS_6tensorINS_3genEEES4_RS2_ @3273
    _ZN4giac3gcdERKSt6vectorINS_10T_unsignedINS_3genEjEESaIS3_EES7_RS5_S8_S8_RKS0_IjSaIjEEbi @3274
    _ZN4giac3gcdEii @3275
    _ZN4giac3gen14change_subtypeEi @3276
    _ZN4giac3gen8uncoerceEv @3277
    _ZN4giac3genC1EPKNS_18unary_function_ptrEi @3278
    _ZN4giac3genC1EPKcPKNS_7contextE @3279
    _ZN4giac3genC1EPKwPKNS_7contextE @3280
    _ZN4giac3genC1EPNS_11Tref_tensorIS0_EE @3281
    _ZN4giac3genC1EPNS_11ref_vecteurEs @3282
    _ZN4giac3genC1EPNS_12ref_symbolicE @3283
    _ZN4giac3genC1EPNS_18ref_identificateurE @3284
    _ZN4giac3genC1EPNS_9ref_mpz_tE @3285
    _ZN4giac3genC1EPvs @3286
    _ZN4giac3genC1ERA1_K12__mpz_struct @3287
    _ZN4giac3genC1ERKNS_11real_objectE @3288
    _ZN4giac3genC1ERKNS_13real_intervalE @3289
    _ZN4giac3genC1ERKNS_14identificateurE @3290
    _ZN4giac3genC1ERKNS_15dbgprint_vectorINS_6monomeEEE @3291
    _ZN4giac3genC1ERKNS_15dbgprint_vectorIS0_EEs @3292
    _ZN4giac3genC1ERKNS_18unary_function_ptrEi @3293
    _ZN4giac3genC1ERKNS_4grobE @3294
    _ZN4giac3genC1ERKNS_6my_mpzE @3295
    _ZN4giac3genC1ERKNS_6tensorIS0_EE @3296
    _ZN4giac3genC1ERKNS_7eqwdataE @3297
    _ZN4giac3genC1ERKNS_8gen_userE @3298
    _ZN4giac3genC1ERKNS_8symbolicE @3299
    _ZN4giac3genC1ERKNS_9TfractionIS0_EE @3300
    _ZN4giac3genC1ERKS0_ @3301
    _ZN4giac3genC1ERKS0_S2_ @3302
    _ZN4giac3genC1ERKSsPKNS_7contextE @3303
    _ZN4giac3genC1ERKSt3mapIS0_S0_NS_10comparegenESaISt4pairIKS0_S0_EEE @3304
    _ZN4giac3genC1ERKSt7complexIdE @3305
    _ZN4giac3genC1ERKf @3306
    _ZN4giac3genC1Ed @3307
    _ZN4giac3genC1Edd @3308
    _ZN4giac3genC1Ei @3309
    _ZN4giac3genC1Eii @3310
    _ZN4giac3genC1Ej @3311
    _ZN4giac3genC1Ev @3312
    _ZN4giac3genC1Ex @3313
    _ZN4giac3genC2EPKNS_18unary_function_ptrEi @3314
    _ZN4giac3genC2EPKwPKNS_7contextE @3315
    _ZN4giac3genC2EPNS_11Tref_tensorIS0_EE @3316
    _ZN4giac3genC2EPNS_11ref_vecteurEs @3317
    _ZN4giac3genC2EPNS_12ref_symbolicE @3318
    _ZN4giac3genC2EPNS_18ref_identificateurE @3319
    _ZN4giac3genC2EPNS_9ref_mpz_tE @3320
    _ZN4giac3genC2ERA1_K12__mpz_struct @3321
    _ZN4giac3genC2ERKNS_11real_objectE @3322
    _ZN4giac3genC2ERKNS_13real_intervalE @3323
    _ZN4giac3genC2ERKNS_14identificateurE @3324
    _ZN4giac3genC2ERKNS_15dbgprint_vectorINS_6monomeEEE @3325
    _ZN4giac3genC2ERKNS_15dbgprint_vectorIS0_EEs @3326
    _ZN4giac3genC2ERKNS_18unary_function_ptrEi @3327
    _ZN4giac3genC2ERKNS_4grobE @3328
    _ZN4giac3genC2ERKNS_6my_mpzE @3329
    _ZN4giac3genC2ERKNS_6tensorIS0_EE @3330
    _ZN4giac3genC2ERKNS_7eqwdataE @3331
    _ZN4giac3genC2ERKNS_8gen_userE @3332
    _ZN4giac3genC2ERKNS_8symbolicE @3333
    _ZN4giac3genC2ERKNS_9TfractionIS0_EE @3334
    _ZN4giac3genC2ERKS0_ @3335
    _ZN4giac3genC2ERKS0_S2_ @3336
    _ZN4giac3genC2ERKSsPKNS_7contextE @3337
    _ZN4giac3genC2ERKSt3mapIS0_S0_NS_10comparegenESaISt4pairIKS0_S0_EEE @3338
    _ZN4giac3genC2ERKSt7complexIdE @3339
    _ZN4giac3genC2ERKf @3340
    _ZN4giac3genC2Edd @3341
    _ZN4giac3genC2Eii @3342
    _ZN4giac3genC2Ex @3343
    _ZN4giac3genD1Ev @3344
    _ZN4giac3genD2Ev @3345
    _ZN4giac3genaSERKS0_ @3346
    _ZN4giac3hasERKSt6vectorIsSaIsEEi @3347
    _ZN4giac3invERKNS_3genEPKNS_7contextE @3348
    _ZN4giac3lcmERKNS_15dbgprint_vectorINS_3genEEES4_PNS_11environmentE @3349
    _ZN4giac3lcmERKNS_3genES2_ @3350
    _ZN4giac3linERKNS_3genERNS_15dbgprint_vectorIS0_EEPKNS_7contextE @3351
    _ZN4giac3lllERKNS_15dbgprint_vectorINS_3genEEEPKNS_7contextE @3352
    _ZN4giac3lllERKNS_15dbgprint_vectorINS_3genEEERS2_S5_S5_PKNS_7contextE @3353
    _ZN4giac3logERKNS_3genEPKNS_7contextE @3354
    _ZN4giac3lopERKNS_3genEPKNS_18unary_function_ptrE @3355
    _ZN4giac3lopERKNS_3genERKNS_18unary_function_ptrE @3356
    _ZN4giac3lopERKNS_3genERKSt6vectorIPKNS_18unary_function_ptrESaIS6_EE @3357
    _ZN4giac3maxERKNS_3genES2_PKNS_7contextE @3358
    _ZN4giac3maxEiii @3359
    _ZN4giac3minERKNS_3genES2_PKNS_7contextE @3360
    _ZN4giac3mluERKNS_15dbgprint_vectorINS_3genEEERS2_S5_S5_PKNS_7contextE @3361
    _ZN4giac3modERSt6vectorIS0_IiSaIiEESaIS2_EEi @3362
    _ZN4giac3modERSt6vectorIiSaIiEEi @3363
    _ZN4giac3modERiiii @3364
    _ZN4giac3nanEv @3365
    _ZN4giac3oneEv @3366
    _ZN4giac3ou2ERKNS_3genES2_ @3367
    _ZN4giac3pf1C1ERKNS_6tensorINS_3genEEES5_S5_i @3368
    _ZN4giac3pf1C1ERKS0_ @3369
    _ZN4giac3pf1D1Ev @3370
    _ZN4giac3pf1aSERKS0_ @3371
    _ZN4giac3powERKNS_3genES2_PKNS_7contextE @3372
    _ZN4giac3powERKNS_3genEi @3373
    _ZN4giac3powERKNS_3genEm @3374
    _ZN4giac3powERKNS_6tensorINS_3genEEERKS1_ @3375
    _ZN4giac3powERKNS_6tensorINS_3genEEEi @3376
    _ZN4giac3powEmm @3377
    _ZN4giac3powINS_3genEEENS_9TfractionIT_EERKS4_i @3378
    _ZN4giac3ppzERNS_15dbgprint_vectorINS_3genEEE @3379
    _ZN4giac3ppzERNS_6tensorINS_3genEEEb @3380
    _ZN4giac3ppzERNS_8vectpolyE @3381
    _ZN4giac3qxaERKNS_3genERKNS_15dbgprint_vectorIS0_EEPKNS_7contextE @3382
    _ZN4giac3r2eERKNS_3genERKNS_15dbgprint_vectorIS0_EEPKNS_7contextE @3383
    _ZN4giac3r2eERKNS_3genES2_PKNS_7contextE @3384
    _ZN4giac3sinERKNS_3genEPKNS_7contextE @3385
    _ZN4giac3stoERKNS_3genES2_PKNS_7contextE @3386
    _ZN4giac3stoERKNS_3genES2_bPKNS_7contextE @3387
    _ZN4giac3subERSt6vectorIiSaIiEERKS2_i @3388
    _ZN4giac3sumERKNS_3genES2_RS0_PKNS_7contextE @3389
    _ZN4giac3sumERKNS_3genES2_S2_S2_PKNS_7contextE @3390
    _ZN4giac3sxaERKNS_15dbgprint_vectorINS_3genEEES4_PKNS_7contextE @3391
    _ZN4giac3tanERKNS_3genEPKNS_7contextE @3392
    _ZN4giac3triERKSt4pairIPKcNS_3genEES6_ @3393
    _ZN4giac3triERKSt6vectorINS_14sparse_elementESaIS1_EES5_ @3394
    _ZN4giac3vasERKNS_15dbgprint_vectorINS_3genEEEPKNS_7contextE @3395
    _ZN4giac3vasERKNS_15dbgprint_vectorINS_3genEEERKS1_S6_dRS2_bPKNS_7contextE @3396
    _ZN4giac40std_matrix_complex_double2std_matrix_genERKNS_21matrix_complex_doubleERNS_10std_matrixINS_3genEEE @3397
    _ZN4giac40std_matrix_gen2std_matrix_complex_doubleERKNS_10std_matrixINS_3genEEERNS_21matrix_complex_doubleEb @3398
    _ZN4giac4BetaERKNS_3genES2_PKNS_7contextE @3399
    _ZN4giac4IquoERKNS_3genES2_ @3400
    _ZN4giac4ROLLEiPKNS_7contextE @3401
    _ZN4giac4SWAPEPKNS_7contextE @3402
    _ZN4giac4TpowINS_3genEEENS_6tensorIT_EERKS4_i @3403
    _ZN4giac4TppzINS_3genEEET_RNS_6tensorIS2_EEb @3404
    _ZN4giac4UTPCERKNS_3genES2_PKNS_7contextE @3405
    _ZN4giac4UTPFERKNS_3genES2_S2_PKNS_7contextE @3406
    _ZN4giac4UTPTERKNS_3genES2_PKNS_7contextE @3407
    _ZN4giac4ZetaERKNS_3genEPKNS_7contextE @3408
    _ZN4giac4ZetaERKNS_3genEiPKNS_7contextE @3409
    _ZN4giac4_ABSERKNS_3genEPKNS_7contextE @3410
    _ZN4giac4_ARCERKNS_3genEPKNS_7contextE @3411
    _ZN4giac4_AnsERKNS_3genEPKNS_7contextE @3412
    _ZN4giac4_Ci0ERKNS_3genEPKNS_7contextE @3413
    _ZN4giac4_ColERKNS_3genEPKNS_7contextE @3414
    _ZN4giac4_DUPERKNS_3genEPKNS_7contextE @3415
    _ZN4giac4_DetERKNS_3genEPKNS_7contextE @3416
    _ZN4giac4_Ei0ERKNS_3genEPKNS_7contextE @3417
    _ZN4giac4_EtaERKNS_3genEPKNS_7contextE @3418
    _ZN4giac4_GalE @3419 DATA
    _ZN4giac4_GcdERKNS_3genEPKNS_7contextE @3420
    _ZN4giac4_INTERKNS_3genEPKNS_7contextE @3421
    _ZN4giac4_IntERKNS_3genEPKNS_7contextE @3422
    _ZN4giac4_LOGERKNS_3genEPKNS_7contextE @3423
    _ZN4giac4_LSQERKNS_3genEPKNS_7contextE @3424
    _ZN4giac4_NOPERKNS_3genEPKNS_7contextE @3425
    _ZN4giac4_POSERKNS_3genEPKNS_7contextE @3426
    _ZN4giac4_PsiERKNS_3genEPKNS_7contextE @3427
    _ZN4giac4_QuoERKNS_3genEPKNS_7contextE @3428
    _ZN4giac4_RCLERKNS_3genEPKNS_7contextE @3429
    _ZN4giac4_RemERKNS_3genEPKNS_7contextE @3430
    _ZN4giac4_RowERKNS_3genEPKNS_7contextE @3431
    _ZN4giac4_SUBERKNS_3genEPKNS_7contextE @3432
    _ZN4giac4_SVDERKNS_3genEPKNS_7contextE @3433
    _ZN4giac4_SVLERKNS_3genEPKNS_7contextE @3434
    _ZN4giac4_SumERKNS_3genEPKNS_7contextE @3435
    _ZN4giac4_VASERKNS_3genEPKNS_7contextE @3436
    _ZN4giac4__buE @3437 DATA
    _ZN4giac4_a2qERKNS_3genEPKNS_7contextE @3438
    _ZN4giac4_absERKNS_3genEPKNS_7contextE @3439
    _ZN4giac4_algERKNS_3genEPKNS_7contextE @3440
    _ZN4giac4_andERKNS_3genEPKNS_7contextE @3441
    _ZN4giac4_ansERKNS_3genEPKNS_7contextE @3442
    _ZN4giac4_arcERKNS_3genEPKNS_7contextE @3443
    _ZN4giac4_ascERKNS_3genEPKNS_7contextE @3444
    _ZN4giac4_capERKNS_3genEPKNS_7contextE @3445
    _ZN4giac4_catERKNS_3genEPKNS_7contextE @3446
    _ZN4giac4_cdfERKNS_3genEPKNS_7contextE @3447
    _ZN4giac4_colERKNS_3genEPKNS_7contextE @3448
    _ZN4giac4_cotERKNS_3genEPKNS_7contextE @3449
    _ZN4giac4_cscERKNS_3genEPKNS_7contextE @3450
    _ZN4giac4_detERKNS_3genEPKNS_7contextE @3451
    _ZN4giac4_dfcERKNS_3genEPKNS_7contextE @3452
    _ZN4giac4_dimERKNS_3genEPKNS_7contextE @3453
    _ZN4giac4_e2rERKNS_3genEPKNS_7contextE @3454
    _ZN4giac4_egvERKNS_3genEPKNS_7contextE @3455
    _ZN4giac4_erfERKNS_3genEPKNS_7contextE @3456
    _ZN4giac4_estERKNS_3genERKPFS0_S2_PKNS_7contextEES5_ @3457
    _ZN4giac4_fftERKNS_3genEPKNS_7contextE @3458
    _ZN4giac4_forERKNS_3genEPKNS_7contextE @3459
    _ZN4giac4_gcdERKNS_3genEPKNS_7contextE @3460
    _ZN4giac4_hasERKNS_3genEPKNS_7contextE @3461
    _ZN4giac4_idnERKNS_3genEPKNS_7contextE @3462
    _ZN4giac4_intERKNS_3genEPKNS_7contextE @3463
    _ZN4giac4_invERKNS_3genEPKNS_7contextE @3464
    _ZN4giac4_kerERKNS_3genEPKNS_7contextE @3465
    _ZN4giac4_lcmERKNS_3genEPKNS_7contextE @3466
    _ZN4giac4_lhsERKNS_3genEPKNS_7contextE @3467
    _ZN4giac4_linERKNS_3genEPKNS_7contextE @3468
    _ZN4giac4_lllERKNS_3genEPKNS_7contextE @3469
    _ZN4giac4_mapERKNS_3genEPKNS_7contextE @3470
    _ZN4giac4_maxERKNS_3genEPKNS_7contextE @3471
    _ZN4giac4_mgfERKNS_3genEPKNS_7contextE @3472
    _ZN4giac4_midERKNS_3genEPKNS_7contextE @3473
    _ZN4giac4_minERKNS_3genEPKNS_7contextE @3474
    _ZN4giac4_negERKNS_3genEPKNS_7contextE @3475
    _ZN4giac4_nopERKNS_3genEPKNS_7contextE @3476
    _ZN4giac4_notERKNS_3genEPKNS_7contextE @3477
    _ZN4giac4_oddERKNS_3genEPKNS_7contextE @3478
    _ZN4giac4_ordERKNS_3genEPKNS_7contextE @3479
    _ZN4giac4_pntERKNS_3genEPKNS_7contextE @3480
    _ZN4giac4_powERKNS_3genEPKNS_7contextE @3481
    _ZN4giac4_pwdERKNS_3genEPKNS_7contextE @3482
    _ZN4giac4_q2aERKNS_3genEPKNS_7contextE @3483
    _ZN4giac4_quoERKNS_3genEPKNS_7contextE @3484
    _ZN4giac4_r2eERKNS_3genEPKNS_7contextE @3485
    _ZN4giac4_refERKNS_3genEPKNS_7contextE @3486
    _ZN4giac4_remERKNS_3genEPKNS_7contextE @3487
    _ZN4giac4_rhsERKNS_3genEPKNS_7contextE @3488
    _ZN4giac4_rowERKNS_3genEPKNS_7contextE @3489
    _ZN4giac4_rpnERKNS_3genEPKNS_7contextE @3490
    _ZN4giac4_secERKNS_3genEPKNS_7contextE @3491
    _ZN4giac4_seqERKNS_3genEPKNS_7contextE @3492
    _ZN4giac4_sstERKNS_3genEPKNS_7contextE @3493
    _ZN4giac4_stoERKNS_3genEPKNS_7contextE @3494
    _ZN4giac4_sumERKNS_3genEPKNS_7contextE @3495
    _ZN4giac4_svdERKNS_3genEPKNS_7contextE @3496
    _ZN4giac4_svgERKNS_3genEPKNS_7contextE @3497
    _ZN4giac4_texE @3498 DATA
    _ZN4giac4_trnERKNS_3genEPKNS_7contextE @3499
    _ZN4giac4_xorERKNS_3genEPKNS_7contextE @3500
    _ZN4giac4_zipERKNS_3genEPKNS_7contextE @3501
    _ZN4giac4acosERKNS_3genEPKNS_7contextE @3502
    _ZN4giac4aideC1ERKS0_ @3503
    _ZN4giac4aideC1Ev @3504
    _ZN4giac4aideD1Ev @3505
    _ZN4giac4aideaSERKS0_ @3506
    _ZN4giac4and2ERKNS_3genES2_ @3507
    _ZN4giac4asinERKNS_3genEPKNS_7contextE @3508
    _ZN4giac4atanERKNS_3genEPKNS_7contextE @3509
    _ZN4giac4bindERKNS_15dbgprint_vectorINS_3genEEES4_RPNS_7contextE @3510
    _ZN4giac4combERKNS_3genES2_PKNS_7contextE @3511
    _ZN4giac4combEmm @3512
    _ZN4giac4coneERKNS_3genEbPKNS_7contextE @3513
    _ZN4giac4conjERKNS_3genEPKNS_7contextE @3514
    _ZN4giac4conjERKNS_6tensorINS_3genEEE @3515
    _ZN4giac4coshERKNS_3genEPKNS_7contextE @3516
    _ZN4giac4dropERNS_15dbgprint_vectorINS_3genEEE @3517
    _ZN4giac4egcdERKNS_15dbgprint_vectorINS_3genEEES4_PNS_11environmentERS2_S7_S7_ @3518
    _ZN4giac4egcdERKNS_3genES2_RS0_S3_S3_ @3519
    _ZN4giac4egcdERKNS_6tensorINS_3genEEES4_RS2_S5_S5_ @3520
    _ZN4giac4egcdERKSt6vectorINS_15dbgprint_vectorINS_3genEEESaIS3_EEPNS_11environmentERS5_ @3521
    _ZN4giac4erfcERKNS_3genEPKNS_7contextE @3522
    _ZN4giac4evalERKNS_3genEPKNS_7contextE @3523
    _ZN4giac4evalERKNS_3genEiPKNS_7contextE @3524
    _ZN4giac4findERKSt6vectorINS_7index_mESaIS1_EERKS1_ @3525
    _ZN4giac4fxndERKNS_3genE @3526
    _ZN4giac4fxndERKNS_3genERS0_S3_ @3527
    _ZN4giac4grepEP6_iobufRKSs @3528
    _ZN4giac4grepERKSsS1_ @3529
    _ZN4giac4icdfEi @3530
    _ZN4giac4ifteERKNS_3genEbPKNS_7contextE @3531
    _ZN4giac4iquoERKNS_3genES2_ @3532
    _ZN4giac4iremERKNS_3genES2_ @3533
    _ZN4giac4iremERKNS_3genES2_RS0_ @3534
    _ZN4giac4is3dERKNS_3genE @3535
    _ZN4giac4isomERKNS_15dbgprint_vectorINS_3genEEEPKNS_7contextE @3536
    _ZN4giac4lgcdERKNS_15dbgprint_vectorINS_3genEEE @3537
    _ZN4giac4lgcdERKNS_6tensorINS_3genEEE @3538
    _ZN4giac4lrdmERNS_15dbgprint_vectorINS_3genEEEi @3539
    _ZN4giac4lvarERKNS_15dbgprint_vectorINS_3genEEERS2_ @3540
    _ZN4giac4lvarERKNS_15dbgprint_vectorINS_6monomeEEERNS0_INS_3genEEE @3541
    _ZN4giac4lvarERKNS_3genE @3542
    _ZN4giac4lvarERKNS_3genERNS_15dbgprint_vectorIS0_EE @3543
    _ZN4giac4m_piEPKNS_7contextE @3544
    _ZN4giac4m_piEi @3545
    _ZN4giac4mdetERKNS_15dbgprint_vectorINS_3genEEEPKNS_7contextE @3546
    _ZN4giac4meanERKNS_15dbgprint_vectorINS_3genEEEb @3547
    _ZN4giac4megvERKNS_15dbgprint_vectorINS_3genEEEPKNS_7contextE @3548
    _ZN4giac4midnEi @3549
    _ZN4giac4midnEiRNS_15dbgprint_vectorINS_3genEEE @3550
    _ZN4giac4minvERKNS_15dbgprint_vectorINS_3genEEEPKNS_7contextE @3551
    _ZN4giac4minvERKNS_15dbgprint_vectorINS_3genEEERS2_biPKNS_7contextE @3552
    _ZN4giac4mkerERKNS_15dbgprint_vectorINS_3genEEEPKNS_7contextE @3553
    _ZN4giac4mkerERKNS_15dbgprint_vectorINS_3genEEERS2_PKNS_7contextE @3554
    _ZN4giac4mkerERKNS_15dbgprint_vectorINS_3genEEERS2_iPKNS_7contextE @3555
    _ZN4giac4normERKNS_15dbgprint_vectorINS_3genEEEPKNS_7contextE @3556
    _ZN4giac4overERNS_15dbgprint_vectorINS_3genEEE @3557
    _ZN4giac4paddERKNS_15dbgprint_vectorINS_6monomeEEES4_RS2_PKNS_7contextE @3558
    _ZN4giac4pdivERKNS_15dbgprint_vectorINS_6monomeEEERKNS_3genERS2_PKNS_7contextE @3559
    _ZN4giac4pdivERKNS_15dbgprint_vectorINS_6monomeEEES4_RS2_iPKNS_7contextE @3560
    _ZN4giac4permERKNS_3genES2_ @3561
    _ZN4giac4permEmm @3562
    _ZN4giac4pickEiRNS_15dbgprint_vectorINS_3genEEE @3563
    _ZN4giac4pmulERKNS_15dbgprint_vectorINS_6monomeEEERKNS_3genERS2_PKNS_7contextE @3564
    _ZN4giac4pmulERKNS_15dbgprint_vectorINS_6monomeEEES4_RS2_bRKNS_3genEPKNS_7contextE @3565
    _ZN4giac4pmulERKNS_3genERKNS_15dbgprint_vectorINS_6monomeEEERS5_PKNS_7contextE @3566
    _ZN4giac4pnegERKNS_15dbgprint_vectorINS_6monomeEEERS2_PKNS_7contextE @3567
    _ZN4giac4ppowERKNS_15dbgprint_vectorINS_6monomeEEERKNS_3genEiiRS2_PKNS_7contextE @3568
    _ZN4giac4ppowERKNS_15dbgprint_vectorINS_6monomeEEEiiRS2_PKNS_7contextE @3569
    _ZN4giac4prodERKNS_3genES2_ @3570
    _ZN4giac4quadERiRKNS_3genERKNS_15dbgprint_vectorIS1_EEPKNS_7contextE @3571
    _ZN4giac4qxacERKNS_3genERKNS_15dbgprint_vectorIS0_EEPKNS_7contextE @3572
    _ZN4giac4rdivERKNS_3genES2_PKNS_7contextE @3573
    _ZN4giac4reimERKNS_3genERS0_S3_PKNS_7contextE @3574
    _ZN4giac4rollEiRNS_15dbgprint_vectorINS_3genEEE @3575
    _ZN4giac4rrdmERNS_15dbgprint_vectorINS_3genEEEi @3576
    _ZN4giac4rrefERSt6vectorINS_6line_tESaIS1_EEiii @3577
    _ZN4giac4signERKNS_3genEPKNS_7contextE @3578
    _ZN4giac4sinhERKNS_3genEPKNS_7contextE @3579
    _ZN4giac4smodERKNS_15dbgprint_vectorINS_3genEEERKS1_ @3580
    _ZN4giac4smodERKNS_15dbgprint_vectorINS_3genEEERKS1_RS2_ @3581
    _ZN4giac4smodERKNS_3genES2_ @3582
    _ZN4giac4smodERKNS_6my_mpzEi @3583
    _ZN4giac4smodERKNS_6tensorINS_3genEEERKS1_ @3584
    _ZN4giac4smodERKNS_6tensorINS_3genEEERKS1_RS2_ @3585
    _ZN4giac4smodERNS_11vectpolymodEi @3586
    _ZN4giac4smodERNS_7polymodEi @3587
    _ZN4giac4smodEii @3588
    _ZN4giac4smodExi @3589
    _ZN4giac4smodExx @3590
    _ZN4giac4sqffERKNS_6tensorINS_3genEEE @3591
    _ZN4giac4sqrtERKNS_3genEPKNS_7contextE @3592
    _ZN4giac4surdERKNS_3genEiPKNS_7contextE @3593
    _ZN4giac4swapIjEEvRPT_S3_ @3594
    _ZN4giac4symsEv @3595
    _ZN4giac4tanhERKNS_3genEPKNS_7contextE @3596
    _ZN4giac4tlinERKNS_3genERNS_15dbgprint_vectorIS0_EEPKNS_7contextE @3597
    _ZN4giac4tri1ERKNS_18lexer_tab_int_typeES2_ @3598
    _ZN4giac4tri2EPKcS1_ @3599
    _ZN4giac4trimERKNS_15dbgprint_vectorINS_3genEEEPNS_11environmentE @3600
    _ZN4giac4xeffC1Edd @3601
    _ZN4giac4xor2ERKNS_3genES2_PKNS_7contextE @3602
    _ZN4giac4zeroE @3603 DATA
    _ZN4giac5ApplyINS_3genEEEvRNSt6vectorINS_8monomialIT_EESaIS5_EE14const_iteratorERKS8_PFS4_RKS4_ERS7_ @3604
    _ZN4giac5GammaERKNS_3genEPKNS_7contextE @3605
    _ZN4giac5ROLLDEiPKNS_7contextE @3606
    _ZN4giac5ShiftINS_3genEEEvRKSt6vectorINS_8monomialIT_EESaIS5_EERKNS_7index_mERKS4_RS7_ @3607
    _ZN4giac5ShiftINS_3genEEEvRKSt6vectorINS_8monomialIT_EESaIS5_EERKNS_7index_mERS7_ @3608
    _ZN4giac5TlgcdINS_3genEEENS_6tensorIT_EERKS4_ @3609
    _ZN4giac5TlgcdINS_3genEEEvRKNS_6tensorIT_EERS4_ @3610
    _ZN4giac5_BetaERKNS_3genEPKNS_7contextE @3611
    _ZN4giac5_CONDERKNS_3genEPKNS_7contextE @3612
    _ZN4giac5_DISPERKNS_3genEPKNS_7contextE @3613
    _ZN4giac5_DROPERKNS_3genEPKNS_7contextE @3614
    _ZN4giac5_Ei_fERKNS_3genEPKNS_7contextE @3615
    _ZN4giac5_ExecERKNS_3genEPKNS_7contextE @3616
    _ZN4giac5_FillERKNS_3genEPKNS_7contextE @3617
    _ZN4giac5_HMSXERKNS_3genEPKNS_7contextE @3618
    _ZN4giac5_IFTEERKNS_3genEPKNS_7contextE @3619
    _ZN4giac5_LINEERKNS_3genEPKNS_7contextE @3620
    _ZN4giac5_LNP1ERKNS_3genEPKNS_7contextE @3621
    _ZN4giac5_LineERKNS_3genEPKNS_7contextE @3622
    _ZN4giac5_MANTERKNS_3genEPKNS_7contextE @3623
    _ZN4giac5_OVERERKNS_3genEPKNS_7contextE @3624
    _ZN4giac5_PICKERKNS_3genEPKNS_7contextE @3625
    _ZN4giac5_PtOnERKNS_3genEPKNS_7contextE @3626
    _ZN4giac5_RECTERKNS_3genEPKNS_7contextE @3627
    _ZN4giac5_ROLLERKNS_3genEPKNS_7contextE @3628
    _ZN4giac5_RankERKNS_3genEPKNS_7contextE @3629
    _ZN4giac5_RrefERKNS_3genEPKNS_7contextE @3630
    _ZN4giac5_SIZEERKNS_3genEPKNS_7contextE @3631
    _ZN4giac5_SWAPERKNS_3genEPKNS_7contextE @3632
    _ZN4giac5_TextERKNS_3genEPKNS_7contextE @3633
    _ZN4giac5_UTPCERKNS_3genEPKNS_7contextE @3634
    _ZN4giac5_UTPFERKNS_3genEPKNS_7contextE @3635
    _ZN4giac5_UTPNERKNS_3genEPKNS_7contextE @3636
    _ZN4giac5_UTPTERKNS_3genEPKNS_7contextE @3637
    _ZN4giac5_VARSERKNS_3genEPKNS_7contextE @3638
    _ZN4giac5_XHMSERKNS_3genEPKNS_7contextE @3639
    _ZN4giac5_XPONERKNS_3genEPKNS_7contextE @3640
    _ZN4giac5_ZetaERKNS_3genEPKNS_7contextE @3641
    _ZN4giac5__ColE @3642 DATA
    _ZN4giac5__GalE @3643 DATA
    _ZN4giac5__RowE @3644 DATA
    _ZN4giac5__powE @3645 DATA
    _ZN4giac5__stoE @3646 DATA
    _ZN4giac5__texE @3647 DATA
    _ZN4giac5_acotERKNS_3genEPKNS_7contextE @3648
    _ZN4giac5_acscERKNS_3genEPKNS_7contextE @3649
    _ZN4giac5_aireERKNS_3genEPKNS_7contextE @3650
    _ZN4giac5_argsERKNS_3genEPKNS_7contextE @3651
    _ZN4giac5_asecERKNS_3genEPKNS_7contextE @3652
    _ZN4giac5_backERKNS_3genEPKNS_7contextE @3653
    _ZN4giac5_blocERKNS_3genEPKNS_7contextE @3654
    _ZN4giac5_buUSE @3655 DATA
    _ZN4giac5_caseERKNS_3genEPKNS_7contextE @3656
    _ZN4giac5_ceilERKNS_3genEPKNS_7contextE @3657
    _ZN4giac5_cellERKNS_3genEPKNS_7contextE @3658
    _ZN4giac5_charERKNS_3genEPKNS_7contextE @3659
    _ZN4giac5_combERKNS_3genEPKNS_7contextE @3660
    _ZN4giac5_coneERKNS_3genEPKNS_7contextE @3661
    _ZN4giac5_contERKNS_3genEPKNS_7contextE @3662
    _ZN4giac5_copyERKNS_3genEPKNS_7contextE @3663
    _ZN4giac5_coteERKNS_3genEPKNS_7contextE @3664
    _ZN4giac5_cubeERKNS_3genEPKNS_7contextE @3665
    _ZN4giac5_curlERKNS_3genEPKNS_7contextE @3666
    _ZN4giac5_diagERKNS_3genEPKNS_7contextE @3667
    _ZN4giac5_egcdERKNS_3genEPKNS_7contextE @3668
    _ZN4giac5_egvlERKNS_3genEPKNS_7contextE @3669
    _ZN4giac5_erfcERKNS_3genEPKNS_7contextE @3670
    _ZN4giac5_erfsERKNS_3genEPKNS_7contextE @3671
    _ZN4giac5_evalERKNS_3genEPKNS_7contextE @3672
    _ZN4giac5_evenERKNS_3genEPKNS_7contextE @3673
    _ZN4giac5_exprERKNS_3genEPKNS_7contextE @3674
    _ZN4giac5_fMaxERKNS_3genEPKNS_7contextE @3675
    _ZN4giac5_fMinERKNS_3genEPKNS_7contextE @3676
    _ZN4giac5_findERKNS_3genEPKNS_7contextE @3677
    _ZN4giac5_fxndERKNS_3genEPKNS_7contextE @3678
    _ZN4giac5_gotoERKNS_3genEPKNS_7contextE @3679
    _ZN4giac5_gradERKNS_3genEPKNS_7contextE @3680
    _ZN4giac5_haltERKNS_3genEPKNS_7contextE @3681
    _ZN4giac5_hashERKNS_3genEPKNS_7contextE @3682
    _ZN4giac5_headERKNS_3genEPKNS_7contextE @3683
    _ZN4giac5_holdERKNS_3genEPKNS_7contextE @3684
    _ZN4giac5_hp38ERKNS_3genEPKNS_7contextE @3685
    _ZN4giac5_ibpuERKNS_3genEPKNS_7contextE @3686
    _ZN4giac5_icdfERKNS_3genEPKNS_7contextE @3687
    _ZN4giac5_ifftERKNS_3genEPKNS_7contextE @3688
    _ZN4giac5_ifteERKNS_3genEPKNS_7contextE @3689
    _ZN4giac5_iquoERKNS_3genEPKNS_7contextE @3690
    _ZN4giac5_iremERKNS_3genEPKNS_7contextE @3691
    _ZN4giac5_isomERKNS_3genEPKNS_7contextE @3692
    _ZN4giac5_killERKNS_3genEPKNS_7contextE @3693
    _ZN4giac5_leftERKNS_3genEPKNS_7contextE @3694
    _ZN4giac5_lgcdERKNS_3genEPKNS_7contextE @3695
    _ZN4giac5_lieuERKNS_3genEPKNS_7contextE @3696
    _ZN4giac5_logbERKNS_3genEPKNS_7contextE @3697
    _ZN4giac5_mRowERKNS_3genEPKNS_7contextE @3698
    _ZN4giac5_meanERKNS_3genEPKNS_7contextE @3699
    _ZN4giac5_nIntERKNS_3genEPKNS_7contextE @3700
    _ZN4giac5_openERKNS_3genEPKNS_7contextE @3701
    _ZN4giac5_padeERKNS_3genEPKNS_7contextE @3702
    _ZN4giac5_pariERKNS_3genEPKNS_7contextE @3703
    _ZN4giac5_partERKNS_3genEPKNS_7contextE @3704
    _ZN4giac5_pcarERKNS_3genEPKNS_7contextE @3705
    _ZN4giac5_permERKNS_3genEPKNS_7contextE @3706
    _ZN4giac5_planERKNS_3genEPKNS_7contextE @3707
    _ZN4giac5_plotERKNS_3genEPKNS_7contextE @3708
    _ZN4giac5_plusERKNS_3genEPKNS_7contextE @3709
    _ZN4giac5_pminERKNS_3genEPKNS_7contextE @3710
    _ZN4giac5_poleERKNS_3genEPKNS_7contextE @3711
    _ZN4giac5_pourERKNS_3genEPKNS_7contextE @3712
    _ZN4giac5_prodERKNS_3genEPKNS_7contextE @3713
    _ZN4giac5_randERKNS_3genEPKNS_7contextE @3714
    _ZN4giac5_rankERKNS_3genEPKNS_7contextE @3715
    _ZN4giac5_ranmERKNS_3genEPKNS_7contextE @3716
    _ZN4giac5_rdivERKNS_3genEPKNS_7contextE @3717
    _ZN4giac5_readERKNS_3genEPKNS_7contextE @3718
    _ZN4giac5_rondERKNS_3genEPKNS_7contextE @3719
    _ZN4giac5_rrefERKNS_3genEPKNS_7contextE @3720
    _ZN4giac5_sameERKNS_3genEPKNS_7contextE @3721
    _ZN4giac5_signERKNS_3genEPKNS_7contextE @3722
    _ZN4giac5_sizeERKNS_3genEPKNS_7contextE @3723
    _ZN4giac5_smodERKNS_3genEPKNS_7contextE @3724
    _ZN4giac5_sortERKNS_3genEPKNS_7contextE @3725
    _ZN4giac5_subsERKNS_3genEPKNS_7contextE @3726
    _ZN4giac5_surdERKNS_3genEPKNS_7contextE @3727
    _ZN4giac5_tailERKNS_3genEPKNS_7contextE @3728
    _ZN4giac5_timeERKNS_3genEPKNS_7contextE @3729
    _ZN4giac5_tlinERKNS_3genEPKNS_7contextE @3730
    _ZN4giac5_tranERKNS_3genEPKNS_7contextE @3731
    _ZN4giac5_typeERKNS_3genEPKNS_7contextE @3732
    _ZN4giac5_versERKNS_3genEPKNS_7contextE @3733
    _ZN4giac5_whenERKNS_3genEPKNS_7contextE @3734
    _ZN4giac5abcuvERKNS_3genES2_S2_S2_PKNS_7contextE @3735
    _ZN4giac5acoshERKNS_3genEPKNS_7contextE @3736
    _ZN4giac5angleERKNS_15dbgprint_vectorINS_3genEEES4_PKNS_7contextE @3737
    _ZN4giac5applyERKNS_3genEPFS0_S2_E @3738
    _ZN4giac5applyERKNS_3genEPFS0_S2_PKNS_7contextEES5_ @3739
    _ZN4giac5applyERKNS_3genEPKNS_18unary_function_ptrEPKNS_7contextE @3740
    _ZN4giac5applyERKNS_3genEPKNS_7contextERKPFS0_S2_S5_E @3741
    _ZN4giac5applyERKNS_3genERKNS_18unary_function_ptrEPKNS_7contextE @3742
    _ZN4giac5applyERKNS_3genES2_PFS0_S2_S2_E @3743
    _ZN4giac5applyERKNS_3genES2_PKNS_7contextEPFS0_S2_S2_S5_E @3744
    _ZN4giac5applyERKNS_6tensorINS_3genEEEPKNS_7contextEPFS1_RKS1_S7_E @3745
    _ZN4giac5applyERKNS_6tensorINS_3genEEERKPFS1_RKS1_E @3746
    _ZN4giac5applyESt6vectorIiSaIiEERNS_11vectpolymodE @3747
    _ZN4giac5asinhERKNS_3genEPKNS_7contextE @3748
    _ZN4giac5at_CiE @3749 DATA
    _ZN4giac5at_EiE @3750 DATA
    _ZN4giac5at_LNE @3751 DATA
    _ZN4giac5at_SiE @3752 DATA
    _ZN4giac5at_atE @3753 DATA
    _ZN4giac5at_cdE @3754 DATA
    _ZN4giac5at_etE @3755 DATA
    _ZN4giac5at_idE @3756 DATA
    _ZN4giac5at_imE @3757 DATA
    _ZN4giac5at_lnE @3758 DATA
    _ZN4giac5at_luE @3759 DATA
    _ZN4giac5at_ofE @3760 DATA
    _ZN4giac5at_ouE @3761 DATA
    _ZN4giac5at_qrE @3762 DATA
    _ZN4giac5at_reE @3763 DATA
    _ZN4giac5at_siE @3764 DATA
    _ZN4giac5at_sqE @3765 DATA
    _ZN4giac5atanhERKNS_3genEPKNS_7contextE @3766
    _ZN4giac5betadERKNS_3genES2_S2_PKNS_7contextE @3767
    _ZN4giac5binopERKNS_3genEPFS0_S2_S2_E @3768
    _ZN4giac5c1oc2ERKSt6vectorIiSaIiEES4_ @3769
    _ZN4giac5c1op2ERKSt6vectorIiSaIiEES4_ @3770
    _ZN4giac5crossERKNS_15dbgprint_vectorINS_3genEEES4_PKNS_7contextE @3771
    _ZN4giac5crossERKNS_3genES2_PKNS_7contextE @3772
    _ZN4giac5cst_GE @3773 DATA
    _ZN4giac5cst_iE @3774 DATA
    _ZN4giac5equalERKNS_3genES2_PKNS_7contextE @3775
    _ZN4giac5eulerERKNS_3genEPKNS_7contextE @3776
    _ZN4giac5evalfERKNS_3genEiPKNS_7contextE @3777
    _ZN4giac5exactERKNS_3genEPKNS_7contextE @3778
    _ZN4giac5ezgcdERKNS_6tensorINS_3genEEES4_RS2_bbid @3779
    _ZN4giac5f4modERNS_11vectpolymodERKSt6vectorIjSaIjEEiRS2_ISt4pairIjjESaIS8_EES1_bRjPSA_PS2_INS_6info_tESaISE_EESC_b @3780
    _ZN4giac5f4modERNS_11vectpolymodERKSt6vectorIjSaIjEEiRS2_ISt4pairIjjESaIS8_EES1_bRjPSA_RNS_6info_tEPS2_ISE_SaISE_EESC_bRNS_7polymodESK_ @3781
    _ZN4giac5fPartERKNS_3genEPKNS_7contextE @3782
    _ZN4giac5gaussERKNS_3genERKNS_15dbgprint_vectorIS0_EEPKNS_7contextE @3783
    _ZN4giac5gaussERKNS_3genERKNS_15dbgprint_vectorIS0_EERS4_S7_S7_PKNS_7contextE @3784
    _ZN4giac5has_iERKNS_3genE @3785
    _ZN4giac5interERKNS_3genES2_PKNS_7contextE @3786
    _ZN4giac5isqrtERKNS_3genE @3787
    _ZN4giac5lcellERKNS_3genE @3788
    _ZN4giac5leaveEiRNS_15dbgprint_vectorINS_3genEEERPNS_7contextE @3789
    _ZN4giac5lidntERKNS_3genE @3790
    _ZN4giac5lidntERKNS_3genERNS_15dbgprint_vectorIS0_EE @3791
    _ZN4giac5liftlEPNS_11environmentERNS_15dbgprint_vectorINS_3genEEERS3_RSt6vectorIS4_SaIS4_EERNS_8vectpolyE @3792
    _ZN4giac5limitERKNS_3genERKNS_14identificateurES2_iPKNS_7contextE @3793
    _ZN4giac5lnabsERKNS_3genEPKNS_7contextE @3794
    _ZN4giac5log10ERKNS_3genEPKNS_7contextE @3795
    _ZN4giac5lvarxERKNS_3genES2_b @3796
    _ZN4giac5mcolsERKNS_15dbgprint_vectorINS_3genEEE @3797
    _ZN4giac5mdimsERKNS_15dbgprint_vectorINS_3genEEERiS5_ @3798
    _ZN4giac5megvlERKNS_15dbgprint_vectorINS_3genEEEPKNS_7contextE @3799
    _ZN4giac5mmultERKNS_15dbgprint_vectorINS_3genEEES4_ @3800
    _ZN4giac5mmultERKNS_15dbgprint_vectorINS_3genEEES4_RS2_ @3801
    _ZN4giac5moyalERKNS_3genES2_S2_S2_ @3802
    _ZN4giac5mpcarERKNS_15dbgprint_vectorINS_3genEEERS2_bPKNS_7contextE @3803
    _ZN4giac5mpcarERKNS_15dbgprint_vectorINS_3genEEERS2_bbPKNS_7contextE @3804
    _ZN4giac5mranmEiiRKNS_3genEPKNS_7contextE @3805
    _ZN4giac5mrowsERKNS_15dbgprint_vectorINS_3genEEE @3806
    _ZN4giac5mrrefERKNS_15dbgprint_vectorINS_3genEEEPKNS_7contextE @3807
    _ZN4giac5mrrefERKNS_15dbgprint_vectorINS_3genEEERS2_S5_RS1_PKNS_7contextE @3808
    _ZN4giac5mrrefERKNS_15dbgprint_vectorINS_3genEEERS2_S5_RS1_iiiiiibiiPKNS_7contextE @3809
    _ZN4giac5mtranERKNS_15dbgprint_vectorINS_3genEEE @3810
    _ZN4giac5mtranERKNS_15dbgprint_vectorINS_3genEEERS2_i @3811
    _ZN4giac5mygcdEii @3812
    _ZN4giac5nbitsERKNS_3genE @3813
    _ZN4giac5nextpERKNS_3genES2_ @3814
    _ZN4giac5nfactERKSt6vectorINS_7facteurINS_15dbgprint_vectorINS_3genEEEEESaIS5_EERS0_IbSaIbEEi @3815
    _ZN4giac5p1oc2ERKSt6vectorIiSaIiEES4_ @3816
    _ZN4giac5p1op2ERKSt6vectorIiSaIiEES4_ @3817
    _ZN4giac5pa2b2ERKNS_3genEPKNS_7contextE @3818
    _ZN4giac5pevalERKNS_6tensorINS_3genEEERKNS_15dbgprint_vectorIS1_EERKS1_bPSt6vectorINS_10T_unsignedIijEESaISD_EE @3819
    _ZN4giac5poly8C1ERKNS_6tensorINS_3genEEEi @3820
    _ZN4giac5poly8C1ERKS0_ @3821
    _ZN4giac5poly8C1Eii @3822
    _ZN4giac5poly8C1Ev @3823
    _ZN4giac5poly8D1Ev @3824
    _ZN4giac5poly8aSERKS0_ @3825
    _ZN4giac5prootERKNS_15dbgprint_vectorINS_3genEEE @3826
    _ZN4giac5prootERKNS_15dbgprint_vectorINS_3genEEERdRi @3827
    _ZN4giac5prootERKNS_15dbgprint_vectorINS_3genEEEd @3828
    _ZN4giac5qr_rqERNS_10std_matrixINS_3genEEES3_RKS1_iRiPKNS_7contextE @3829
    _ZN4giac5quoteERKNS_3genEPKNS_7contextE @3830
    _ZN4giac5r2symERKNS_15dbgprint_vectorINS_3genEEES4_PKNS_7contextE @3831
    _ZN4giac5r2symERKNS_3genERKNS_15dbgprint_vectorIS0_EEPKNS_7contextE @3832
    _ZN4giac5r2symERKNS_3genERKNS_7index_mERKNS_15dbgprint_vectorIS0_EEPKNS_7contextE @3833
    _ZN4giac5r2symERKNS_6tensorINS_3genEEERKNS_15dbgprint_vectorIS1_EEPKNS_7contextE @3834
    _ZN4giac5r2symERKNS_9TfractionINS_3genEEERKNS_15dbgprint_vectorIS1_EEPKNS_7contextE @3835
    _ZN4giac5r2symERKSt6vectorINS_2pfINS_3genEEESaIS3_EERKNS_15dbgprint_vectorIS2_EEPKNS_7contextE @3836
    _ZN4giac5r2symERKSt6vectorINS_7facteurINS_6tensorINS_3genEEEEESaIS5_EERKNS_15dbgprint_vectorIS3_EEPKNS_7contextE @3837
    _ZN4giac5rischERKNS_3genERKNS_14identificateurERS0_PKNS_7contextE @3838
    _ZN4giac5rlvarERKNS_3genEb @3839
    _ZN4giac5rolldEiRNS_15dbgprint_vectorINS_3genEEE @3840
    _ZN4giac5rootsERKNS_15dbgprint_vectorINS_3genEEEPNS_11environmentERS2_RSt6vectorIS2_SaIS2_EE @3841
    _ZN4giac5scoreERKSsS1_ @3842
    _ZN4giac5sigmaERKSt6vectorIbSaIbEE @3843
    _ZN4giac5simp2ERKNS_3genES2_PKNS_7contextE @3844
    _ZN4giac5sizesERKSt6vectorIS0_IiSaIiEESaIS2_EE @3845
    _ZN4giac5smithERKNS_10std_matrixINS_3genEEERS2_S5_S5_PNS_11environmentEPKNS_7contextE @3846
    _ZN4giac5solveERKNS_15dbgprint_vectorINS_3genEEEbPKNS_7contextE @3847
    _ZN4giac5solveERKNS_3genERKNS_14identificateurERNS_15dbgprint_vectorIS0_EEiPKNS_7contextE @3848
    _ZN4giac5solveERKNS_3genERKNS_14identificateurEiPKNS_7contextE @3849
    _ZN4giac5solveERKNS_3genES2_iPKNS_7contextE @3850
    _ZN4giac5sommeERKNS_3genES2_ @3851
    _ZN4giac5sommeERKSt6vectorIiSaIiEE @3852
    _ZN4giac5sommeERKSt6vectorIiSaIiEES4_RS2_ @3853
    _ZN4giac5spaddERKNS_15dbgprint_vectorINS_6monomeEEES4_PKNS_7contextE @3854
    _ZN4giac5spdivERKNS_15dbgprint_vectorINS_6monomeEEERKNS_3genEPKNS_7contextE @3855
    _ZN4giac5spdivERKNS_15dbgprint_vectorINS_6monomeEEES4_PKNS_7contextE @3856
    _ZN4giac5splitERKNS_6tensorINS_3genEEEi @3857
    _ZN4giac5spmulERKNS_15dbgprint_vectorINS_6monomeEEERKNS_3genEPKNS_7contextE @3858
    _ZN4giac5spmulERKNS_15dbgprint_vectorINS_6monomeEEES4_PKNS_7contextE @3859
    _ZN4giac5spmulERKNS_3genERKNS_15dbgprint_vectorINS_6monomeEEEPKNS_7contextE @3860
    _ZN4giac5spnegERKNS_15dbgprint_vectorINS_6monomeEEEPKNS_7contextE @3861
    _ZN4giac5spolyERKNS_5poly8ES2_RS0_S3_PNS_11environmentE @3862
    _ZN4giac5spolyERKNS_6tensorINS_3genEEES4_PNS_11environmentE @3863
    _ZN4giac5spsubERKNS_15dbgprint_vectorINS_6monomeEEES4_PKNS_7contextE @3864
    _ZN4giac5sturmERKNS_3genES2_PKNS_7contextE @3865
    _ZN4giac5substERKNS_15dbgprint_vectorINS_3genEEERKS1_S6_bPKNS_7contextE @3866
    _ZN4giac5substERKNS_15dbgprint_vectorINS_3genEEES4_S4_bPKNS_7contextE @3867
    _ZN4giac5substERKNS_15dbgprint_vectorINS_6monomeEEERKNS_3genES7_bPKNS_7contextE @3868
    _ZN4giac5substERKNS_3genEPKNS_18unary_function_ptrEPKPFS0_S2_PKNS_7contextEEbS8_ @3869
    _ZN4giac5substERKNS_3genERKNS_15dbgprint_vectorIS0_EES6_bPKNS_7contextE @3870
    _ZN4giac5substERKNS_3genERKSt6vectorIPKNS_18unary_function_ptrESaIS6_EERKS3_IPFS0_S2_ESaISC_EEbPKNS_7contextE @3871
    _ZN4giac5substERKNS_3genERKSt6vectorIPKNS_18unary_function_ptrESaIS6_EERKS3_IPFS0_S2_PKNS_7contextEESaISF_EEbSD_ @3872
    _ZN4giac5substERKNS_3genES2_S2_bPKNS_7contextE @3873
    _ZN4giac5sumabERKNS_3genES2_S2_S2_RS0_bPKNS_7contextE @3874
    _ZN4giac5sym2rERKNS_15dbgprint_vectorINS_3genEEERKS1_S4_S4_S4_S4_iRS1_S7_PKNS_7contextE @3875
    _ZN4giac5sym2rERKNS_15dbgprint_vectorINS_3genEEES4_S4_S4_S4_iRS1_S5_PKNS_7contextE @3876
    _ZN4giac5sym2rERKNS_3genERKNS_15dbgprint_vectorIS0_EEPKNS_7contextE @3877
    _ZN4giac5sym2rERKNS_3genERKNS_15dbgprint_vectorIS0_EEiRS0_S7_PKNS_7contextE @3878
    _ZN4giac5sym2rERKNS_3genES2_RKNS_15dbgprint_vectorIS0_EES6_S6_S6_iRS0_S7_PKNS_7contextE @3879
    _ZN4giac5ticksEddb @3880
    _ZN4giac5undefE @3881 DATA
    _ZN4giac5unlinERNS_15dbgprint_vectorINS_3genEEEPKNS_7contextE @3882
    _ZN4giac5unmodERKNS_3genE @3883
    _ZN4giac5vranmEiRKNS_3genEPKNS_7contextE @3884
    _ZN4giac5vranmEiRKNS_3genERNS_15dbgprint_vectorIS0_EEPKNS_7contextE @3885
    _ZN4giac5vrowsERKNS_15dbgprint_vectorINS_3genEEE @3886
    _ZN4giac6AB2PQRERKNS_6tensorINS_3genEEES4_RS2_S5_S5_ @3887
    _ZN4giac6BesselERKNS_3genEiPKNS_7contextE @3888
    _ZN4giac6DivRemERKNS_15dbgprint_vectorINS_3genEEES4_PNS_11environmentERS2_S7_b @3889
    _ZN4giac6DivRemERKSt6vectorIiSaIiEES4_iRS2_S5_ @3890
    _ZN4giac6L1normERKNS_3genEPKNS_7contextE @3891
    _ZN4giac6ModredC1EiRKNS_15dbgprint_vectorINS_3genEEE @3892
    _ZN4giac6ModredD1Ev @3893
    _ZN4giac6RtoremERKSt6vectorINS_6tdeg_tESaIS1_EES5_RS0_IjSaIjEE @3894
    _ZN4giac6TabcuvINS_3genEEEvRKNS_6tensorIT_EES6_S6_RS4_S7_S7_ @3895
    _ZN4giac6TapplyINS_3genEEENS_6tensorIT_EERKS4_PFS3_RKS3_E @3896
    _ZN4giac6TapplyINS_3genEEEvRKNS_6tensorIT_EEPFS3_RKS3_ERS4_ @3897
    _ZN4giac6Trunc1INS_3genEEEvRKSt6vectorINS_8monomialIT_EESaIS5_EERS7_ @3898
    _ZN4giac6_ARG38ERKNS_3genEPKNS_7contextE @3899
    _ZN4giac6_ClrIOERKNS_3genEPKNS_7contextE @3900
    _ZN4giac6_DiracERKNS_3genEPKNS_7contextE @3901
    _ZN4giac6_DispGERKNS_3genEPKNS_7contextE @3902
    _ZN4giac6_EXPM1ERKNS_3genEPKNS_7contextE @3903
    _ZN4giac6_GammaERKNS_3genEPKNS_7contextE @3904
    _ZN4giac6_GcdexERKNS_3genEPKNS_7contextE @3905
    _ZN4giac6_GraphERKNS_3genEPKNS_7contextE @3906
    _ZN4giac6_HPINTERKNS_3genEPKNS_7contextE @3907
    _ZN4giac6_HPSUMERKNS_3genEPKNS_7contextE @3908
    _ZN4giac6_INPUTERKNS_3genEPKNS_7contextE @3909
    _ZN4giac6_InputERKNS_3genEPKNS_7contextE @3910
    _ZN4giac6_PIXONERKNS_3genEPKNS_7contextE @3911
    _ZN4giac6_PauseERKNS_3genEPKNS_7contextE @3912
    _ZN4giac6_PopupERKNS_3genEPKNS_7contextE @3913
    _ZN4giac6_PtOffERKNS_3genEPKNS_7contextE @3914
    _ZN4giac6_REDIMERKNS_3genEPKNS_7contextE @3915
    _ZN4giac6_ROLLDERKNS_3genEPKNS_7contextE @3916
    _ZN4giac6_SCALEERKNS_3genEPKNS_7contextE @3917
    _ZN4giac6_SCHURERKNS_3genEPKNS_7contextE @3918
    _ZN4giac6_SortAERKNS_3genEPKNS_7contextE @3919
    _ZN4giac6_SortDERKNS_3genEPKNS_7contextE @3920
    _ZN4giac6_StoreERKNS_3genEPKNS_7contextE @3921
    _ZN4giac6_TRACEERKNS_3genEPKNS_7contextE @3922
    _ZN4giac6_TitleERKNS_3genEPKNS_7contextE @3923
    _ZN4giac6_VIEWSERKNS_3genEPKNS_7contextE @3924
    _ZN4giac6__buUSE @3925 DATA
    _ZN4giac6_abcuvERKNS_3genEPKNS_7contextE @3926
    _ZN4giac6_aboutERKNS_3genEPKNS_7contextE @3927
    _ZN4giac6_angleERKNS_3genEPKNS_7contextE @3928
    _ZN4giac6_applyERKNS_3genEPKNS_7contextE @3929
    _ZN4giac6_arrayERKNS_3genEPKNS_7contextE @3930
    _ZN4giac6_avgRCERKNS_3genEPKNS_7contextE @3931
    _ZN4giac6_basisERKNS_3genEPKNS_7contextE @3932
    _ZN4giac6_betadERKNS_3genEPKNS_7contextE @3933
    _ZN4giac6_bitorERKNS_3genEPKNS_7contextE @3934
    _ZN4giac6_breakERKNS_3genEPKNS_7contextE @3935
    _ZN4giac6_c1oc2ERKNS_3genEPKNS_7contextE @3936
    _ZN4giac6_c1op2ERKNS_3genEPKNS_7contextE @3937
    _ZN4giac6_carreERKNS_3genEPKNS_7contextE @3938
    _ZN4giac6_chremERKNS_3genEPKNS_7contextE @3939
    _ZN4giac6_clickERKNS_3genEPKNS_7contextE @3940
    _ZN4giac6_closeERKNS_3genEPKNS_7contextE @3941
    _ZN4giac6_coeffERKNS_3genEPKNS_7contextE @3942
    _ZN4giac6_countERKNS_3genEPKNS_7contextE @3943
    _ZN4giac6_crossERKNS_3genEPKNS_7contextE @3944
    _ZN4giac6_cst_GE @3945 DATA
    _ZN4giac6_curveERKNS_3genEPKNS_7contextE @3946
    _ZN4giac6_debugERKNS_3genEPKNS_7contextE @3947
    _ZN4giac6_denomERKNS_3genEPKNS_7contextE @3948
    _ZN4giac6_dfc2fERKNS_3genEPKNS_7contextE @3949
    _ZN4giac6_divisERKNS_3genEPKNS_7contextE @3950
    _ZN4giac6_divpcERKNS_3genEPKNS_7contextE @3951
    _ZN4giac6_ecrisERKNS_3genEPKNS_7contextE @3952
    _ZN4giac6_equalERKNS_3genEPKNS_7contextE @3953
    _ZN4giac6_eraseERKNS_3genEPKNS_7contextE @3954
    _ZN4giac6_eulerERKNS_3genEPKNS_7contextE @3955
    _ZN4giac6_evalbERKNS_3genEPKNS_7contextE @3956
    _ZN4giac6_evalcERKNS_3genEPKNS_7contextE @3957
    _ZN4giac6_evalfERKNS_3genEPKNS_7contextE @3958
    _ZN4giac6_evalfERKNS_3genEiPKNS_7contextE @3959
    _ZN4giac6_exactERKNS_3genEPKNS_7contextE @3960
    _ZN4giac6_ezgcdERKNS_3genEPKNS_7contextE @3961
    _ZN4giac6_facesERKNS_3genEPKNS_7contextE @3962
    _ZN4giac6_floatERKNS_3genEPKNS_7contextE @3963
    _ZN4giac6_floorERKNS_3genEPKNS_7contextE @3964
    _ZN4giac6_fopenERKNS_3genEPKNS_7contextE @3965
    _ZN4giac6_frootERKNS_3genEPKNS_7contextE @3966
    _ZN4giac6_gaussERKNS_3genEPKNS_7contextE @3967
    _ZN4giac6_gcdexERKNS_3genEPKNS_7contextE @3968
    _ZN4giac6_geo2dERKNS_3genEPKNS_7contextE @3969
    _ZN4giac6_iPartERKNS_3genEPKNS_7contextE @3970
    _ZN4giac6_ibpdvERKNS_3genEPKNS_7contextE @3971
    _ZN4giac6_iegcdERKNS_3genEPKNS_7contextE @3972
    _ZN4giac6_imageERKNS_3genEPKNS_7contextE @3973
    _ZN4giac6_inputERKNS_3genEPKNS_7contextE @3974
    _ZN4giac6_inputERKNS_3genEbPKNS_7contextE @3975
    _ZN4giac6_interERKNS_3genEPKNS_7contextE @3976
    _ZN4giac6_labelERKNS_3genEPKNS_7contextE @3977
    _ZN4giac6_latexERKNS_3genEPKNS_7contextE @3978
    _ZN4giac6_limitERKNS_3genEPKNS_7contextE @3979
    _ZN4giac6_lnameERKNS_3genEPKNS_7contextE @3980
    _ZN4giac6_localERKNS_3genEPKNS_7contextE @3981
    _ZN4giac6_lsmodERKNS_3genEPKNS_7contextE @3982
    _ZN4giac6_minusERKNS_3genEPKNS_7contextE @3983
    _ZN4giac6_moyalERKNS_3genEPKNS_7contextE @3984
    _ZN4giac6_ncolsERKNS_3genEPKNS_7contextE @3985
    _ZN4giac6_nrowsERKNS_3genEPKNS_7contextE @3986
    _ZN4giac6_numerERKNS_3genEPKNS_7contextE @3987
    _ZN4giac6_p1oc2ERKNS_3genEPKNS_7contextE @3988
    _ZN4giac6_p1op2ERKNS_3genEPKNS_7contextE @3989
    _ZN4giac6_pa2b2ERKNS_3genEPKNS_7contextE @3990
    _ZN4giac6_pevalERKNS_3genEPKNS_7contextE @3991
    _ZN4giac6_pivotERKNS_3genEPKNS_7contextE @3992
    _ZN4giac6_pixonERKNS_3genEPKNS_7contextE @3993
    _ZN4giac6_pointERKNS_3genEPKNS_7contextE @3994
    _ZN4giac6_pow_sE @3995 DATA
    _ZN4giac6_printERKNS_3genEPKNS_7contextE @3996
    _ZN4giac6_prootERKNS_3genEPKNS_7contextE @3997
    _ZN4giac6_ptaylERKNS_3genEPKNS_7contextE @3998
    _ZN4giac6_purgeERKNS_3genEPKNS_7contextE @3999
    _ZN4giac6_questERKNS_3genEPKNS_7contextE @4000
    _ZN4giac6_rayonERKNS_3genEPKNS_7contextE @4001
    _ZN4giac6_rightERKNS_3genEPKNS_7contextE @4002
    _ZN4giac6_rischERKNS_3genEPKNS_7contextE @4003
    _ZN4giac6_rmmodERKNS_3genEPKNS_7contextE @4004
    _ZN4giac6_rootsERKNS_3genEPKNS_7contextE @4005
    _ZN4giac6_roundERKNS_3genEPKNS_7contextE @4006
    _ZN4giac6_sauteERKNS_3genEPKNS_7contextE @4007
    _ZN4giac6_shiftERKNS_3genEPKNS_7contextE @4008
    _ZN4giac6_signeERKNS_3genEPKNS_7contextE @4009
    _ZN4giac6_simp2ERKNS_3genEPKNS_7contextE @4010
    _ZN4giac6_sizesERKNS_3genEPKNS_7contextE @4011
    _ZN4giac6_slopeERKNS_3genEPKNS_7contextE @4012
    _ZN4giac6_solveERKNS_3genEPKNS_7contextE @4013
    _ZN4giac6_sortaERKNS_3genEPKNS_7contextE @4014
    _ZN4giac6_sortdERKNS_3genEPKNS_7contextE @4015
    _ZN4giac6_splitERKNS_3genEPKNS_7contextE @4016
    _ZN4giac6_srandERKNS_3genEPKNS_7contextE @4017
    _ZN4giac6_sturmERKNS_3genEPKNS_7contextE @4018
    _ZN4giac6_substERKNS_3genEPKNS_7contextE @4019
    _ZN4giac6_tableERKNS_3genEPKNS_7contextE @4020
    _ZN4giac6_testsERKNS_3genEPKNS_7contextE @4021
    _ZN4giac6_throwERKNS_3genEPKNS_7contextE @4022
    _ZN4giac6_truncERKNS_3genEPKNS_7contextE @4023
    _ZN4giac6_unionERKNS_3genEPKNS_7contextE @4024
    _ZN4giac6_unitVERKNS_3genEPKNS_7contextE @4025
    _ZN4giac6_watchERKNS_3genEPKNS_7contextE @4026
    _ZN4giac6_writeERKNS_3genEPKNS_7contextE @4027
    _ZN4giac6_xportERKNS_3genEPKNS_7contextE @4028
    _ZN4giac6_zerosERKNS_3genEPKNS_7contextE @4029
    _ZN4giac6a_rootERKNS_15dbgprint_vectorINS_3genEEERKSt7complexIdEd @4030
    _ZN4giac6absintEi @4031
    _ZN4giac6alog10ERKNS_3genEPKNS_7contextE @4032
    _ZN4giac6arclenERKNS_3genEPKNS_7contextE @4033
    _ZN4giac6at_AnsE @4034 DATA
    _ZN4giac6at_COSE @4035 DATA
    _ZN4giac6at_Ci0E @4036 DATA
    _ZN4giac6at_ColE @4037 DATA
    _ZN4giac6at_DUPE @4038 DATA
    _ZN4giac6at_EXPE @4039 DATA
    _ZN4giac6at_Ei0E @4040 DATA
    _ZN4giac6at_EtaE @4041 DATA
    _ZN4giac6at_INTE @4042 DATA
    _ZN4giac6at_NOPE @4043 DATA
    _ZN4giac6at_PsiE @4044 DATA
    _ZN4giac6at_RCLE @4045 DATA
    _ZN4giac6at_RowE @4046 DATA
    _ZN4giac6at_SINE @4047 DATA
    _ZN4giac6at_TANE @4048 DATA
    _ZN4giac6at_TeXE @4049 DATA
    _ZN4giac6at_a2qE @4050 DATA
    _ZN4giac6at_absE @4051 DATA
    _ZN4giac6at_algE @4052 DATA
    _ZN4giac6at_andE @4053 DATA
    _ZN4giac6at_ansE @4054 DATA
    _ZN4giac6at_arcE @4055 DATA
    _ZN4giac6at_argE @4056 DATA
    _ZN4giac6at_ascE @4057 DATA
    _ZN4giac6at_colE @4058 DATA
    _ZN4giac6at_cosE @4059 DATA
    _ZN4giac6at_cotE @4060 DATA
    _ZN4giac6at_cscE @4061 DATA
    _ZN4giac6at_detE @4062 DATA
    _ZN4giac6at_e2rE @4063 DATA
    _ZN4giac6at_egvE @4064 DATA
    _ZN4giac6at_erfE @4065 DATA
    _ZN4giac6at_expE @4066 DATA
    _ZN4giac6at_forE @4067 DATA
    _ZN4giac6at_gcdE @4068 DATA
    _ZN4giac6at_hasE @4069 DATA
    _ZN4giac6at_idnE @4070 DATA
    _ZN4giac6at_intE @4071 DATA
    _ZN4giac6at_invE @4072 DATA
    _ZN4giac6at_kerE @4073 DATA
    _ZN4giac6at_lcmE @4074 DATA
    _ZN4giac6at_linE @4075 DATA
    _ZN4giac6at_mapE @4076 DATA
    _ZN4giac6at_maxE @4077 DATA
    _ZN4giac6at_minE @4078 DATA
    _ZN4giac6at_negE @4079 DATA
    _ZN4giac6at_nopE @4080 DATA
    _ZN4giac6at_notE @4081 DATA
    _ZN4giac6at_oneE @4082 DATA
    _ZN4giac6at_pntE @4083 DATA
    _ZN4giac6at_powE @4084 DATA
    _ZN4giac6at_pwdE @4085 DATA
    _ZN4giac6at_q2aE @4086 DATA
    _ZN4giac6at_quoE @4087 DATA
    _ZN4giac6at_r2eE @4088 DATA
    _ZN4giac6at_remE @4089 DATA
    _ZN4giac6at_rowE @4090 DATA
    _ZN4giac6at_rpnE @4091 DATA
    _ZN4giac6at_secE @4092 DATA
    _ZN4giac6at_sinE @4093 DATA
    _ZN4giac6at_sstE @4094 DATA
    _ZN4giac6at_stoE @4095 DATA
    _ZN4giac6at_sumE @4096 DATA
    _ZN4giac6at_svdE @4097 DATA
    _ZN4giac6at_svlE @4098 DATA
    _ZN4giac6at_tanE @4099 DATA
    _ZN4giac6at_trnE @4100 DATA
    _ZN4giac6at_xorE @4101 DATA
    _ZN4giac6at_zipE @4102 DATA
    _ZN4giac6axbinvC1Ejijjj @4103
    _ZN4giac6axbinvC1Ev @4104
    _ZN4giac6cauchyERKNS_3genES2_S2_PKNS_7contextE @4105
    _ZN4giac6chkmodERKNS_3genES2_ @4106
    _ZN4giac6cklvarERKNS_3genEPKNS_7contextE @4107
    _ZN4giac6coeffsERKNS_6tensorINS_3genEEESt6vectorINS_7index_mESaIS6_EEPNS_11environmentE @4108
    _ZN4giac6concatERKNS_3genEbPKNS_7contextE @4109
    _ZN4giac6cprintERKNS_3genEPKNS_7contextE @4110
    _ZN4giac6cst_IOE @4111 DATA
    _ZN4giac6cst_NAE @4112 DATA
    _ZN4giac6cst_VmE @4113 DATA
    _ZN4giac6cst_a0E @4114 DATA
    _ZN4giac6cst_c3E @4115 DATA
    _ZN4giac6cst_f0E @4116 DATA
    _ZN4giac6cst_gaE @4117 DATA
    _ZN4giac6cst_kqE @4118 DATA
    _ZN4giac6cst_meE @4119 DATA
    _ZN4giac6cst_mpE @4120 DATA
    _ZN4giac6cst_piE @4121 DATA
    _ZN4giac6cst_qeE @4122 DATA
    _ZN4giac6ctrl_cE @4123 DATA
    _ZN4giac6dependERKNS_3genERKNS_14identificateurE @4124
    _ZN4giac6deriveERKNS_3genERKNS_14identificateurEPKNS_7contextE @4125
    _ZN4giac6deriveERKNS_3genES2_PKNS_7contextE @4126
    _ZN4giac6deriveERKNS_3genES2_S2_PKNS_7contextE @4127
    _ZN4giac6divremERKNS_6tensorINS_3genEEES4_RS2_S5_b @4128
    _ZN4giac6equal2ERKNS_3genES2_PKNS_7contextE @4129
    _ZN4giac6expandERKNS_3genEPKNS_7contextE @4130
    _ZN4giac6factorERKNS_3genERKNS_14identificateurEbPKNS_7contextE @4131
    _ZN4giac6factorERKNS_3genES2_bPKNS_7contextE @4132
    _ZN4giac6factorERKNS_3genEbPKNS_7contextE @4133
    _ZN4giac6factorERKNS_3genEbS2_PKNS_7contextE @4134
    _ZN4giac6factorERKNS_6tensorINS_3genEEERS2_RSt6vectorINS_7facteurIS2_EESaIS8_EEbbbRKS1_RS1_ @4135
    _ZN4giac6finddeERKNS_6tensorINS_3genEEERS2_S5_ @4136
    _ZN4giac6frenetERKNS_3genERS0_S3_S3_S3_S3_S3_S3_S3_bPKNS_7contextE @4137
    _ZN4giac6gammadERKNS_3genES2_S2_PKNS_7contextE @4138
    _ZN4giac6gbasisERKNS_8vectpolyERKNS_3genEbbPNS_11environmentERbPKNS_7contextE @4139
    _ZN4giac6gcdheuERKNS_6tensorINS_3genEEES4_RS2_RS1_S5_S6_S5_S6_bb @4140
    _ZN4giac6gcdmodERKNS_6tensorINS_3genEEES4_RKS1_ @4141
    _ZN4giac6gcdpsrERKNS_6tensorINS_3genEEES4_i @4142
    _ZN4giac6globalC1Ev @4143
    _ZN4giac6globalC2Ev @4144
    _ZN4giac6globalD1Ev @4145
    _ZN4giac6globalD2Ev @4146
    _ZN4giac6globalaSERKS0_ @4147
    _ZN4giac6gosperERKNS_6tensorINS_3genEEES4_S4_RS2_RS1_PKNS_7contextE @4148
    _ZN4giac6gsolveERKNS_15dbgprint_vectorINS_3genEEES4_biPKNS_7contextE @4149
    _ZN4giac6has_UnERKNS_3genE @4150
    _ZN4giac6has_opERKNS_3genERKNS_18unary_function_ptrE @4151
    _ZN4giac6helponERKSsRKSt6vectorINS_4aideESaIS3_EEiib @4152
    _ZN4giac6hornerERKNS_15dbgprint_vectorINS_3genEEERKNS_9TfractionIS1_EEb @4153
    _ZN4giac6hornerERKNS_15dbgprint_vectorINS_3genEEERKS1_ @4154
    _ZN4giac6hornerERKNS_15dbgprint_vectorINS_3genEEERKS1_PNS_11environmentERS2_ @4155
    _ZN4giac6hornerERKNS_15dbgprint_vectorINS_3genEEERKS1_PNS_11environmentEb @4156
    _ZN4giac6hornerERKNS_3genES2_ @4157
    _ZN4giac6iabcuvERKNS_3genES2_S2_ @4158
    _ZN4giac6idivisERKNS_3genEPKNS_7contextE @4159
    _ZN4giac6in_rpnEPKNS_7contextE @4160
    _ZN4giac6in_rpnEiPKNS_7contextE @4161
    _ZN4giac6indentEPKNS_7contextE @4162
    _ZN4giac6info_tC1ERKS0_ @4163
    _ZN4giac6info_tC1Ev @4164
    _ZN4giac6info_tD1Ev @4165
    _ZN4giac6info_taSERKS0_ @4166
    _ZN4giac6intgabERKNS_3genES2_S2_S2_RS0_PKNS_7contextE @4167
    _ZN4giac6intnumERKNS_3genEbPKNS_7contextE @4168
    _ZN4giac6invenvERKNS_3genEPNS_11environmentE @4169
    _ZN4giac6invmodERKNS_3genES2_ @4170
    _ZN4giac6invmodERKNS_6my_mpzEi @4171
    _ZN4giac6invmodEdd @4172
    _ZN4giac6invmodEii @4173
    _ZN4giac6invmodEji @4174
    _ZN4giac6invmodExi @4175
    _ZN4giac6invmodExx @4176
    _ZN4giac6irootsERKNS_6tensorINS_3genEEE @4177
    _ZN4giac6is_AnsERKNS_3genE @4178
    _ZN4giac6is_infERKNS_3genE @4179
    _ZN4giac6is_oneERKNS_15dbgprint_vectorINS_3genEEE @4180
    _ZN4giac6is_oneERKNS_3genE @4181
    _ZN4giac6is_oneERKNS_6tensorINS_3genEEE @4182
    _ZN4giac6is_oneERKSt6vectorINS_10T_unsignedIijEESaIS2_EE @4183
    _ZN4giac6iscellERKNS_3genERiS3_PKNS_7contextE @4184
    _ZN4giac6ismithERKNS_15dbgprint_vectorINS_3genEEERS2_S5_S5_PKNS_7contextE @4185
    _ZN4giac6iszeroERKSt6vectorIiSaIiEE @4186
    _ZN4giac6jacobiERKNS_3genES2_ @4187
    _ZN4giac6jordanERKNS_3genEbPKNS_7contextE @4188
    _ZN4giac6l1normERKNS_15dbgprint_vectorINS_3genEEEPKNS_7contextE @4189
    _ZN4giac6l2normERKNS_15dbgprint_vectorINS_3genEEEPKNS_7contextE @4190
    _ZN4giac6largepERKNS_6axbinvEPj @4191
    _ZN4giac6lcoeffERKNS_6tensorINS_3genEEE @4192
    _ZN4giac6lnabs2ERKNS_3genES2_PKNS_7contextE @4193
    _ZN4giac6logptrEPKNS_7contextE @4194
    _ZN4giac6logptrEPSoPKNS_7contextE @4195
    _ZN4giac6loptabERKNS_3genEPKNS_18unary_function_ptrE @4196
    _ZN4giac6matpowERKNS_15dbgprint_vectorINS_3genEEERKS1_PKNS_7contextE @4197
    _ZN4giac6mimageERKNS_15dbgprint_vectorINS_3genEEEPKNS_7contextE @4198
    _ZN4giac6mimageERKNS_15dbgprint_vectorINS_3genEEERS2_PKNS_7contextE @4199
    _ZN4giac6mkisomERKNS_3genEiPKNS_7contextE @4200
    _ZN4giac6modgcdERKNS_6tensorINS_3genEEES4_RKS1_RS2_S7_S7_b @4201
    _ZN4giac6modinvERKNS_15dbgprint_vectorINS_3genEEERS2_RKS1_RS1_ @4202
    _ZN4giac6modredC1EiRKSt6vectorIiSaIiEE @4203
    _ZN4giac6modredD1Ev @4204
    _ZN4giac6moduloERA1_K12__mpz_structj @4205
    _ZN4giac6monomeC1ERKNS_3genE @4206
    _ZN4giac6monomeC1ERKNS_3genES3_ @4207
    _ZN4giac6monomeC1ERKS0_ @4208
    _ZN4giac6monomeD1Ev @4209
    _ZN4giac6monomeaSERKS0_ @4210
    _ZN4giac6msieveERKNS_3genERKNS_15dbgprint_vectorIS0_EES6_RA1_K12__mpz_structRSt6vectorINS_7basis_tESaISC_EEjjRNSt3tr113unordered_mapIjNS_6axbinvENS_29hash_function_unsigned_objectESt8equal_toIjESaISt4pairIKjSI_EEEES2_S2_PhiiPjRST_ST_RSB_IjSaIjEESX_RSB_ISI_SaISI_EERA1_S7_S12_S12_S12_S12_S12_S12_S12_RKSB_INS_10lp_entry_tESaIS13_EEPKNS_7contextE @4211
    _ZN4giac6msieveERKNS_3genERS0_PKNS_7contextE @4212
    _ZN4giac6mtraceERKNS_15dbgprint_vectorINS_3genEEE @4213
    _ZN4giac6mulmodERSt6vectorIiSaIiEEii @4214
    _ZN4giac6mulmodEiRSt6vectorIiSaIiEEi @4215
    _ZN4giac6my_mpzC1ERKS0_ @4216
    _ZN4giac6my_mpzC1El @4217
    _ZN4giac6my_mpzC1Ev @4218
    _ZN4giac6my_mpzD1Ev @4219
    _ZN4giac6newtonERKNS_3genES2_S2_iddbdddddPKNS_7contextE @4220
    _ZN4giac6normalERKNS_3genEPKNS_7contextE @4221
    _ZN4giac6normalERKNS_3genEbPKNS_7contextE @4222
    _ZN4giac6ntl_onEPKNS_7contextE @4223
    _ZN4giac6ntl_onEbPKNS_7contextE @4224
    _ZN4giac6pcoeffERKNS_15dbgprint_vectorINS_3genEEE @4225
    _ZN4giac6porderERKNS_15dbgprint_vectorINS_6monomeEEE @4226
    _ZN4giac6powmodERKNS_15dbgprint_vectorINS_3genEEERKS1_S4_PNS_11environmentE @4227
    _ZN4giac6powmodERKNS_3genES2_S2_ @4228
    _ZN4giac6powmodERKNS_6tensorINS_3genEEEiRKS1_ @4229
    _ZN4giac6powmodEimi @4230
    _ZN4giac6pp1modERKNS_6tensorINS_3genEEERKS1_ @4231
    _ZN4giac6prevalERKNS_3genES2_S2_S2_PKNS_7contextE @4232
    _ZN4giac6primesE @4233 DATA
    _ZN4giac6printiEPKNS_7contextE @4234
    _ZN4giac6pshiftERKNS_15dbgprint_vectorINS_6monomeEEERKNS_3genERS2_PKNS_7contextE @4235
    _ZN4giac6push32ERSt6vectorINS_8sparse32ESaIS1_EEiRjj @4236
    _ZN4giac6pzadicERKNS_6tensorINS_3genEEERKS1_ @4237
    _ZN4giac6quoremERKNS_3genES2_ @4238
    _ZN4giac6randomEiPNS_11environmentE @4239
    _ZN4giac6rcl_38E @4240 DATA
    _ZN4giac6reduceERKNS_5poly8ERKNS_9vectpoly8ERKSt6vectorIjSaIjEEjRS3_RS0_SC_SC_PNS_11environmentE @4241
    _ZN4giac6reduceERKNS_6tensorINS_3genEEEPS3_S5_PNS_11environmentE @4242
    _ZN4giac6reduceERKNS_6tensorINS_3genEEEPS3_S5_RS2_RS1_PNS_11environmentE @4243
    _ZN4giac6reduceERKNS_6tensorINS_3genEEERKNS_8vectpolyEPNS_11environmentE @4244
    _ZN4giac6reduceERKNS_6tensorINS_3genEEERKNS_8vectpolyERKSt6vectorIjSaIjEEjRS2_PNS_11environmentE @4245
    _ZN4giac6reduceERKNS_6tensorINS_3genEEERKNS_8vectpolyERKSt6vectorIjSaIjEEjRS2_SD_SD_PNS_11environmentE @4246
    _ZN4giac6reduceERNS_8vectpolyEPNS_11environmentE @4247
    _ZN4giac6reduceERNS_8vectpolyESt6vectorIjSaIjEEPNS_11environmentE @4248
    _ZN4giac6reduceERNS_9vectpoly8ESt6vectorIjSaIjEEPNS_11environmentE @4249
    _ZN4giac6ref_piE @4250 DATA
    _ZN4giac6rlvarxERKNS_3genES2_ @4251
    _ZN4giac6rlvarxERKNS_3genES2_RNS_15dbgprint_vectorIS0_EE @4252
    _ZN4giac6rootofERKNS_3genEPKNS_7contextE @4253
    _ZN4giac6round2ERNS_3genERKS0_PKNS_7contextE @4254
    _ZN4giac6round2ERNS_3genEi @4255
    _ZN4giac6seriesERKNS_3genERKNS_14identificateurES2_iiPKNS_7contextE @4256
    _ZN4giac6seriesERKNS_3genES2_S2_S2_PKNS_7contextE @4257
    _ZN4giac6seriesERKNS_3genES2_S2_iiPKNS_7contextE @4258
    _ZN4giac6simultERKNS_3genEPKNS_7contextE @4259
    _ZN4giac6sincosERKNS_3genEPKNS_7contextE @4260
    _ZN4giac6splitPERKNS_15dbgprint_vectorINS_3genEEERS2_S5_ @4261
    _ZN4giac6stddevERKNS_15dbgprint_vectorINS_3genEEEbi @4262
    _ZN4giac6sto_38E @4263 DATA
    _ZN4giac6subsopERKNS_15dbgprint_vectorINS_3genEEES4_RKS1_PKNS_7contextE @4264
    _ZN4giac6subsopERKNS_3genERKNS_15dbgprint_vectorIS0_EEPKNS_7contextE @4265
    _ZN4giac6tailleERKNS_3genEj @4266
    _ZN4giac6tarjanERKSt6vectorIS0_IjSaIjEESaIS2_EERS4_ @4267
    _ZN4giac6taylorERKNS_15dbgprint_vectorINS_3genEEERKS1_PNS_11environmentE @4268
    _ZN4giac6taylorERKNS_3genES2_S2_iRNS_15dbgprint_vectorIS0_EEPKNS_7contextE @4269
    _ZN4giac6taylorERKNS_3genEiRKNS_18unary_function_ptrEiRS0_PKNS_7contextE @4270
    _ZN4giac6taylorERKNS_6tensorINS_3genEEERKS1_ @4271
    _ZN4giac6tdeg_tC1ERKNS_7index_mEs @4272
    _ZN4giac6tdeg_tC1Ei @4273
    _ZN4giac6tdeg_tC1Ev @4274
    _ZN4giac6tegralERKNS_3genES2_S2_S2_S2_iRS0_PKNS_7contextE @4275
    _ZN4giac6tensorINS_3genEE26high_order_degree_truncateEi @4276
    _ZN4giac6tensorINS_3genEE5tsortEv @4277
    _ZN4giac6tensorINS_3genEE6appendERKS2_ @4278
    _ZN4giac6tensorINS_3genEE7reorderERKSt6vectorIiSaIiEE @4279
    _ZN4giac6tensorINS_3genEE7reverseEv @4280
    _ZN4giac6tensorINS_3genEE8untruncnEi @4281
    _ZN4giac6tensorINS_3genEEC1ERKNS_8monomialIS1_EE @4282
    _ZN4giac6tensorINS_3genEEC1ERKS1_i @4283
    _ZN4giac6tensorINS_3genEEC1ERKS2_ @4284
    _ZN4giac6tensorINS_3genEEC1Ei @4285
    _ZN4giac6tensorINS_3genEEC1EiRKS2_ @4286
    _ZN4giac6tensorINS_3genEEC1EiRKSt6vectorINS_8monomialIS1_EESaIS5_EE @4287
    _ZN4giac6tensorINS_3genEEC1Ev @4288
    _ZN4giac6tensorINS_3genEED1Ev @4289
    _ZN4giac6tensorINS_3genEEaSERKS2_ @4290
    _ZN4giac6tensorINS_3genEEdVERKS1_ @4291
    _ZN4giac6tensorINS_3genEEmLERKS1_ @4292
    _ZN4giac6tunlinERNS_15dbgprint_vectorINS_3genEEEPKNS_7contextE @4293
    _ZN4giac6turtleEPKNS_7contextE @4294
    _ZN4giac6vertexC1Ev @4295
    _ZN4giac6vx_varE @4296 DATA
    _ZN4giac6x_tickE @4297 DATA
    _ZN4giac6xcasrcEv @4298
    _ZN4giac6y_tickE @4299 DATA
    _ZN4giac6zf4modERNS_12vectzpolymodERKSt6vectorIjSaIjEEiRS2_ISt4pairIjjESaIS8_EES1_bRjPSA_RS2_INS_7zinfo_tESaISE_EESC_b @4300
    _ZN4giac6ztransERKNS_3genES2_S2_PKNS_7contextE @4301
    _ZN4giac6zttestERKNS_3genEbPKNS_7contextE @4302
    _ZN4giac7Add_genERN9__gnu_cxx17__normal_iteratorIPKNS_8monomialINS_3genEEESt6vectorIS4_SaIS4_EEEESB_SB_SB_RS9_PFbRKNS_7index_mESF_E @4303
    _ZN4giac7Airy_AiERKNS_3genEPKNS_7contextE @4304
    _ZN4giac7Airy_BiERKNS_3genEPKNS_7contextE @4305
    _ZN4giac7ContentINS_3genEEET_RKSt6vectorINS_8monomialIS2_EESaIS5_EE @4306
    _ZN4giac7D_at_CiE @4307 DATA
    _ZN4giac7D_at_EiE @4308 DATA
    _ZN4giac7D_at_SiE @4309 DATA
    _ZN4giac7D_at_idE @4310 DATA
    _ZN4giac7D_at_lnE @4311 DATA
    _ZN4giac7D_at_sqE @4312 DATA
    _ZN4giac7GEN2genERKPlRKNS_15dbgprint_vectorINS_3genEEE @4313
    _ZN4giac7Mul_genERN9__gnu_cxx17__normal_iteratorIPKNS_8monomialINS_3genEEESt6vectorIS4_SaIS4_EEEESB_SB_SB_RS9_PFbRKNS_7index_mESF_ESt26pointer_to_binary_functionIRS5_SJ_bE @4314
    _ZN4giac7PminusxERNS_15dbgprint_vectorINS_3genEEE @4315
    _ZN4giac7Sub_genERN9__gnu_cxx17__normal_iteratorIPKNS_8monomialINS_3genEEESt6vectorIS4_SaIS4_EEEESB_SB_SB_RS9_PFbRKNS_7index_mESF_E @4316
    _ZN4giac7TgcdpsrINS_3genEEENS_6tensorIT_EERKS4_S6_i @4317
    _ZN4giac7Tis_oneINS_3genEEEbRKNS_6tensorIT_EE @4318
    _ZN4giac7UntruncINS_3genEEEvRKSt6vectorINS_8monomialIT_EESaIS5_EEiiRS7_ @4319
    _ZN4giac7_ADDCOLERKNS_3genEPKNS_7contextE @4320
    _ZN4giac7_ADDROWERKNS_3genEPKNS_7contextE @4321
    _ZN4giac7_A_unitE @4322 DATA
    _ZN4giac7_BezierERKNS_3genEPKNS_7contextE @4323
    _ZN4giac7_CHOOSEERKNS_3genEPKNS_7contextE @4324
    _ZN4giac7_C_unitE @4325 DATA
    _ZN4giac7_CircleERKNS_3genEPKNS_7contextE @4326
    _ZN4giac7_DefineERKNS_3genEPKNS_7contextE @4327
    _ZN4giac7_DialogERKNS_3genEPKNS_7contextE @4328
    _ZN4giac7_DigitsERKNS_3genEPKNS_7contextE @4329
    _ZN4giac7_E_unitE @4330 DATA
    _ZN4giac7_F_unitE @4331 DATA
    _ZN4giac7_FactorERKNS_3genEPKNS_7contextE @4332
    _ZN4giac7_HAngleERKNS_3genEPKNS_7contextE @4333
    _ZN4giac7_HPDIFFERKNS_3genEPKNS_7contextE @4334
    _ZN4giac7_H_unitE @4335 DATA
    _ZN4giac7_J_unitE @4336 DATA
    _ZN4giac7_K_unitE @4337 DATA
    _ZN4giac7_L_unitE @4338 DATA
    _ZN4giac7_MODULOERKNS_3genEPKNS_7contextE @4339
    _ZN4giac7_MSGBOXERKNS_3genEPKNS_7contextE @4340
    _ZN4giac7_N_unitE @4341 DATA
    _ZN4giac7_NewPicERKNS_3genEPKNS_7contextE @4342
    _ZN4giac7_OutputERKNS_3genEPKNS_7contextE @4343
    _ZN4giac7_PILISTERKNS_3genEPKNS_7contextE @4344
    _ZN4giac7_PIXOFFERKNS_3genEPKNS_7contextE @4345
    _ZN4giac7_P_unitE @4346 DATA
    _ZN4giac7_PromptERKNS_3genEPKNS_7contextE @4347
    _ZN4giac7_PtTextERKNS_3genEPKNS_7contextE @4348
    _ZN4giac7_RANDOMERKNS_3genEPKNS_7contextE @4349
    _ZN4giac7_R_unitE @4350 DATA
    _ZN4giac7_RclPicERKNS_3genEPKNS_7contextE @4351
    _ZN4giac7_S_unitE @4352 DATA
    _ZN4giac7_SiCi_fERKNS_3genEPKNS_7contextE @4353
    _ZN4giac7_SiCi_gERKNS_3genEPKNS_7contextE @4354
    _ZN4giac7_StoPicERKNS_3genEPKNS_7contextE @4355
    _ZN4giac7_TAYLORERKNS_3genEPKNS_7contextE @4356
    _ZN4giac7_T_unitE @4357 DATA
    _ZN4giac7_V_unitE @4358 DATA
    _ZN4giac7_W_unitE @4359 DATA
    _ZN4giac7__clickE @4360 DATA
    _ZN4giac7__inputE @4361 DATA
    _ZN4giac7__printE @4362 DATA
    _ZN4giac7_a_unitE @4363 DATA
    _ZN4giac7_affixeERKNS_3genEPKNS_7contextE @4364
    _ZN4giac7_appendERKNS_3genEPKNS_7contextE @4365
    _ZN4giac7_arcLenERKNS_3genEPKNS_7contextE @4366
    _ZN4giac7_areaatERKNS_3genEPKNS_7contextE @4367
    _ZN4giac7_aretesERKNS_3genEPKNS_7contextE @4368
    _ZN4giac7_assignERKNS_3genEPKNS_7contextE @4369
    _ZN4giac7_avanceERKNS_3genEPKNS_7contextE @4370
    _ZN4giac7_b_unitE @4371 DATA
    _ZN4giac7_batonsERKNS_3genEPKNS_7contextE @4372
    _ZN4giac7_bezierERKNS_3genEPKNS_7contextE @4373
    _ZN4giac7_bitandERKNS_3genEPKNS_7contextE @4374
    _ZN4giac7_bitmapERKNS_3genEPKNS_7contextE @4375
    _ZN4giac7_bitxorERKNS_3genEPKNS_7contextE @4376
    _ZN4giac7_borderERKNS_3genEPKNS_7contextE @4377
    _ZN4giac7_cSolveERKNS_3genEPKNS_7contextE @4378
    _ZN4giac7_cZerosERKNS_3genEPKNS_7contextE @4379
    _ZN4giac7_cauchyERKNS_3genEPKNS_7contextE @4380
    _ZN4giac7_centreERKNS_3genEPKNS_7contextE @4381
    _ZN4giac7_cercleERKNS_3genEPKNS_7contextE @4382
    _ZN4giac7_concatERKNS_3genEPKNS_7contextE @4383
    _ZN4giac7_crayonERKNS_3genEPKNS_7contextE @4384
    _ZN4giac7_cst_IOE @4385 DATA
    _ZN4giac7_cst_NAE @4386 DATA
    _ZN4giac7_cst_VmE @4387 DATA
    _ZN4giac7_cst_a0E @4388 DATA
    _ZN4giac7_cst_c3E @4389 DATA
    _ZN4giac7_cst_f0E @4390 DATA
    _ZN4giac7_cst_gaE @4391 DATA
    _ZN4giac7_cst_kqE @4392 DATA
    _ZN4giac7_cst_meE @4393 DATA
    _ZN4giac7_cst_mpE @4394 DATA
    _ZN4giac7_cst_qeE @4395 DATA
    _ZN4giac7_cumSumERKNS_3genEPKNS_7contextE @4396
    _ZN4giac7_d_unitE @4397 DATA
    _ZN4giac7_degreeERKNS_3genEPKNS_7contextE @4398
    _ZN4giac7_deriveERKNS_3genEPKNS_7contextE @4399
    _ZN4giac7_disqueERKNS_3genEPKNS_7contextE @4400
    _ZN4giac7_divideERKNS_3genEPKNS_7contextE @4401
    _ZN4giac7_dollarERKNS_3genEPKNS_7contextE @4402
    _ZN4giac7_droiteERKNS_3genEPKNS_7contextE @4403
    _ZN4giac7_effaceERKNS_3genEPKNS_7contextE @4404
    _ZN4giac7_equal2ERKNS_3genEPKNS_7contextE @4405
    _ZN4giac7_evalfaERKNS_3genEPKNS_7contextE @4406
    _ZN4giac7_factorERKNS_3genEPKNS_7contextE @4407
    _ZN4giac7_fcoeffERKNS_3genEPKNS_7contextE @4408
    _ZN4giac7_formatERKNS_3genEPKNS_7contextE @4409
    _ZN4giac7_fprintERKNS_3genEPKNS_7contextE @4410
    _ZN4giac7_frenetERKNS_3genEPKNS_7contextE @4411
    _ZN4giac7_fsolveERKNS_3genEPKNS_7contextE @4412
    _ZN4giac7_g_unitE @4413 DATA
    _ZN4giac7_gammadERKNS_3genEPKNS_7contextE @4414
    _ZN4giac7_gbasisERKNS_3genEPKNS_7contextE @4415
    _ZN4giac7_getKeyERKNS_3genEPKNS_7contextE @4416
    _ZN4giac7_getNumERKNS_3genEPKNS_7contextE @4417
    _ZN4giac7_h_unitE @4418 DATA
    _ZN4giac7_heugcdERKNS_3genEPKNS_7contextE @4419
    _ZN4giac7_hornerERKNS_3genEPKNS_7contextE @4420
    _ZN4giac7_iabcuvERKNS_3genEPKNS_7contextE @4421
    _ZN4giac7_ibasisERKNS_3genEPKNS_7contextE @4422
    _ZN4giac7_idivisERKNS_3genEPKNS_7contextE @4423
    _ZN4giac7_igcdexERKNS_3genEPKNS_7contextE @4424
    _ZN4giac7_insmodERKNS_3genEPKNS_7contextE @4425
    _ZN4giac7_ismithERKNS_3genEPKNS_7contextE @4426
    _ZN4giac7_j_unitE @4427 DATA
    _ZN4giac7_jordanERKNS_3genEPKNS_7contextE @4428
    _ZN4giac7_l1normERKNS_3genEPKNS_7contextE @4429
    _ZN4giac7_l2normERKNS_3genEPKNS_7contextE @4430
    _ZN4giac7_l_unitE @4431 DATA
    _ZN4giac7_lcoeffERKNS_3genEPKNS_7contextE @4432
    _ZN4giac7_m_unitE @4433 DATA
    _ZN4giac7_markovERKNS_3genEPKNS_7contextE @4434
    _ZN4giac7_mathmlERKNS_3genEPKNS_7contextE @4435
    _ZN4giac7_matpowERKNS_3genEPKNS_7contextE @4436
    _ZN4giac7_matrixERKNS_3genEPKNS_7contextE @4437
    _ZN4giac7_medianERKNS_3genEPKNS_7contextE @4438
    _ZN4giac7_memberERKNS_3genEPKNS_7contextE @4439
    _ZN4giac7_milieuERKNS_3genEPKNS_7contextE @4440
    _ZN4giac7_mkisomERKNS_3genEPKNS_7contextE @4441
    _ZN4giac7_modgcdERKNS_3genEPKNS_7contextE @4442
    _ZN4giac7_nDerivERKNS_3genEPKNS_7contextE @4443
    _ZN4giac7_nSolveERKNS_3genEPKNS_7contextE @4444
    _ZN4giac7_newMatERKNS_3genEPKNS_7contextE @4445
    _ZN4giac7_newtonERKNS_3genEPKNS_7contextE @4446
    _ZN4giac7_nodispERKNS_3genEPKNS_7contextE @4447
    _ZN4giac7_ntl_onERKNS_3genEPKNS_7contextE @4448
    _ZN4giac7_optionERKNS_3genEPKNS_7contextE @4449
    _ZN4giac7_outputERKNS_3genEPKNS_7contextE @4450
    _ZN4giac7_pcoeffERKNS_3genEPKNS_7contextE @4451
    _ZN4giac7_pixoffERKNS_3genEPKNS_7contextE @4452
    _ZN4giac7_plot3dERKNS_3genEPKNS_7contextE @4453
    _ZN4giac7_powmodERKNS_3genEPKNS_7contextE @4454
    _ZN4giac7_prevalERKNS_3genEPKNS_7contextE @4455
    _ZN4giac7_prismeERKNS_3genEPKNS_7contextE @4456
    _ZN4giac7_psrgcdERKNS_3genEPKNS_7contextE @4457
    _ZN4giac7_quoremERKNS_3genEPKNS_7contextE @4458
    _ZN4giac7_reculeERKNS_3genEPKNS_7contextE @4459
    _ZN4giac7_removeERKNS_3genEPKNS_7contextE @4460
    _ZN4giac7_repeteERKNS_3genEPKNS_7contextE @4461
    _ZN4giac7_revertERKNS_3genEPKNS_7contextE @4462
    _ZN4giac7_rm_a_zERKNS_3genEPKNS_7contextE @4463
    _ZN4giac7_rotateERKNS_3genEPKNS_7contextE @4464
    _ZN4giac7_rowAddERKNS_3genEPKNS_7contextE @4465
    _ZN4giac7_rsolveERKNS_3genEPKNS_7contextE @4466
    _ZN4giac7_s_unitE @4467 DATA
    _ZN4giac7_selectERKNS_3genEPKNS_7contextE @4468
    _ZN4giac7_seriesERKNS_3genEPKNS_7contextE @4469
    _ZN4giac7_sincosERKNS_3genEPKNS_7contextE @4470
    _ZN4giac7_sommetERKNS_3genEPKNS_7contextE @4471
    _ZN4giac7_sphereERKNS_3genEPKNS_7contextE @4472
    _ZN4giac7_splineERKNS_3genEPKNS_7contextE @4473
    _ZN4giac7_sst_inERKNS_3genEPKNS_7contextE @4474
    _ZN4giac7_stdDevERKNS_3genEPKNS_7contextE @4475
    _ZN4giac7_stddevERKNS_3genEPKNS_7contextE @4476
    _ZN4giac7_stringERKNS_3genEPKNS_7contextE @4477
    _ZN4giac7_subMatERKNS_3genEPKNS_7contextE @4478
    _ZN4giac7_subsopERKNS_3genEPKNS_7contextE @4479
    _ZN4giac7_t_unitE @4480 DATA
    _ZN4giac7_taylorERKNS_3genEPKNS_7contextE @4481
    _ZN4giac7_tcoeffERKNS_3genEPKNS_7contextE @4482
    _ZN4giac7_u_unitE @4483 DATA
    _ZN4giac7_vectorERKNS_3genEPKNS_7contextE @4484
    _ZN4giac7_ztransERKNS_3genEPKNS_7contextE @4485
    _ZN4giac7a__IDNTE @4486 DATA
    _ZN4giac7acos2lnERKNS_3genEPKNS_7contextE @4487
    _ZN4giac7add_modEbRKSt6vectorIS0_IiSaIiEESaIS2_EES6_RS4_iiiiiiiii @4488
    _ZN4giac7add_mulEPA1_12__mpz_structRS1_RKNS_3genES6_ @4489
    _ZN4giac7addpolyERKNS_6tensorINS_3genEEERKS1_ @4490
    _ZN4giac7aplatirERKNS_15dbgprint_vectorINS_3genEEERS2_b @4491
    _ZN4giac7apply3dERKNS_3genES2_PKNS_7contextEPFS0_S2_S2_S5_E @4492
    _ZN4giac7archiveERSoRKNS_3genEPKNS_7contextE @4493
    _ZN4giac7ascsortERKNS_15dbgprint_vectorINS_3genEEEb @4494
    _ZN4giac7asin2lnERKNS_3genEPKNS_7contextE @4495
    _ZN4giac7at_BetaE @4496 DATA
    _ZN4giac7at_DROPE @4497 DATA
    _ZN4giac7at_Ei_fE @4498 DATA
    _ZN4giac7at_IFTEE @4499 DATA
    _ZN4giac7at_LINEE @4500 DATA
    _ZN4giac7at_OVERE @4501 DATA
    _ZN4giac7at_PICKE @4502 DATA
    _ZN4giac7at_RECTE @4503 DATA
    _ZN4giac7at_ROLLE @4504 DATA
    _ZN4giac7at_SWAPE @4505 DATA
    _ZN4giac7at_TextE @4506 DATA
    _ZN4giac7at_UTPCE @4507 DATA
    _ZN4giac7at_UTPFE @4508 DATA
    _ZN4giac7at_UTPNE @4509 DATA
    _ZN4giac7at_UTPTE @4510 DATA
    _ZN4giac7at_VARSE @4511 DATA
    _ZN4giac7at_ZetaE @4512 DATA
    _ZN4giac7at_acosE @4513 DATA
    _ZN4giac7at_acotE @4514 DATA
    _ZN4giac7at_acscE @4515 DATA
    _ZN4giac7at_argsE @4516 DATA
    _ZN4giac7at_asecE @4517 DATA
    _ZN4giac7at_asinE @4518 DATA
    _ZN4giac7at_atanE @4519 DATA
    _ZN4giac7at_blocE @4520 DATA
    _ZN4giac7at_caseE @4521 DATA
    _ZN4giac7at_ceilE @4522 DATA
    _ZN4giac7at_cellE @4523 DATA
    _ZN4giac7at_charE @4524 DATA
    _ZN4giac7at_combE @4525 DATA
    _ZN4giac7at_conjE @4526 DATA
    _ZN4giac7at_contE @4527 DATA
    _ZN4giac7at_coshE @4528 DATA
    _ZN4giac7at_curlE @4529 DATA
    _ZN4giac7at_diagE @4530 DATA
    _ZN4giac7at_egcdE @4531 DATA
    _ZN4giac7at_egvlE @4532 DATA
    _ZN4giac7at_erfcE @4533 DATA
    _ZN4giac7at_erfsE @4534 DATA
    _ZN4giac7at_evalE @4535 DATA
    _ZN4giac7at_exprE @4536 DATA
    _ZN4giac7at_fxndE @4537 DATA
    _ZN4giac7at_gotoE @4538 DATA
    _ZN4giac7at_gradE @4539 DATA
    _ZN4giac7at_haltE @4540 DATA
    _ZN4giac7at_hashE @4541 DATA
    _ZN4giac7at_headE @4542 DATA
    _ZN4giac7at_ibpuE @4543 DATA
    _ZN4giac7at_ifteE @4544 DATA
    _ZN4giac7at_iquoE @4545 DATA
    _ZN4giac7at_iremE @4546 DATA
    _ZN4giac7at_isomE @4547 DATA
    _ZN4giac7at_killE @4548 DATA
    _ZN4giac7at_lgcdE @4549 DATA
    _ZN4giac7at_lieuE @4550 DATA
    _ZN4giac7at_lvarE @4551 DATA
    _ZN4giac7at_meanE @4552 DATA
    _ZN4giac7at_modsE @4553 DATA
    _ZN4giac7at_oufrE @4554 DATA
    _ZN4giac7at_partE @4555 DATA
    _ZN4giac7at_pcarE @4556 DATA
    _ZN4giac7at_permE @4557 DATA
    _ZN4giac7at_planE @4558 DATA
    _ZN4giac7at_plotE @4559 DATA
    _ZN4giac7at_plusE @4560 DATA
    _ZN4giac7at_pminE @4561 DATA
    _ZN4giac7at_poleE @4562 DATA
    _ZN4giac7at_pourE @4563 DATA
    _ZN4giac7at_prodE @4564 DATA
    _ZN4giac7at_randE @4565 DATA
    _ZN4giac7at_rankE @4566 DATA
    _ZN4giac7at_ranmE @4567 DATA
    _ZN4giac7at_rdivE @4568 DATA
    _ZN4giac7at_readE @4569 DATA
    _ZN4giac7at_realE @4570 DATA
    _ZN4giac7at_rrefE @4571 DATA
    _ZN4giac7at_sameE @4572 DATA
    _ZN4giac7at_signE @4573 DATA
    _ZN4giac7at_sinhE @4574 DATA
    _ZN4giac7at_sizeE @4575 DATA
    _ZN4giac7at_smodE @4576 DATA
    _ZN4giac7at_sortE @4577 DATA
    _ZN4giac7at_sqrtE @4578 DATA
    _ZN4giac7at_subsE @4579 DATA
    _ZN4giac7at_surdE @4580 DATA
    _ZN4giac7at_tailE @4581 DATA
    _ZN4giac7at_tanhE @4582 DATA
    _ZN4giac7at_timeE @4583 DATA
    _ZN4giac7at_tlinE @4584 DATA
    _ZN4giac7at_tranE @4585 DATA
    _ZN4giac7at_typeE @4586 DATA
    _ZN4giac7at_unitE @4587 DATA
    _ZN4giac7at_whenE @4588 DATA
    _ZN4giac7at_zeroE @4589 DATA
    _ZN4giac7atan2lnERKNS_3genEPKNS_7contextE @4590
    _ZN4giac7b__IDNTE @4591 DATA
    _ZN4giac7basis_tC1Ejj @4592
    _ZN4giac7c__IDNTE @4593 DATA
    _ZN4giac7casevalEPKc @4594
    _ZN4giac7cfactorERKNS_6tensorINS_3genEEERS1_RSt6vectorINS_7facteurIS2_EESaIS8_EEbS5_ @4595
    _ZN4giac7chinremERKNS_15dbgprint_vectorINS_3genEEES4_S4_S4_PNS_11environmentE @4596
    _ZN4giac7chinremERNS_5poly8ERKNS_3genERKNS_7polymodEiS1_ @4597
    _ZN4giac7chinremERNS_5poly8ERKNS_3genES1_S4_S1_ @4598
    _ZN4giac7chinremERNS_9vectpoly8ERKNS_3genERKNS_11vectpolymodEiRNS_5poly8E @4599
    _ZN4giac7chinremERNS_9vectpoly8ERKNS_3genES1_S4_RNS_5poly8E @4600
    _ZN4giac7collectERKNS_11vectpolymodERKSt6vectorIjSaIjEERNS_7polymodEj @4601
    _ZN4giac7collectERKNS_11vectpolymodERNS_7polymodEi @4602
    _ZN4giac7collectERKNS_11vectpolymodERSt6vectorISt4pairIjjESaIS5_EERNS_7polymodERS3_INS_6tdeg_tESaISB_EESE_ @4603
    _ZN4giac7collectERKNS_3genEPKNS_7contextE @4604
    _ZN4giac7collectERKNS_9vectpoly8ERNS_7polymodE @4605
    _ZN4giac7combineERKNS_15dbgprint_vectorINS_3genEEERKSt6vectorIS2_SaIS2_EEPNS_11environmentERNS_8vectpolyERS5_IbSaIbEEi @4606
    _ZN4giac7compareEjjRKSt6vectorIjSaIjEE @4607
    _ZN4giac7comprimERNS_15dbgprint_vectorINS_3genEEE @4608
    _ZN4giac7contextC1ERKS0_ @4609
    _ZN4giac7contextC1ERKSs @4610
    _ZN4giac7contextC1Ev @4611
    _ZN4giac7contextC2ERKS0_ @4612
    _ZN4giac7contextC2ERKSs @4613
    _ZN4giac7contextC2Ev @4614
    _ZN4giac7contextD1Ev @4615
    _ZN4giac7contextD2Ev @4616
    _ZN4giac7convertERKNS_11vectpolymodERKSt6vectorIjSaIjEERNS_9vectpoly8Ei @4617
    _ZN4giac7convertERKNS_11vectpolymodERNS_9vectpoly8Ei @4618
    _ZN4giac7convertERKNS_15dbgprint_vectorINS_3genEEERSt6vectorISt7complexIdESaIS7_EEb @4619
    _ZN4giac7convertERKNS_15dbgprint_vectorINS_3genEEERSt6vectorIdSaIdEEb @4620
    _ZN4giac7convertERKNS_5poly8ERNS_7polymodEi @4621
    _ZN4giac7convertERKNS_6tensorINS_3genEEES4_RSt6vectorIsSaIsEERS5_IjSaIjEERS5_INS_10T_unsignedIS1_jEESaISD_EESG_ @4622
    _ZN4giac7convertERKNS_6tensorINS_3genEEES4_RSt6vectorIsSaIsEERS5_IjSaIjEERS5_INS_10T_unsignedIijEESaISD_EESG_i @4623
    _ZN4giac7convertERKNS_7polymodERNS_5poly8Ei @4624
    _ZN4giac7convertERKNS_7polymodERNS_8zpolymodERKSt6vectorINS_6tdeg_tESaIS6_EE @4625
    _ZN4giac7convertERKNS_8zpolymodERNS_7polymodE @4626
    _ZN4giac7convertERKNS_9vectpoly8ERNS_11vectpolymodEi @4627
    _ZN4giac7convertERKSt6vectorISt7complexIdESaIS2_EERNS_15dbgprint_vectorINS_3genEEE @4628
    _ZN4giac7convertERKSt6vectorIdSaIdEERNS_15dbgprint_vectorINS_3genEEE @4629
    _ZN4giac7convertERKSt6vectorIiSaIiEERS0_INS_14sparse_elementESaIS5_EERS0_IcSaIcEE @4630
    _ZN4giac7convertINS_3genEjEEvRKNS_6tensorIT_EERKSt6vectorIsSaIsEERS7_INS_10T_unsignedIS3_T0_EESaISE_EE @4631
    _ZN4giac7convertINS_3genEjEEvRKSt6vectorINS_10T_unsignedIT_T0_EESaIS6_EERKS2_IsSaIsEERNS_6tensorIS4_EE @4632
    _ZN4giac7convertINS_3genEyEEvRKNS_6tensorIT_EERKSt6vectorIsSaIsEERS7_INS_10T_unsignedIS3_T0_EESaISE_EE @4633
    _ZN4giac7convertINS_3genEyEEvRKSt6vectorINS_10T_unsignedIT_T0_EESaIS6_EERKS2_IsSaIsEERNS_6tensorIS4_EE @4634
    _ZN4giac7cos2expERKNS_3genEPKNS_7contextE @4635
    _ZN4giac7cst_mu0E @4636 DATA
    _ZN4giac7cst_muBE @4637 DATA
    _ZN4giac7cst_muNE @4638 DATA
    _ZN4giac7cst_phiE @4639 DATA
    _ZN4giac7cst_qmeE @4640 DATA
    _ZN4giac7csv2genERSiccccPKNS_7contextE @4641
    _ZN4giac7d__IDNTE @4642 DATA
    _ZN4giac7densityEddd @4643
    _ZN4giac7desolveERKNS_3genES2_S2_RiRNS_15dbgprint_vectorIS0_EEPKNS_7contextE @4644
    _ZN4giac7divrem1ERKNS_6tensorINS_3genEEES4_RS2_S5_ib @4645
    _ZN4giac7ducos_eERKNS_6tensorINS_3genEEES4_S4_RS2_ @4646
    _ZN4giac7e__IDNTE @4647 DATA
    _ZN4giac7egcdpsrERKNS_6tensorINS_3genEEES4_RS2_S5_S5_ @4648
    _ZN4giac7epsilonEPKNS_7contextE @4649
    _ZN4giac7epsilonEdPKNS_7contextE @4650
    _ZN4giac7eqwdataC1ERKS0_ @4651
    _ZN4giac7eqwdataD1Ev @4652
    _ZN4giac7erase3dEv @4653
    _ZN4giac7exp2powERKNS_3genEPKNS_7contextE @4654
    _ZN4giac7exp_tabE @4655 DATA
    _ZN4giac7ext_addERKNS_3genES2_PKNS_7contextE @4656
    _ZN4giac7ext_mulERKNS_3genES2_PKNS_7contextE @4657
    _ZN4giac7ext_subERKNS_3genES2_PKNS_7contextE @4658
    _ZN4giac7f__IDNTE @4659 DATA
    _ZN4giac7facteurINS_15dbgprint_vectorINS_3genEEEEC1ERKS3_i @4660
    _ZN4giac7facteurINS_15dbgprint_vectorINS_3genEEEEC1ERKS4_ @4661
    _ZN4giac7facteurINS_15dbgprint_vectorINS_3genEEEED1Ev @4662
    _ZN4giac7facteurINS_15dbgprint_vectorINS_3genEEEEaSERKS4_ @4663
    _ZN4giac7facteurINS_6tensorINS_3genEEEEC1ERKS3_i @4664
    _ZN4giac7facteurINS_6tensorINS_3genEEEEC1ERKS4_ @4665
    _ZN4giac7facteurINS_6tensorINS_3genEEEED1Ev @4666
    _ZN4giac7facteurINS_6tensorINS_3genEEEEaSERKS4_ @4667
    _ZN4giac7factorsERKNS_3genES2_PKNS_7contextE @4668
    _ZN4giac7fftconvERKNS_15dbgprint_vectorINS_3genEEES4_mRKS1_RS2_PNS_11environmentE @4669
    _ZN4giac7fftconvERKNS_15dbgprint_vectorINS_3genEEES4_mmRKS1_RS2_PNS_11environmentE @4670
    _ZN4giac7fftmultERKNS_15dbgprint_vectorINS_3genEEES4_ @4671
    _ZN4giac7fftmultERKNS_15dbgprint_vectorINS_3genEEES4_RS2_ @4672
    _ZN4giac7findposERKNS_15dbgprint_vectorINS_3genEEERKS1_ @4673
    _ZN4giac7fminmaxERKNS_3genEiPKNS_7contextE @4674
    _ZN4giac7fracmodERKNS_15dbgprint_vectorINS_3genEEERKS1_ @4675
    _ZN4giac7fracmodERKNS_3genES2_ @4676
    _ZN4giac7fracmodERKNS_3genES2_RS0_ @4677
    _ZN4giac7g__IDNTE @4678 DATA
    _ZN4giac7gbasis8ERKNS_8vectpolyERiRS0_PNS_11environmentEbRbPKNS_7contextE @4679
    _ZN4giac7gcd_extERKSt6vectorINS_10T_unsignedINS_3genEjEESaIS3_EES7_RS5_S8_S8_RKS0_IjSaIjEEbi @4680
    _ZN4giac7gen2GENERKNS_3genERKNS_15dbgprint_vectorIS0_EEPKNS_7contextE @4681
    _ZN4giac7gen2svgERKNS_3genEPKNS_7contextE @4682
    _ZN4giac7gen2texERKNS_3genEPKNS_7contextE @4683
    _ZN4giac7getfoldERKNS_3genE @4684
    _ZN4giac7ggb_varERKNS_3genE @4685
    _ZN4giac7giacmaxERKSt6vectorIiSaIiEE @4686
    _ZN4giac7giacmaxEii @4687
    _ZN4giac7giacminERKSt6vectorIiSaIiEE @4688
    _ZN4giac7giacminEii @4689
    _ZN4giac7gprintfERKSsRKNS_15dbgprint_vectorINS_3genEEEPKNS_7contextE @4690
    _ZN4giac7gprintfEjRKSsRKNS_15dbgprint_vectorINS_3genEEEPKNS_7contextE @4691
    _ZN4giac7h__IDNTE @4692 DATA
    _ZN4giac7halftanERKNS_3genEPKNS_7contextE @4693
    _ZN4giac7heap_ttC1EbjjNS_6tdeg_tE @4694
    _ZN4giac7heap_ttC1EjjNS_6tdeg_tE @4695
    _ZN4giac7hermiteERKNS_10std_matrixINS_3genEEERS2_S5_PNS_11environmentEPKNS_7contextE @4696
    _ZN4giac7hermiteEi @4697
    _ZN4giac7hyp2expERKNS_3genEPKNS_7contextE @4698
    _ZN4giac7i__IDNTE @4699 DATA
    _ZN4giac7ifactorERKNS_3genEPKNS_7contextE @4700
    _ZN4giac7index_m3endEv @4701
    _ZN4giac7index_m4backEv @4702
    _ZN4giac7index_m5beginEv @4703
    _ZN4giac7index_m5clearEv @4704
    _ZN4giac7index_m5frontEv @4705
    _ZN4giac7index_m7reserveEj @4706
    _ZN4giac7index_m9push_backEs @4707
    _ZN4giac7index_mC1EN9__gnu_cxx17__normal_iteratorIPKsSt6vectorIsSaIsEEEES8_ @4708
    _ZN4giac7index_mC1EPs @4709
    _ZN4giac7index_mC1ERKS0_ @4710
    _ZN4giac7index_mC1ERKSt6vectorIsSaIsEE @4711
    _ZN4giac7index_mC1Ej @4712
    _ZN4giac7index_mC1Ev @4713
    _ZN4giac7index_mD1Ev @4714
    _ZN4giac7index_maSERKS0_ @4715
    _ZN4giac7index_mixEj @4716
    _ZN4giac7inv_EXTERKNS_3genE @4717
    _ZN4giac7inverseERKSt6vectorIiSaIiEE @4718
    _ZN4giac7is_realERKNS_3genEPKNS_7contextE @4719
    _ZN4giac7is_sqrtERKNS_3genERS0_ @4720
    _ZN4giac7is_unitERKNS_3genE @4721
    _ZN4giac7is_zeroERKNS_3genEPKNS_7contextE @4722
    _ZN4giac7is_zeroERKSt6vectorIiSaIiEE @4723
    _ZN4giac7is_zeroERKSt6vectorIsSaIsEE @4724
    _ZN4giac7is_zeroERKd @4725
    _ZN4giac7is_zeroERKi @4726
    _ZN4giac7is_zeroERKx @4727
    _ZN4giac7j__IDNTE @4728 DATA
    _ZN4giac7k__IDNTE @4729 DATA
    _ZN4giac7l2norm2ERKNS_3genE @4730
    _ZN4giac7l__IDNTE @4731 DATA
    _ZN4giac7laplaceERKNS_3genES2_S2_PKNS_7contextE @4732
    _ZN4giac7lcmdenoERKNS_6tensorINS_3genEEERS1_ @4733
    _ZN4giac7lcmdenoERNS_15dbgprint_vectorINS_3genEEERS1_PKNS_7contextE @4734
    _ZN4giac7lcmdenoERNS_15dbgprint_vectorINS_6monomeEEERNS_3genEPKNS_7contextE @4735
    _ZN4giac7lcoeff1ERKNS_6tensorINS_3genEEE @4736
    _ZN4giac7lcoeffnERKNS_6tensorINS_3genEEE @4737
    _ZN4giac7lexsortINS_3genEEEvRSt6vectorINS_8monomialIT_EESaIS5_EE @4738
    _ZN4giac7lgcdmodERKNS_6tensorINS_3genEEERKS1_RS2_ @4739
    _ZN4giac7listmaxERKNS_6tensorINS_3genEEERS1_ @4740
    _ZN4giac7lngammaERKNS_3genEPKNS_7contextE @4741
    _ZN4giac7lngammaEd @4742
    _ZN4giac7m__IDNTE @4743 DATA
    _ZN4giac7m_gammaEPKNS_7contextE @4744
    _ZN4giac7m_gammaEi @4745
    _ZN4giac7makemapEv @4746
    _ZN4giac7makemodERKNS_3genES2_ @4747
    _ZN4giac7min_polERNS_3genE @4748
    _ZN4giac7mjordanERKNS_15dbgprint_vectorINS_3genEEEbPKNS_7contextE @4749
    _ZN4giac7mmultckERKNS_15dbgprint_vectorINS_3genEEES4_ @4750
    _ZN4giac7mmultckERKNS_15dbgprint_vectorINS_3genEEES4_RS2_ @4751
    _ZN4giac7mod_gcdERKNS_6tensorINS_3genEEES4_RKS1_RS2_S7_S7_b @4752
    _ZN4giac7mod_gcdERKSt6vectorINS_10T_unsignedIS0_IiSaIiEEjEESaIS4_EES8_PKS3_iRKS0_IjSaIjEERS6_SF_SF_bi @4753
    _ZN4giac7mod_gcdERKSt6vectorINS_10T_unsignedIijEESaIS2_EES6_PKS0_IiSaIiEEiRKS0_IjSaIjEERS4_SF_SF_bi @4754
    _ZN4giac7mod_gcdERKSt6vectorINS_10T_unsignedIijEESaIS2_EES6_iRS4_S7_S7_RKS0_IjSaIjEEbbi @4755
    _ZN4giac7mod_gcdERKSt6vectorINS_10T_unsignedIijEESaIS2_EES6_iRS4_S7_S7_RKS0_IjSaIjEEbi @4756
    _ZN4giac7modmultEiij @4757
    _ZN4giac7modrrefERKNS_15dbgprint_vectorINS_3genEEERS2_S5_RS1_RKS1_ @4758
    _ZN4giac7modrrefERKNS_15dbgprint_vectorINS_3genEEERS2_S5_RS1_iiiiiiRKS1_i @4759
    _ZN4giac7mon_maxEii @4760
    _ZN4giac7mulpolyERKNS_6tensorINS_3genEEERKS1_RS2_ @4761
    _ZN4giac7mulpolyERKNS_6tensorINS_3genEEES4_RS2_RKS1_ @4762
    _ZN4giac7n__IDNTE @4763 DATA
    _ZN4giac7nfactorC1ERKNS_3genEi @4764
    _ZN4giac7nfactorC1ERKS0_ @4765
    _ZN4giac7nfactorD1Ev @4766
    _ZN4giac7nfactoraSERKS0_ @4767
    _ZN4giac7nr_evalERKNS_3genEiPKNS_7contextE @4768
    _ZN4giac7nr_progC1EPNS_7contextERKNS_3genES5_bi @4769
    _ZN4giac7nr_progC1ERKS0_ @4770
    _ZN4giac7nr_progD1Ev @4771
    _ZN4giac7nr_progaSERKS0_ @4772
    _ZN4giac7nrandomEPNS_11environmentE @4773
    _ZN4giac7o__IDNTE @4774 DATA
    _ZN4giac7p__IDNTE @4775 DATA
    _ZN4giac7perminvERKSt6vectorIiSaIiEE @4776
    _ZN4giac7peval_1ERKNS_6tensorINS_3genEEERKNS_15dbgprint_vectorIS1_EERKS1_ @4777
    _ZN4giac7plotseqERKNS_3genES2_dddiRKNS_15dbgprint_vectorIS0_EEPKNS_7contextE @4778
    _ZN4giac7pnormalERNS_15dbgprint_vectorINS_6monomeEEEPKNS_7contextE @4779
    _ZN4giac7poissonERKNS_3genES2_PKNS_7contextE @4780
    _ZN4giac7polymodC1ERKNS_6tensorINS_3genEEEii @4781
    _ZN4giac7polymodC1ERKS0_ @4782
    _ZN4giac7polymodC1Eii @4783
    _ZN4giac7polymodC1Ev @4784
    _ZN4giac7polymodD1Ev @4785
    _ZN4giac7polymodaSERKS0_ @4786
    _ZN4giac7pow_tabE @4787 DATA
    _ZN4giac7powpolyERKNS_6tensorINS_3genEEEiRS2_ @4788
    _ZN4giac7prevertERKNS_15dbgprint_vectorINS_6monomeEEERS2_PKNS_7contextE @4789
    _ZN4giac7prodsumERKNS_3genEb @4790
    _ZN4giac7productERKNS_6tensorINS_3genEEERKNS_15dbgprint_vectorIS1_EERKS1_RS1_PKNS_7contextE @4791
    _ZN4giac7productERKNS_6tensorINS_3genEEERKNS_15dbgprint_vectorIS1_EERKS1_SA_SA_PKNS_7contextE @4792
    _ZN4giac7q__IDNTE @4793 DATA
    _ZN4giac7qmatrixERKNS_15dbgprint_vectorINS_3genEEEPNS_11environmentERSt6vectorIS2_SaIS2_EEi @4794
    _ZN4giac7qualifyERNS_3genERKNS_15dbgprint_vectorIS0_EERKS0_PKNS_7contextE @4795
    _ZN4giac7r__IDNTE @4796 DATA
    _ZN4giac7rand_3dEv @4797
    _ZN4giac7readvarERKNS_3genE @4798
    _ZN4giac7reim_opE @4799 DATA
    _ZN4giac7residueERKNS_3genES2_S2_PKNS_7contextE @4800
    _ZN4giac7rombergERKNS_3genES2_S2_S2_S2_iPKNS_7contextE @4801
    _ZN4giac7rpn_ansEv @4802
    _ZN4giac7rur_dimEii @4803
    _ZN4giac7s__IDNTE @4804 DATA
    _ZN4giac7seqprodERKNS_3genEiPKNS_7contextE @4805
    _ZN4giac7sin2expERKNS_3genEPKNS_7contextE @4806
    _ZN4giac7splitluERNS_15dbgprint_vectorINS_3genEEES3_ @4807
    _ZN4giac7studentERKNS_3genES2_PKNS_7contextE @4808
    _ZN4giac7sturmabERKNS_3genES2_S2_S2_PKNS_7contextE @4809
    _ZN4giac7sub_modERKSt6vectorIS0_IiSaIiEESaIS2_EES6_RS4_iiiiiiiii @4810
    _ZN4giac7sub_mulEPA1_12__mpz_structRS1_RKNS_3genES6_ @4811
    _ZN4giac7subpolyERKNS_6tensorINS_3genEEERKS1_ @4812
    _ZN4giac7svg_endE @4813 DATA
    _ZN4giac7swapgenERNS_3genES1_ @4814
    _ZN4giac7swapintERiS0_ @4815
    _ZN4giac7sym_addERKNS_3genES2_PKNS_7contextE @4816
    _ZN4giac7sym_subERKNS_3genES2_PKNS_7contextE @4817
    _ZN4giac7symb_atERKNS_3genE @4818
    _ZN4giac7symb_atERKNS_3genES2_PKNS_7contextE @4819
    _ZN4giac7symb_lnERKNS_3genE @4820
    _ZN4giac7symb_ofERKNS_3genE @4821
    _ZN4giac7symb_ofERKNS_3genES2_ @4822
    _ZN4giac7symb_ouERKNS_3genES2_ @4823
    _ZN4giac7t__IDNTE @4824 DATA
    _ZN4giac7tan2expERKNS_3genEPKNS_7contextE @4825
    _ZN4giac7tan_tabE @4826 DATA
    _ZN4giac7tex_endE @4827 DATA
    _ZN4giac7threadsE @4828 DATA
    _ZN4giac7trigcosERKNS_3genEPKNS_7contextE @4829
    _ZN4giac7trigsinERKNS_3genEPKNS_7contextE @4830
    _ZN4giac7trigtanERKNS_3genEPKNS_7contextE @4831
    _ZN4giac7u__IDNTE @4832 DATA
    _ZN4giac7unitpowERKNS_3genES2_ @4833
    _ZN4giac7unquoteERKNS_3genEPKNS_7contextE @4834
    _ZN4giac7unquoteERKSs @4835
    _ZN4giac7untruncERKNS_3genEii @4836
    _ZN4giac7v__IDNTE @4837 DATA
    _ZN4giac7versionEv @4838
    _ZN4giac7w__IDNTE @4839 DATA
    _ZN4giac7weibullERKNS_3genES2_S2_S2_PKNS_7contextE @4840
    _ZN4giac7wstrlenEPKcj @4841
    _ZN4giac7wstrlenEPKw @4842
    _ZN4giac7x__IDNTE @4843 DATA
    _ZN4giac7x_to_xpERKNS_15dbgprint_vectorINS_3genEEEi @4844
    _ZN4giac7xpower1Ev @4845
    _ZN4giac7y__IDNTE @4846 DATA
    _ZN4giac7z__IDNTE @4847 DATA
    _ZN4giac7zgbasisERNS_9vectpoly8ERNS_11vectpolymodERSt6vectorIjSaIjEEibPS4_ISt4pairIjjESaIS9_EERS4_INS_7zinfo_tESaISD_EEbb @4848
    _ZN4giac7zinfo_tC1ERKS0_ @4849
    _ZN4giac7zinfo_tC1Ev @4850
    _ZN4giac7zinfo_tD1Ev @4851
    _ZN4giac7zinfo_taSERKS0_ @4852
    _ZN4giac8D_at_Ci0E @4853 DATA
    _ZN4giac8D_at_Ei0E @4854 DATA
    _ZN4giac8D_at_EtaE @4855 DATA
    _ZN4giac8D_at_PsiE @4856 DATA
    _ZN4giac8D_at_absE @4857 DATA
    _ZN4giac8D_at_cosE @4858 DATA
    _ZN4giac8D_at_erfE @4859 DATA
    _ZN4giac8D_at_expE @4860 DATA
    _ZN4giac8D_at_negE @4861 DATA
    _ZN4giac8D_at_sinE @4862 DATA
    _ZN4giac8D_at_tanE @4863 DATA
    _ZN4giac8GRIDCELLC1Ev @4864
    _ZN4giac8GRIDCELLD1Ev @4865
    _ZN4giac8TcontentINS_3genEEET_RKNS_6tensorIS2_EE @4866
    _ZN4giac8TegcdpsrINS_3genEEEvRKNS_6tensorIT_EES6_RS4_S7_S7_ @4867
    _ZN4giac8TfracaddINS_3genEEEvRKNS_6tensorIT_EES6_S6_S6_RS4_S7_ @4868
    _ZN4giac8TlistmaxINS_3genEEEbRKNS_6tensorIT_EERS3_ @4869
    _ZN4giac8TproductINS_6tensorINS_3genEEEEET_NSt6vectorINS_7facteurIS4_EESaIS7_EE14const_iteratorESA_ @4870
    _ZN4giac8Untrunc1INS_3genEEEvRKSt6vectorINS_8monomialIT_EESaIS5_EEiRS7_ @4871
    _ZN4giac8UntruncnINS_3genEEEvRSt6vectorINS_8monomialIT_EESaIS5_EEi @4872
    _ZN4giac8_Airy_AiERKNS_3genEPKNS_7contextE @4873
    _ZN4giac8_Airy_BiERKNS_3genEPKNS_7contextE @4874
    _ZN4giac8_ArchiveERKNS_3genEPKNS_7contextE @4875
    _ZN4giac8_BesselIERKNS_3genEPKNS_7contextE @4876
    _ZN4giac8_BesselJERKNS_3genEPKNS_7contextE @4877
    _ZN4giac8_BesselKERKNS_3genEPKNS_7contextE @4878
    _ZN4giac8_BesselYERKNS_3genEPKNS_7contextE @4879
    _ZN4giac8_Bq_unitE @4880 DATA
    _ZN4giac8_ClrDrawERKNS_3genEPKNS_7contextE @4881
    _ZN4giac8_CopyVarERKNS_3genEPKNS_7contextE @4882
    _ZN4giac8_DEGXRADERKNS_3genEPKNS_7contextE @4883
    _ZN4giac8_DelFoldERKNS_3genEPKNS_7contextE @4884
    _ZN4giac8_DrawInvERKNS_3genEPKNS_7contextE @4885
    _ZN4giac8_DrawSlpERKNS_3genEPKNS_7contextE @4886
    _ZN4giac8_EDITMATERKNS_3genEPKNS_7contextE @4887
    _ZN4giac8_EIGENVVERKNS_3genEPKNS_7contextE @4888
    _ZN4giac8_EXPORT_ERKNS_3genEPKNS_7contextE @4889
    _ZN4giac8_FF_unitE @4890 DATA
    _ZN4giac8_GetFoldERKNS_3genEPKNS_7contextE @4891
    _ZN4giac8_Gy_unitE @4892 DATA
    _ZN4giac8_HDigitsERKNS_3genEPKNS_7contextE @4893
    _ZN4giac8_HFormatERKNS_3genEPKNS_7contextE @4894
    _ZN4giac8_Hz_unitE @4895 DATA
    _ZN4giac8_IDNT_piEv @4896
    _ZN4giac8_ISOLATEERKNS_3genEPKNS_7contextE @4897
    _ZN4giac8_ITERATEERKNS_3genEPKNS_7contextE @4898
    _ZN4giac8_InverseERKNS_3genEPKNS_7contextE @4899
    _ZN4giac8_LineTanERKNS_3genEPKNS_7contextE @4900
    _ZN4giac8_MAKEMATERKNS_3genEPKNS_7contextE @4901
    _ZN4giac8_MAXREALERKNS_3genEPKNS_7contextE @4902
    _ZN4giac8_MINREALERKNS_3genEPKNS_7contextE @4903
    _ZN4giac8_NTHROOTERKNS_3genEPKNS_7contextE @4904
    _ZN4giac8_NewFoldERKNS_3genEPKNS_7contextE @4905
    _ZN4giac8_PERCENTERKNS_3genEPKNS_7contextE @4906
    _ZN4giac8_Pa_unitE @4907 DATA
    _ZN4giac8_RADXDEGERKNS_3genEPKNS_7contextE @4908
    _ZN4giac8_RANDMATERKNS_3genEPKNS_7contextE @4909
    _ZN4giac8_RECURSEERKNS_3genEPKNS_7contextE @4910
    _ZN4giac8_REPLACEERKNS_3genEPKNS_7contextE @4911
    _ZN4giac8_RPN_FORERKNS_3genEPKNS_7contextE @4912
    _ZN4giac8_RequestERKNS_3genEPKNS_7contextE @4913
    _ZN4giac8_RplcPicERKNS_3genEPKNS_7contextE @4914
    _ZN4giac8_SPECRADERKNS_3genEPKNS_7contextE @4915
    _ZN4giac8_SWAPCOLERKNS_3genEPKNS_7contextE @4916
    _ZN4giac8_SetFoldERKNS_3genEPKNS_7contextE @4917
    _ZN4giac8_St_unitE @4918 DATA
    _ZN4giac8_Sv_unitE @4919 DATA
    _ZN4giac8_Wb_unitE @4920 DATA
    _ZN4giac8_Wh_unitE @4921 DATA
    _ZN4giac8_ZoomRclERKNS_3genEPKNS_7contextE @4922
    _ZN4giac8_ZoomStoERKNS_3genEPKNS_7contextE @4923
    _ZN4giac8__A_unitE @4924 DATA
    _ZN4giac8__C_unitE @4925 DATA
    _ZN4giac8__E_unitE @4926 DATA
    _ZN4giac8__F_unitE @4927 DATA
    _ZN4giac8__GETKEYE @4928 DATA
    _ZN4giac8__H_unitE @4929 DATA
    _ZN4giac8__J_unitE @4930 DATA
    _ZN4giac8__K_unitE @4931 DATA
    _ZN4giac8__L_unitE @4932 DATA
    _ZN4giac8__N_unitE @4933 DATA
    _ZN4giac8__P_unitE @4934 DATA
    _ZN4giac8__R_unitE @4935 DATA
    _ZN4giac8__S_unitE @4936 DATA
    _ZN4giac8__T_unitE @4937 DATA
    _ZN4giac8__V_unitE @4938 DATA
    _ZN4giac8__W_unitE @4939 DATA
    _ZN4giac8__a_unitE @4940 DATA
    _ZN4giac8__b_unitE @4941 DATA
    _ZN4giac8__d_unitE @4942 DATA
    _ZN4giac8__g_unitE @4943 DATA
    _ZN4giac8__getKeyE @4944 DATA
    _ZN4giac8__h_unitE @4945 DATA
    _ZN4giac8__j_unitE @4946 DATA
    _ZN4giac8__l_unitE @4947 DATA
    _ZN4giac8__m_unitE @4948 DATA
    _ZN4giac8__s_unitE @4949 DATA
    _ZN4giac8__t_unitE @4950 DATA
    _ZN4giac8__u_unitE @4951 DATA
    _ZN4giac8_algsubsERKNS_3genEPKNS_7contextE @4952
    _ZN4giac8_angleatERKNS_3genEPKNS_7contextE @4953
    _ZN4giac8_animateERKNS_3genEPKNS_7contextE @4954
    _ZN4giac8_archiveERKNS_3genEPKNS_7contextE @4955
    _ZN4giac8_au_unitE @4956 DATA
    _ZN4giac8_augmentERKNS_3genEPKNS_7contextE @4957
    _ZN4giac8_cFactorERKNS_3genEPKNS_7contextE @4958
    _ZN4giac8_casevalERKNS_3genEPKNS_7contextE @4959
    _ZN4giac8_cd_unitE @4960 DATA
    _ZN4giac8_cf_unitE @4961 DATA
    _ZN4giac8_cfsolveERKNS_3genEPKNS_7contextE @4962
    _ZN4giac8_chinremERKNS_3genEPKNS_7contextE @4963
    _ZN4giac8_classesERKNS_3genEPKNS_7contextE @4964
    _ZN4giac8_colNormERKNS_3genEPKNS_7contextE @4965
    _ZN4giac8_collectERKNS_3genEPKNS_7contextE @4966
    _ZN4giac8_combineERKNS_3genEPKNS_7contextE @4967
    _ZN4giac8_commentERKNS_3genEPKNS_7contextE @4968
    _ZN4giac8_compareERKNS_3genEPKNS_7contextE @4969
    _ZN4giac8_composeERKNS_3genEPKNS_7contextE @4970
    _ZN4giac8_coniqueERKNS_3genEPKNS_7contextE @4971
    _ZN4giac8_contentERKNS_3genEPKNS_7contextE @4972
    _ZN4giac8_convertERKNS_3genEPKNS_7contextE @4973
    _ZN4giac8_couleurERKNS_3genEPKNS_7contextE @4974
    _ZN4giac8_cst_mu0E @4975 DATA
    _ZN4giac8_cst_muBE @4976 DATA
    _ZN4giac8_cst_muNE @4977 DATA
    _ZN4giac8_cst_phiE @4978 DATA
    _ZN4giac8_cst_qmeE @4979 DATA
    _ZN4giac8_csv2genERKNS_3genEPKNS_7contextE @4980
    _ZN4giac8_ct_unitE @4981 DATA
    _ZN4giac8_dB_unitE @4982 DATA
    _ZN4giac8_deSolveERKNS_3genEPKNS_7contextE @4983
    _ZN4giac8_delcolsERKNS_3genEPKNS_7contextE @4984
    _ZN4giac8_delrowsERKNS_3genEPKNS_7contextE @4985
    _ZN4giac8_desolveERKNS_3genEPKNS_7contextE @4986
    _ZN4giac8_dotprodERKNS_3genEPKNS_7contextE @4987
    _ZN4giac8_eV_unitE @4988 DATA
    _ZN4giac8_elementERKNS_3genEPKNS_7contextE @4989
    _ZN4giac8_ellipseERKNS_3genEPKNS_7contextE @4990
    _ZN4giac8_epsilonERKNS_3genEPKNS_7contextE @4991
    _ZN4giac8_erase3dERKNS_3genEPKNS_7contextE @4992
    _ZN4giac8_evoluteERKNS_3genEPKNS_7contextE @4993
    _ZN4giac8_exp2powERKNS_3genEPKNS_7contextE @4994
    _ZN4giac8_factorsERKNS_3genEPKNS_7contextE @4995
    _ZN4giac8_feuilleERKNS_3genEPKNS_7contextE @4996
    _ZN4giac8_flattenERKNS_3genEPKNS_7contextE @4997
    _ZN4giac8_fm_unitE @4998 DATA
    _ZN4giac8_fracmodERKNS_3genEPKNS_7contextE @4999
    _ZN4giac8_ft_unitE @5000 DATA
    _ZN4giac8_genpolyERKNS_3genEPKNS_7contextE @5001
    _ZN4giac8_getTypeERKNS_3genEPKNS_7contextE @5002
    _ZN4giac8_gf_unitE @5003 DATA
    _ZN4giac8_greduceERKNS_3genEPKNS_7contextE @5004
    _ZN4giac8_ha_unitE @5005 DATA
    _ZN4giac8_halftanERKNS_3genEPKNS_7contextE @5006
    _ZN4giac8_hamdistERKNS_3genEPKNS_7contextE @5007
    _ZN4giac8_hauteurERKNS_3genEPKNS_7contextE @5008
    _ZN4giac8_hermiteERKNS_3genEPKNS_7contextE @5009
    _ZN4giac8_hessianERKNS_3genEPKNS_7contextE @5010
    _ZN4giac8_hilbertERKNS_3genEPKNS_7contextE @5011
    _ZN4giac8_hp_unitE @5012 DATA
    _ZN4giac8_hyp2expERKNS_3genEPKNS_7contextE @5013
    _ZN4giac8_ifactorERKNS_3genEPKNS_7contextE @5014
    _ZN4giac8_in_unitE @5015 DATA
    _ZN4giac8_inscritERKNS_3genEPKNS_7contextE @5016
    _ZN4giac8_inverseERKNS_3genEPKNS_7contextE @5017
    _ZN4giac8_iquoremERKNS_3genEPKNS_7contextE @5018
    _ZN4giac8_isprimeERKNS_3genEPKNS_7contextE @5019
    _ZN4giac8_kg_unitE @5020 DATA
    _ZN4giac8_laplaceERKNS_3genEPKNS_7contextE @5021
    _ZN4giac8_lb_unitE @5022 DATA
    _ZN4giac8_legendeERKNS_3genEPKNS_7contextE @5023
    _ZN4giac8_losangeERKNS_3genEPKNS_7contextE @5024
    _ZN4giac8_mRowAddERKNS_3genEPKNS_7contextE @5025
    _ZN4giac8_makematERKNS_3genEPKNS_7contextE @5026
    _ZN4giac8_makemodERKNS_3genEPKNS_7contextE @5027
    _ZN4giac8_maxnormERKNS_3genEPKNS_7contextE @5028
    _ZN4giac8_medianeERKNS_3genEPKNS_7contextE @5029
    _ZN4giac8_mi_unitE @5030 DATA
    _ZN4giac8_mn_unitE @5031 DATA
    _ZN4giac8_newListERKNS_3genEPKNS_7contextE @5032
    _ZN4giac8_normaldERKNS_3genEPKNS_7contextE @5033
    _ZN4giac8_normaltERKNS_3genEPKNS_7contextE @5034
    _ZN4giac8_nprimesERKNS_3genEPKNS_7contextE @5035
    _ZN4giac8_oz_unitE @5036 DATA
    _ZN4giac8_parameqERKNS_3genEPKNS_7contextE @5037
    _ZN4giac8_pc_unitE @5038 DATA
    _ZN4giac8_perminvERKNS_3genEPKNS_7contextE @5039
    _ZN4giac8_pk_unitE @5040 DATA
    _ZN4giac8_playsndERKNS_3genEPKNS_7contextE @5041
    _ZN4giac8_plotcdfERKNS_3genEPKNS_7contextE @5042
    _ZN4giac8_plotodeERKNS_3genEPKNS_7contextE @5043
    _ZN4giac8_plotseqERKNS_3genEPKNS_7contextE @5044
    _ZN4giac8_point2dERKNS_3genEPKNS_7contextE @5045
    _ZN4giac8_point3dERKNS_3genEPKNS_7contextE @5046
    _ZN4giac8_pointerERKNS_3genEPKNS_7contextE @5047
    _ZN4giac8_poissonERKNS_3genEPKNS_7contextE @5048
    _ZN4giac8_polaireERKNS_3genEPKNS_7contextE @5049
    _ZN4giac8_pow2expERKNS_3genEPKNS_7contextE @5050
    _ZN4giac8_prependERKNS_3genEPKNS_7contextE @5051
    _ZN4giac8_productERKNS_3genEPKNS_7contextE @5052
    _ZN4giac8_programERKNS_3genES2_PKNS_7contextE @5053
    _ZN4giac8_pt_unitE @5054 DATA
    _ZN4giac8_qt_unitE @5055 DATA
    _ZN4giac8_randexpERKNS_3genEPKNS_7contextE @5056
    _ZN4giac8_rd_unitE @5057 DATA
    _ZN4giac8_readrgbERKNS_3genEPKNS_7contextE @5058
    _ZN4giac8_readwavERKNS_3genEPKNS_7contextE @5059
    _ZN4giac8_regroupERKNS_3genEPKNS_7contextE @5060
    _ZN4giac8_reorderERKNS_3genEPKNS_7contextE @5061
    _ZN4giac8_residueERKNS_3genEPKNS_7contextE @5062
    _ZN4giac8_restartERKNS_3genEPKNS_7contextE @5063
    _ZN4giac8_revlistERKNS_3genEPKNS_7contextE @5064
    _ZN4giac8_rmwatchERKNS_3genEPKNS_7contextE @5065
    _ZN4giac8_rombergERKNS_3genEPKNS_7contextE @5066
    _ZN4giac8_rowNormERKNS_3genEPKNS_7contextE @5067
    _ZN4giac8_rowSwapERKNS_3genEPKNS_7contextE @5068
    _ZN4giac8_sb_unitE @5069 DATA
    _ZN4giac8_segmentERKNS_3genEPKNS_7contextE @5070
    _ZN4giac8_slopeatERKNS_3genEPKNS_7contextE @5071
    _ZN4giac8_sommetsERKNS_3genEPKNS_7contextE @5072
    _ZN4giac8_sqrfreeERKNS_3genEPKNS_7contextE @5073
    _ZN4giac8_st_unitE @5074 DATA
    _ZN4giac8_studentERKNS_3genEPKNS_7contextE @5075
    _ZN4giac8_sturmabERKNS_3genEPKNS_7contextE @5076
    _ZN4giac8_subtypeERKNS_3genEPKNS_7contextE @5077
    _ZN4giac8_tExpandERKNS_3genEPKNS_7contextE @5078
    _ZN4giac8_tangentERKNS_3genEPKNS_7contextE @5079
    _ZN4giac8_texpandERKNS_3genEPKNS_7contextE @5080
    _ZN4giac8_threadsERKNS_3genEPKNS_7contextE @5081
    _ZN4giac8_ti_semiERKNS_3genEPKNS_7contextE @5082
    _ZN4giac8_tilocalERKNS_3genEPKNS_7contextE @5083
    _ZN4giac8_tr_unitE @5084 DATA
    _ZN4giac8_trigcosERKNS_3genEPKNS_7contextE @5085
    _ZN4giac8_trigsinERKNS_3genEPKNS_7contextE @5086
    _ZN4giac8_trigtanERKNS_3genEPKNS_7contextE @5087
    _ZN4giac8_ufactorERKNS_3genEPKNS_7contextE @5088
    _ZN4giac8_unapplyERKNS_3genEPKNS_7contextE @5089
    _ZN4giac8_uniformERKNS_3genEPKNS_7contextE @5090
    _ZN4giac8_versionERKNS_3genEPKNS_7contextE @5091
    _ZN4giac8_virguleERKNS_3genEPKNS_7contextE @5092
    _ZN4giac8_weibullERKNS_3genEPKNS_7contextE @5093
    _ZN4giac8_yd_unitE @5094 DATA
    _ZN4giac8_yr_unitE @5095 DATA
    _ZN4giac8abs_normERKNS_3genEPKNS_7contextE @5096
    _ZN4giac8abs_normERKNS_3genES2_PKNS_7contextE @5097
    _ZN4giac8acos_tabE @5098 DATA
    _ZN4giac8alg_lvarERKNS_15dbgprint_vectorINS_6monomeEEERNS0_INS_3genEEE @5099
    _ZN4giac8alg_lvarERKNS_3genE @5100
    _ZN4giac8alg_lvarERKNS_3genERNS_15dbgprint_vectorIS0_EE @5101
    _ZN4giac8apply1stERKNS_3genES2_PFS0_S2_S2_E @5102
    _ZN4giac8apply1stERKNS_3genES2_PKNS_7contextEPFS0_S2_S2_S5_E @5103
    _ZN4giac8apply2ndERKNS_3genES2_PFS0_S2_S2_E @5104
    _ZN4giac8apply2ndERKNS_3genES2_PKNS_7contextEPFS0_S2_S2_S5_E @5105
    _ZN4giac8apply3rdERKNS_3genES2_S2_PKNS_7contextEPFS0_S2_S2_S2_S5_E @5106
    _ZN4giac8applyinvERKNS_3genEPKNS_7contextE @5107
    _ZN4giac8arg_CPLXERKNS_3genEPKNS_7contextE @5108
    _ZN4giac8asin_tabE @5109 DATA
    _ZN4giac8at_ClrIOE @5110 DATA
    _ZN4giac8at_DiracE @5111 DATA
    _ZN4giac8at_DispGE @5112 DATA
    _ZN4giac8at_GammaE @5113 DATA
    _ZN4giac8at_GraphE @5114 DATA
    _ZN4giac8at_HPINTE @5115 DATA
    _ZN4giac8at_HPSUME @5116 DATA
    _ZN4giac8at_InputE @5117 DATA
    _ZN4giac8at_PauseE @5118 DATA
    _ZN4giac8at_PopupE @5119 DATA
    _ZN4giac8at_ROLLDE @5120 DATA
    _ZN4giac8at_TitleE @5121 DATA
    _ZN4giac8at_VIEWSE @5122 DATA
    _ZN4giac8at_abcuvE @5123 DATA
    _ZN4giac8at_acoshE @5124 DATA
    _ZN4giac8at_angleE @5125 DATA
    _ZN4giac8at_applyE @5126 DATA
    _ZN4giac8at_arrayE @5127 DATA
    _ZN4giac8at_asinhE @5128 DATA
    _ZN4giac8at_atanhE @5129 DATA
    _ZN4giac8at_basisE @5130 DATA
    _ZN4giac8at_betadE @5131 DATA
    _ZN4giac8at_bitorE @5132 DATA
    _ZN4giac8at_breakE @5133 DATA
    _ZN4giac8at_carreE @5134 DATA
    _ZN4giac8at_clickE @5135 DATA
    _ZN4giac8at_countE @5136 DATA
    _ZN4giac8at_crossE @5137 DATA
    _ZN4giac8at_curveE @5138 DATA
    _ZN4giac8at_debugE @5139 DATA
    _ZN4giac8at_divisE @5140 DATA
    _ZN4giac8at_divpcE @5141 DATA
    _ZN4giac8at_equalE @5142 DATA
    _ZN4giac8at_eraseE @5143 DATA
    _ZN4giac8at_eulerE @5144 DATA
    _ZN4giac8at_evalbE @5145 DATA
    _ZN4giac8at_evalfE @5146 DATA
    _ZN4giac8at_evalmE @5147 DATA
    _ZN4giac8at_exactE @5148 DATA
    _ZN4giac8at_ezgcdE @5149 DATA
    _ZN4giac8at_floorE @5150 DATA
    _ZN4giac8at_frootE @5151 DATA
    _ZN4giac8at_gaussE @5152 DATA
    _ZN4giac8at_gcdexE @5153 DATA
    _ZN4giac8at_geo2dE @5154 DATA
    _ZN4giac8at_geo3dE @5155 DATA
    _ZN4giac8at_iPartE @5156 DATA
    _ZN4giac8at_ibpdvE @5157 DATA
    _ZN4giac8at_iegcdE @5158 DATA
    _ZN4giac8at_imageE @5159 DATA
    _ZN4giac8at_inputE @5160 DATA
    _ZN4giac8at_interE @5161 DATA
    _ZN4giac8at_labelE @5162 DATA
    _ZN4giac8at_latexE @5163 DATA
    _ZN4giac8at_limitE @5164 DATA
    _ZN4giac8at_lnameE @5165 DATA
    _ZN4giac8at_localE @5166 DATA
    _ZN4giac8at_log10E @5167 DATA
    _ZN4giac8at_lsmodE @5168 DATA
    _ZN4giac8at_minusE @5169 DATA
    _ZN4giac8at_moyalE @5170 DATA
    _ZN4giac8at_ncolsE @5171 DATA
    _ZN4giac8at_nrowsE @5172 DATA
    _ZN4giac8at_numerE @5173 DATA
    _ZN4giac8at_pa2b2E @5174 DATA
    _ZN4giac8at_pevalE @5175 DATA
    _ZN4giac8at_pixonE @5176 DATA
    _ZN4giac8at_pointE @5177 DATA
    _ZN4giac8at_printE @5178 DATA
    _ZN4giac8at_prootE @5179 DATA
    _ZN4giac8at_ptaylE @5180 DATA
    _ZN4giac8at_purgeE @5181 DATA
    _ZN4giac8at_questE @5182 DATA
    _ZN4giac8at_quoteE @5183 DATA
    _ZN4giac8at_rayonE @5184 DATA
    _ZN4giac8at_rischE @5185 DATA
    _ZN4giac8at_rmmodE @5186 DATA
    _ZN4giac8at_roundE @5187 DATA
    _ZN4giac8at_scaleE @5188 DATA
    _ZN4giac8at_schurE @5189 DATA
    _ZN4giac8at_simp2E @5190 DATA
    _ZN4giac8at_solveE @5191 DATA
    _ZN4giac8at_srandE @5192 DATA
    _ZN4giac8at_sturmE @5193 DATA
    _ZN4giac8at_substE @5194 DATA
    _ZN4giac8at_tableE @5195 DATA
    _ZN4giac8at_throwE @5196 DATA
    _ZN4giac8at_traceE @5197 DATA
    _ZN4giac8at_unionE @5198 DATA
    _ZN4giac8at_watchE @5199 DATA
    _ZN4giac8at_writeE @5200 DATA
    _ZN4giac8atan_tabE @5201 DATA
    _ZN4giac8atrig2lnERKNS_3genEPKNS_7contextE @5202
    _ZN4giac8autonameEPKNS_7contextE @5203
    _ZN4giac8autonameERKSsPKNS_7contextE @5204
    _ZN4giac8binomialERKNS_3genES2_S2_PKNS_7contextE @5205
    _ZN4giac8cdr_VECTERKNS_15dbgprint_vectorINS_3genEEE @5206
    _ZN4giac8cell2posERKNS_3genEiiRiS3_S3_S3_ @5207
    _ZN4giac8child_idE @5208 DATA
    _ZN4giac8cint2mpzERKNS_3genERA1_12__mpz_structS5_ @5209
    _ZN4giac8ckalgvarERKNS_3genEPKNS_7contextE @5210
    _ZN4giac8ckmatrixERKNS_15dbgprint_vectorINS_3genEEE @5211
    _ZN4giac8ckmatrixERKNS_15dbgprint_vectorINS_3genEEEb @5212
    _ZN4giac8ckmatrixERKNS_3genE @5213
    _ZN4giac8ckmatrixERKNS_3genEb @5214
    _ZN4giac8ckmtraceERKNS_3genEPKNS_7contextE @5215
    _ZN4giac8compressERNS_15dbgprint_vectorINS_3genEEEPKNS_7contextE @5216
    _ZN4giac8containsERKNS_15dbgprint_vectorINS_3genEEERKS1_ @5217
    _ZN4giac8containsERKNS_3genEPKNS_18unary_function_ptrE @5218
    _ZN4giac8containsERKNS_3genERKNS_18unary_function_ptrE @5219
    _ZN4giac8containsERKNS_3genES2_ @5220
    _ZN4giac8context0E @5221 DATA
    _ZN4giac8cos2tan2ERKNS_3genEPKNS_7contextE @5222
    _ZN4giac8cosh2expERKNS_3genEPKNS_7contextE @5223
    _ZN4giac8cst_StdPE @5224 DATA
    _ZN4giac8cst_StdTE @5225 DATA
    _ZN4giac8cst_hbarE @5226 DATA
    _ZN4giac8cst_mpmeE @5227 DATA
    _ZN4giac8cstcoeffERKNS_15dbgprint_vectorINS_3genEEE @5228
    _ZN4giac8cstcoeffERKNS_6tensorINS_3genEEE @5229
    _ZN4giac8cycleinvERKSt6vectorIiSaIiEE @5230
    _ZN4giac8dbgprintERKNS_3genE @5231
    _ZN4giac8dbgprintERKNS_6tensorINS_3genEEE @5232
    _ZN4giac8dbgprintERKSt6vectorIsSaIsEE @5233
    _ZN4giac8decalageERKNS_6tensorINS_3genEEES4_ @5234
    _ZN4giac8degtoradERKNS_3genEPKNS_7contextE @5235
    _ZN4giac8disjointERKNS_6tdeg_tES2_ss @5236
    _ZN4giac8disjointERKNS_7index_mES2_ @5237
    _ZN4giac8do_lnabsEPKNS_7contextE @5238
    _ZN4giac8do_lnabsEbPKNS_7contextE @5239
    _ZN4giac8ducos_e1ERKNS_6tensorINS_3genEEES4_S4_S4_RS2_ @5240
    _ZN4giac8effectifERKSt6vectorIiSaIiEERS2_i @5241
    _ZN4giac8egcdlgcdERKNS_6tensorINS_3genEEES4_RS2_S5_S5_ @5242
    _ZN4giac8est_dansERKNS_3genES2_PKNS_7contextE @5243
    _ZN4giac8est_rectERKNS_3genES2_S2_S2_PKNS_7contextE @5244
    _ZN4giac8eval_absEPKNS_7contextE @5245
    _ZN4giac8eval_absEbPKNS_7contextE @5246
    _ZN4giac8evalfuncERKNS_3genEPKNS_7contextE @5247
    _ZN4giac8exchangeERNS_13matrix_doubleES1_biii @5248
    _ZN4giac8fastnormERKNS_15dbgprint_vectorINS_3genEEEPKNS_7contextE @5249
    _ZN4giac8fastsignERKNS_3genEPKNS_7contextE @5250
    _ZN4giac8fglm_lexERKNS_8vectpolyERS0_jPNS_11environmentEPKNS_7contextE @5251
    _ZN4giac8find_n_xERKNS_3genERiRS0_S4_ @5252
    _ZN4giac8foisplusERKNS_6tensorINS_3genEEES4_S4_S4_ @5253
    _ZN4giac8fracvectERKNS_15dbgprint_vectorINS_3genEEE @5254
    _ZN4giac8freecopyERKNS_3genE @5255
    _ZN4giac8gen2polyERKNS_3genE @5256
    _ZN4giac8gen2polyERKNS_3genEi @5257
    _ZN4giac8gen_sortC1ERKNS_3genEPKNS_7contextE @5258
    _ZN4giac8gen_sortC1ERKS0_ @5259
    _ZN4giac8gen_sortD1Ev @5260
    _ZN4giac8gen_sortclERKNS_3genES3_ @5261
    _ZN4giac8gen_userC1ERKS0_ @5262
    _ZN4giac8gen_userC2Ev @5263
    _ZN4giac8gen_userD0Ev @5264
    _ZN4giac8gen_userD1Ev @5265
    _ZN4giac8gen_userD2Ev @5266
    _ZN4giac8gen_useraSERKS0_ @5267
    _ZN4giac8gen_userixERKNS_3genE @5268
    _ZN4giac8get_pathERKSs @5269
    _ZN4giac8giac_powERKNS_3genES2_PKNS_7contextE @5270
    _ZN4giac8html_mttE @5271 DATA
    _ZN4giac8html_vttE @5272 DATA
    _ZN4giac8ichinremERKNS_15dbgprint_vectorINS_3genEEES4_RKS1_S6_ @5273
    _ZN4giac8ichinremERKNS_3genES2_S2_S2_ @5274
    _ZN4giac8ichinremERKNS_6tensorINS_3genEEES4_RKS1_S6_ @5275
    _ZN4giac8ifactorsERKNS_3genEPKNS_7contextE @5276
    _ZN4giac8ifactorsERKNS_3genES2_S2_PKNS_7contextE @5277
    _ZN4giac8ifactorsERKNS_3genEiPKNS_7contextE @5278
    _ZN4giac8ihermiteERKNS_15dbgprint_vectorINS_3genEEERS2_S5_PKNS_7contextE @5279
    _ZN4giac8ilaplaceERKNS_3genES2_S2_PKNS_7contextE @5280
    _ZN4giac8in_solveERKNS_3genERKNS_14identificateurERNS_15dbgprint_vectorIS0_EEiPKNS_7contextE @5281
    _ZN4giac8increaseINS_7polymodEEEvRSt6vectorIT_SaIS3_EE @5282
    _ZN4giac8intgab_rERKNS_3genES2_S2_S2_bRS0_PKNS_7contextE @5283
    _ZN4giac8io_graphEPKNS_7contextE @5284
    _ZN4giac8io_graphEbPKNS_7contextE @5285
    _ZN4giac8is_cycleERKNS_15dbgprint_vectorINS_3genEEERSt6vectorIiSaIiEEPKNS_7contextE @5286
    _ZN4giac8is_equalERKNS_3genE @5287
    _ZN4giac8is_exactERKNS_15dbgprint_vectorINS_3genEEE @5288
    _ZN4giac8is_exactERKNS_3genE @5289
    _ZN4giac8is_localERKNS_3genEPKNS_7contextE @5290
    _ZN4giac8is_permuERKNS_15dbgprint_vectorINS_3genEEERSt6vectorIiSaIiEEPKNS_7contextE @5291
    _ZN4giac8is_undefERKNS_15dbgprint_vectorINS_3genEEE @5292
    _ZN4giac8is_undefERKNS_15dbgprint_vectorINS_6monomeEEE @5293
    _ZN4giac8is_undefERKNS_3genE @5294
    _ZN4giac8is_undefERKNS_6tensorINS_3genEEE @5295
    _ZN4giac8isalphanEc @5296
    _ZN4giac8keyboardERKNS_3genEPKNS_7contextE @5297
    _ZN4giac8laguerreEi @5298
    _ZN4giac8languageEPKNS_7contextE @5299
    _ZN4giac8languageEiPKNS_7contextE @5300
    _ZN4giac8legendreERKNS_3genES2_ @5301
    _ZN4giac8legendreEi @5302
    _ZN4giac8linfnormERKNS_3genEPKNS_7contextE @5303
    _ZN4giac8linfnormERKNS_5poly8EPKNS_7contextE @5304
    _ZN4giac8linfnormERKNS_9vectpoly8EPKNS_7contextE @5305
    _ZN4giac8linfnormERKSt6vectorIS0_IiSaIiEESaIS2_EE @5306
    _ZN4giac8linfnormERKSt6vectorIiSaIiEE @5307
    _ZN4giac8linsolveERKNS_15dbgprint_vectorINS_3genEEES4_PKNS_7contextE @5308
    _ZN4giac8linsolveERKNS_3genES2_PKNS_7contextE @5309
    _ZN4giac8lnexpandERKNS_3genEPKNS_7contextE @5310
    _ZN4giac8localizeERKSsi @5311
    _ZN4giac8lvarxpowERKNS_3genES2_ @5312
    _ZN4giac8makelineERKNS_5poly8EPKNS_6tdeg_tERKNS_7polymodERNS_15dbgprint_vectorINS_3genEEE @5313
    _ZN4giac8makelineERKNS_5poly8EPKNS_6tdeg_tERKNS_7polymodERSt6vectorINS_10sparse_genESaISA_EE @5314
    _ZN4giac8makelineERKNS_7polymodEPKNS_6tdeg_tES2_RSt6vectorINS_14sparse_elementESaIS7_EE @5315
    _ZN4giac8makelineERKNS_7polymodEPKNS_6tdeg_tES2_RSt6vectorIiSaIiEEi @5316
    _ZN4giac8matchposERKSsRi @5317
    _ZN4giac8mbox_endE @5318 DATA
    _ZN4giac8mergesetERKNS_15dbgprint_vectorINS_3genEEES4_ @5319
    _ZN4giac8monomialINS_3genEE7reorderERKSt6vectorIiSaIiEE @5320
    _ZN4giac8monomialINS_3genEE7reverseEv @5321
    _ZN4giac8monomialINS_3genEEC1ERKS1_RKNS_7index_mE @5322
    _ZN4giac8monomialINS_3genEEC1ERKS1_i @5323
    _ZN4giac8monomialINS_3genEEC1ERKS1_ii @5324
    _ZN4giac8monomialINS_3genEEC1ERKS1_iii @5325
    _ZN4giac8monomialINS_3genEEC1ERKS2_ @5326
    _ZN4giac8monomialINS_3genEEC1Ev @5327
    _ZN4giac8monomialINS_3genEED1Ev @5328
    _ZN4giac8monomialINS_3genEEaSERKS2_ @5329
    _ZN4giac8my_isinfEd @5330
    _ZN4giac8my_isnanEd @5331
    _ZN4giac8normal3dERKNS_3genERNS_15dbgprint_vectorIS0_EES5_ @5332
    _ZN4giac8odesolveERKNS_3genES2_S2_S2_dbPdS3_iPKNS_7contextE @5333
    _ZN4giac8pari_psiERKNS_3genE @5334
    _ZN4giac8partfracERKNS_3genERKNS_14identificateurEbPKNS_7contextE @5335
    _ZN4giac8partfracERKNS_3genERKNS_15dbgprint_vectorIS0_EEbPKNS_7contextE @5336
    _ZN4giac8partfracERKNS_3genES2_bPKNS_7contextE @5337
    _ZN4giac8partfracERKNS_3genEbPKNS_7contextE @5338
    _ZN4giac8partfracERKNS_6tensorINS_3genEEES4_RKSt6vectorINS_7facteurIS2_EESaIS7_EERS5_INS_2pfIS1_EESaISD_EERS2_SH_b @5339
    _ZN4giac8pcomposeERKNS_15dbgprint_vectorINS_3genEEERKNS0_INS_6monomeEEERS6_PKNS_7contextE @5340
    _ZN4giac8pfacpremERNS_3genEbPKNS_7contextE @5341
    _ZN4giac8plotfuncERKNS_3genES2_RKNS_15dbgprint_vectorIS0_EEbddddddiibPKNS_7contextE @5342
    _ZN4giac8plus_infE @5343 DATA
    _ZN4giac8plus_oneE @5344 DATA
    _ZN4giac8plus_twoE @5345 DATA
    _ZN4giac8point2xyERKNS_3genEPKNS_7contextE @5346
    _ZN4giac8pointpowERKNS_3genES2_PKNS_7contextE @5347
    _ZN4giac8pos2cellERKNS_3genEiiiiii @5348
    _ZN4giac8posubLMQERKNS_15dbgprint_vectorINS_3genEEEPKNS_7contextE @5349
    _ZN4giac8printintEi @5350
    _ZN4giac8qr_orthoERNS_10std_matrixINS_3genEEES3_PKNS_7contextE @5351
    _ZN4giac8radtodegERKNS_3genEPKNS_7contextE @5352
    _ZN4giac8randNormEPKNS_7contextE @5353
    _ZN4giac8randpermERKi @5354
    _ZN4giac8read_envEPKNS_7contextEb @5355
    _ZN4giac8readargsEiPPcRNS_15dbgprint_vectorINS_3genEEEPKNS_7contextE @5356
    _ZN4giac8readhelpEPKcRib @5357
    _ZN4giac8readhelpERSt6vectorINS_4aideESaIS1_EEPKcRib @5358
    _ZN4giac8real2intERKNS_3genEPKNS_7contextE @5359
    _ZN4giac8ref_grobC1ERKNS_4grobE @5360
    _ZN4giac8rk_errorERKNS_15dbgprint_vectorINS_3genEEES4_S4_PKNS_7contextE @5361
    _ZN4giac8rombergoERKNS_3genES2_S2_S2_iPKNS_7contextE @5362
    _ZN4giac8rombergtERKNS_3genES2_S2_S2_iPKNS_7contextE @5363
    _ZN4giac8rpn_evalERKNS_15dbgprint_vectorINS_3genEEERS2_PKNS_7contextE @5364
    _ZN4giac8rpn_evalERKNS_3genERNS_15dbgprint_vectorIS0_EEPKNS_7contextE @5365
    _ZN4giac8rpn_modeEPKNS_7contextE @5366
    _ZN4giac8rpn_modeEbPKNS_7contextE @5367
    _ZN4giac8rur_multERKNS_7polymodES2_iRS0_ @5368
    _ZN4giac8simplifyERKNS_3genEPKNS_7contextE @5369
    _ZN4giac8simplifyERNS_15dbgprint_vectorINS_3genEEES3_PNS_11environmentE @5370
    _ZN4giac8simplifyERNS_3genES1_ @5371
    _ZN4giac8simplifyERNS_6tensorINS_3genEEES3_ @5372
    _ZN4giac8simplifyERNS_6tensorINS_3genEEES3_S3_ @5373
    _ZN4giac8simplifyERiS0_ @5374
    _ZN4giac8sin2tan2ERKNS_3genEPKNS_7contextE @5375
    _ZN4giac8singularERKNS_3genES2_PKNS_7contextE @5376
    _ZN4giac8sinh2expERKNS_3genEPKNS_7contextE @5377
    _ZN4giac8smalladdINS_3genEjEEvRKSt6vectorINS_10T_unsignedIT_T0_EESaIS6_EESA_RS8_ @5378
    _ZN4giac8smalladdINS_3genEyEEvRKSt6vectorINS_10T_unsignedIT_T0_EESaIS6_EESA_RS8_ @5379
    _ZN4giac8smalladdISt6vectorIiSaIiEEjEEvRKS1_INS_10T_unsignedIT_T0_EESaIS7_EESB_RS9_i @5380
    _ZN4giac8smalladdIijEEvRKSt6vectorINS_10T_unsignedIT_T0_EESaIS5_EES9_RS7_i @5381
    _ZN4giac8smalldivINS_3genEjEEvRKSt6vectorINS_10T_unsignedIT_T0_EESaIS6_EERKS4_RS8_ @5382
    _ZN4giac8smallsubINS_3genEjEEvRKSt6vectorINS_10T_unsignedIT_T0_EESaIS6_EESA_RS8_ @5383
    _ZN4giac8smallsubISt6vectorIiSaIiEEjiEEvRKS1_INS_10T_unsignedIT_T0_EESaIS7_EESB_RS9_RKT1_ @5384
    _ZN4giac8smallsubIijiEEvRKSt6vectorINS_10T_unsignedIT_T0_EESaIS5_EES9_RS7_RKT1_ @5385
    _ZN4giac8snedecorERKNS_3genES2_S2_PKNS_7contextE @5386
    _ZN4giac8sparse32C1Eij @5387
    _ZN4giac8sparse32C1Ev @5388
    _ZN4giac8spolymodERKNS_7polymodES2_RS0_S3_i @5389
    _ZN4giac8sqrt_modERKNS_3genES2_bPKNS_7contextE @5390
    _ZN4giac8std_randEv @5391
    _ZN4giac8sum_loopERKNS_3genES2_iiPKNS_7contextE @5392
    _ZN4giac8surd2powERKNS_3genERNS_15dbgprint_vectorIS0_EES5_PKNS_7contextE @5393
    _ZN4giac8svg_gridEv @5394
    _ZN4giac8sym_multERKNS_3genES2_PKNS_7contextE @5395
    _ZN4giac8symb_NOPERKNS_3genE @5396
    _ZN4giac8symb_absERKNS_3genE @5397
    _ZN4giac8symb_andERKNS_3genES2_ @5398
    _ZN4giac8symb_cosERKNS_3genE @5399
    _ZN4giac8symb_detERKNS_3genE @5400
    _ZN4giac8symb_e2rERKNS_3genES2_ @5401
    _ZN4giac8symb_egvERKNS_3genE @5402
    _ZN4giac8symb_expERKNS_3genE @5403
    _ZN4giac8symb_forERKNS_3genE @5404
    _ZN4giac8symb_forERKNS_3genES2_S2_S2_ @5405
    _ZN4giac8symb_idnERKNS_3genE @5406
    _ZN4giac8symb_invERKNS_3genE @5407
    _ZN4giac8symb_kerERKNS_3genE @5408
    _ZN4giac8symb_linERKNS_3genE @5409
    _ZN4giac8symb_maxERKNS_3genES2_ @5410
    _ZN4giac8symb_minERKNS_3genES2_ @5411
    _ZN4giac8symb_notERKNS_3genE @5412
    _ZN4giac8symb_pntERKNS_3genEPKNS_7contextE @5413
    _ZN4giac8symb_pntERKNS_3genES2_PKNS_7contextE @5414
    _ZN4giac8symb_powERKNS_3genES2_ @5415
    _ZN4giac8symb_r2eERKNS_3genES2_ @5416
    _ZN4giac8symb_sinERKNS_3genE @5417
    _ZN4giac8symb_stoERKNS_3genE @5418
    _ZN4giac8symb_stoERKNS_3genERS0_b @5419
    _ZN4giac8symb_tanERKNS_3genE @5420
    _ZN4giac8symbolicC1EPKNS_18unary_function_ptrERKNS_3genE @5421
    _ZN4giac8symbolicC1EPKNS_18unary_function_ptrERKNS_3genES6_ @5422
    _ZN4giac8symbolicC1ERKNS_18unary_function_ptrERKNS_3genE @5423
    _ZN4giac8symbolicC1ERKNS_3genEPKNS_18unary_function_ptrES3_ @5424
    _ZN4giac8symbolicC1ERKNS_3genERKNS_18unary_function_ptrES3_ @5425
    _ZN4giac8symbolicC1ERKS0_ @5426
    _ZN4giac8symbolicC1ERKS0_RKNS_3genE @5427
    _ZN4giac8symbolicC2ERKNS_3genEPKNS_18unary_function_ptrES3_ @5428
    _ZN4giac8symbolicC2ERKNS_3genERKNS_18unary_function_ptrES3_ @5429
    _ZN4giac8symbolicC2ERKS0_RKNS_3genE @5430
    _ZN4giac8symbolicD1Ev @5431
    _ZN4giac8symbolicaSERKS0_ @5432
    _ZN4giac8tan2tan2ERKNS_3genEPKNS_7contextE @5433
    _ZN4giac8tanh2expERKNS_3genEPKNS_7contextE @5434
    _ZN4giac8tcollectERKNS_3genEPKNS_7contextE @5435
    _ZN4giac8tcollectERKNS_3genEbPKNS_7contextE @5436
    _ZN4giac8tran_intERKSt6vectorIS0_IiSaIiEESaIS2_EERS4_iiii @5437
    _ZN4giac8trig2expERKNS_3genEPKNS_7contextE @5438
    _ZN4giac8uncoerceERNS_15dbgprint_vectorINS_3genEEEj @5439
    _ZN4giac8uncoerceERNS_3genEj @5440
    _ZN4giac8undeferrERKSs @5441
    _ZN4giac8vas_sortERKNS_3genES2_ @5442
    _ZN4giac8vectpoly8dbgprintEv @5443
    _ZN4giac8vectpolyC1ERKS0_ @5444
    _ZN4giac8vectpolyC1EiRKNS_6tensorINS_3genEEE @5445
    _ZN4giac8vectpolyC1Ev @5446
    _ZN4giac8vectpolyD1Ev @5447
    _ZN4giac8vectpolyaSERKS0_ @5448
    _ZN4giac8wait_1msEPNS_7contextE @5449
    _ZN4giac8withsqrtEPKNS_7contextE @5450
    _ZN4giac8withsqrtEbPKNS_7contextE @5451
    _ZN4giac8xcasrootEv @5452
    _ZN4giac8xpowerpnEPNS_11environmentE @5453
    _ZN4giac8zcollectERKNS_12vectzpolymodERSt6vectorISt4pairIjjESaIS5_EERS3_INS_6tdeg_tESaIS9_EESC_SC_ @5454
    _ZN4giac8zconvertERKSt6vectorIiSaIiEERN9__gnu_cxx17__normal_iteratorIPiS2_EEPjRS0_IcSaIcEE @5455
    _ZN4giac8zconvertERKSt6vectorIiSaIiEERS2_PjRS0_IcSaIcEE @5456
    _ZN4giac8zpolymodC1ERKS0_ @5457
    _ZN4giac8zpolymodC1EiiPKSt6vectorINS_6tdeg_tESaIS2_EERKS2_ @5458
    _ZN4giac8zpolymodC1EiiRKNS_6tdeg_tE @5459
    _ZN4giac8zpolymodC1Ev @5460
    _ZN4giac8zpolymodD1Ev @5461
    _ZN4giac8zpolymodaSERKS0_ @5462
    _ZN4giac9CST__IDNTE @5463 DATA
    _ZN4giac9D_at_Ei_fE @5464 DATA
    _ZN4giac9D_at_ZetaE @5465 DATA
    _ZN4giac9D_at_acosE @5466 DATA
    _ZN4giac9D_at_asinE @5467 DATA
    _ZN4giac9D_at_atanE @5468 DATA
    _ZN4giac9D_at_coshE @5469 DATA
    _ZN4giac9D_at_erfcE @5470 DATA
    _ZN4giac9D_at_erfsE @5471 DATA
    _ZN4giac9D_at_signE @5472 DATA
    _ZN4giac9D_at_sinhE @5473 DATA
    _ZN4giac9D_at_sqrtE @5474 DATA
    _ZN4giac9D_at_tanhE @5475 DATA
    _ZN4giac9LMQ_evalfERKNS_3genES2_diPKNS_7contextE @5476
    _ZN4giac9TfractionINS_3genEEC1ERKS1_ @5477
    _ZN4giac9TfractionINS_3genEEC1ERKS1_S4_ @5478
    _ZN4giac9TfractionINS_3genEEC1ERKS2_ @5479
    _ZN4giac9TfractionINS_3genEED1Ev @5480
    _ZN4giac9TfractionINS_3genEEaSERKS2_ @5481
    _ZN4giac9TpartfracINS_3genEEEvRKNS_6tensorIT_EES6_RKSt6vectorINS_7facteurIS4_EESaIS9_EERS7_INS_2pfIS3_EESaISF_EERS4_SJ_ @5482
    _ZN4giac9TpartfracINS_3genEEEvRKNS_6tensorIT_EES6_RKSt6vectorINS_7facteurIS4_EESaIS9_EEiiRS7_INS_2pfIS3_EESaISF_EE @5483
    _ZN4giac9_Btu_unitE @5484 DATA
    _ZN4giac9_ClrGraphERKNS_3genEPKNS_7contextE @5485
    _ZN4giac9_CyclePicERKNS_3genEPKNS_7contextE @5486
    _ZN4giac9_DispHomeERKNS_3genEPKNS_7contextE @5487
    _ZN4giac9_DropDownERKNS_3genEPKNS_7contextE @5488
    _ZN4giac9_DrwCtourERKNS_3genEPKNS_7contextE @5489
    _ZN4giac9_EIGENVALERKNS_3genEPKNS_7contextE @5490
    _ZN4giac9_Fdy_unitE @5491 DATA
    _ZN4giac9_HComplexERKNS_3genEPKNS_7contextE @5492
    _ZN4giac9_InputStrERKNS_3genEPKNS_7contextE @5493
    _ZN4giac9_LineHorzERKNS_3genEPKNS_7contextE @5494
    _ZN4giac9_LineVertERKNS_3genEPKNS_7contextE @5495
    _ZN4giac9_MAKELISTERKNS_3genEPKNS_7contextE @5496
    _ZN4giac9_Ohm_unitE @5497 DATA
    _ZN4giac9_POLYEVALERKNS_3genEPKNS_7contextE @5498
    _ZN4giac9_POLYFORMERKNS_3genEPKNS_7contextE @5499
    _ZN4giac9_POLYROOTERKNS_3genEPKNS_7contextE @5500
    _ZN4giac9_PictsizeERKNS_3genEPKNS_7contextE @5501
    _ZN4giac9_RPN_CASEERKNS_3genEPKNS_7contextE @5502
    _ZN4giac9_RandSeedERKNS_3genEPKNS_7contextE @5503
    _ZN4giac9_SCALEADDERKNS_3genEPKNS_7contextE @5504
    _ZN4giac9_SPECNORMERKNS_3genEPKNS_7contextE @5505
    _ZN4giac9_UnarchivERKNS_3genEPKNS_7contextE @5506
    _ZN4giac9__Bq_unitE @5507 DATA
    _ZN4giac9__FF_unitE @5508 DATA
    _ZN4giac9__Gy_unitE @5509 DATA
    _ZN4giac9__Hz_unitE @5510 DATA
    _ZN4giac9__Pa_unitE @5511 DATA
    _ZN4giac9__St_unitE @5512 DATA
    _ZN4giac9__Sv_unitE @5513 DATA
    _ZN4giac9__Wb_unitE @5514 DATA
    _ZN4giac9__Wh_unitE @5515 DATA
    _ZN4giac9__au_unitE @5516 DATA
    _ZN4giac9__cd_unitE @5517 DATA
    _ZN4giac9__cf_unitE @5518 DATA
    _ZN4giac9__ct_unitE @5519 DATA
    _ZN4giac9__dB_unitE @5520 DATA
    _ZN4giac9__eV_unitE @5521 DATA
    _ZN4giac9__fc_unitE @5522 DATA
    _ZN4giac9__fm_unitE @5523 DATA
    _ZN4giac9__ft_unitE @5524 DATA
    _ZN4giac9__gf_unitE @5525 DATA
    _ZN4giac9__ha_unitE @5526 DATA
    _ZN4giac9__hp_unitE @5527 DATA
    _ZN4giac9__in_unitE @5528 DATA
    _ZN4giac9__kg_unitE @5529 DATA
    _ZN4giac9__lb_unitE @5530 DATA
    _ZN4giac9__mi_unitE @5531 DATA
    _ZN4giac9__mn_unitE @5532 DATA
    _ZN4giac9__oz_unitE @5533 DATA
    _ZN4giac9__pc_unitE @5534 DATA
    _ZN4giac9__pk_unitE @5535 DATA
    _ZN4giac9__pt_unitE @5536 DATA
    _ZN4giac9__qt_unitE @5537 DATA
    _ZN4giac9__rd_unitE @5538 DATA
    _ZN4giac9__sb_unitE @5539 DATA
    _ZN4giac9__st_unitE @5540 DATA
    _ZN4giac9__tr_unitE @5541 DATA
    _ZN4giac9__yd_unitE @5542 DATA
    _ZN4giac9__yr_unitE @5543 DATA
    _ZN4giac9_abscisseERKNS_3genEPKNS_7contextE @5544
    _ZN4giac9_atm_unitE @5545 DATA
    _ZN4giac9_atrig2lnERKNS_3genEPKNS_7contextE @5546
    _ZN4giac9_bar_unitE @5547 DATA
    _ZN4giac9_bbl_unitE @5548 DATA
    _ZN4giac9_binomialERKNS_3genEPKNS_7contextE @5549
    _ZN4giac9_binprintERKNS_3genEPKNS_7contextE @5550
    _ZN4giac9_boe_unitE @5551 DATA
    _ZN4giac9_cal_unitE @5552 DATA
    _ZN4giac9_choleskyERKNS_3genEPKNS_7contextE @5553
    _ZN4giac9_colspaceERKNS_3genEPKNS_7contextE @5554
    _ZN4giac9_comDenomERKNS_3genEPKNS_7contextE @5555
    _ZN4giac9_containsERKNS_3genEPKNS_7contextE @5556
    _ZN4giac9_continueERKNS_3genEPKNS_7contextE @5557
    _ZN4giac9_count_eqERKNS_3genEPKNS_7contextE @5558
    _ZN4giac9_cst_StdPE @5559 DATA
    _ZN4giac9_cst_StdTE @5560 DATA
    _ZN4giac9_cst_hbarE @5561 DATA
    _ZN4giac9_cst_mpmeE @5562 DATA
    _ZN4giac9_cycleinvERKNS_3genEPKNS_7contextE @5563
    _ZN4giac9_cylindreERKNS_3genEPKNS_7contextE @5564
    _ZN4giac9_deg_unitE @5565 DATA
    _ZN4giac9_divisionERKNS_3genEPKNS_7contextE @5566
    _ZN4giac9_divisorsERKNS_3genEPKNS_7contextE @5567
    _ZN4giac9_dyn_unitE @5568 DATA
    _ZN4giac9_equationERKNS_3genEPKNS_7contextE @5569
    _ZN4giac9_erg_unitE @5570 DATA
    _ZN4giac9_est_dansERKNS_3genEPKNS_7contextE @5571
    _ZN4giac9_exp2listERKNS_3genEPKNS_7contextE @5572
    _ZN4giac9_exp2trigERKNS_3genEPKNS_7contextE @5573
    _ZN4giac9_fbm_unitE @5574 DATA
    _ZN4giac9_findhelpERKNS_3genEPKNS_7contextE @5575
    _ZN4giac9_flatten1ERKNS_3genEPKNS_7contextE @5576
    _ZN4giac9_frame_2dERKNS_3genEPKNS_7contextE @5577
    _ZN4giac9_frame_3dERKNS_3genEPKNS_7contextE @5578
    _ZN4giac9_funcplotERKNS_3genEPKNS_7contextE @5579
    _ZN4giac9_getDenomERKNS_3genEPKNS_7contextE @5580
    _ZN4giac9_gon_unitE @5581 DATA
    _ZN4giac9_hadamardERKNS_3genEPKNS_7contextE @5582
    _ZN4giac9_harmonicERKNS_3genEPKNS_7contextE @5583
    _ZN4giac9_hexagoneERKNS_3genEPKNS_7contextE @5584
    _ZN4giac9_hexprintERKNS_3genEPKNS_7contextE @5585
    _ZN4giac9_ichinremERKNS_3genEPKNS_7contextE @5586
    _ZN4giac9_icontentERKNS_3genEPKNS_7contextE @5587
    _ZN4giac9_ifactorsERKNS_3genEPKNS_7contextE @5588
    _ZN4giac9_ihermiteERKNS_3genEPKNS_7contextE @5589
    _ZN4giac9_ilaplaceERKNS_3genEPKNS_7contextE @5590
    _ZN4giac9_inStringERKNS_3genEPKNS_7contextE @5591
    _ZN4giac9_in_idealERKNS_3genEPKNS_7contextE @5592
    _ZN4giac9_intervalERKNS_3genEPKNS_7contextE @5593
    _ZN4giac9_is_cycleERKNS_3genEPKNS_7contextE @5594
    _ZN4giac9_is_permuERKNS_3genEPKNS_7contextE @5595
    _ZN4giac9_is_primeERKNS_3genEPKNS_7contextE @5596
    _ZN4giac9_ithprimeERKNS_3genEPKNS_7contextE @5597
    _ZN4giac9_kip_unitE @5598 DATA
    _ZN4giac9_kph_unitE @5599 DATA
    _ZN4giac9_lagrangeERKNS_3genEPKNS_7contextE @5600
    _ZN4giac9_laguerreERKNS_3genEPKNS_7contextE @5601
    _ZN4giac9_lam_unitE @5602 DATA
    _ZN4giac9_lbf_unitE @5603 DATA
    _ZN4giac9_lbt_unitE @5604 DATA
    _ZN4giac9_legendreERKNS_3genEPKNS_7contextE @5605
    _ZN4giac9_lep_unitE @5606 DATA
    _ZN4giac9_linfnormERKNS_3genEPKNS_7contextE @5607
    _ZN4giac9_linsolveERKNS_3genEPKNS_7contextE @5608
    _ZN4giac9_list2matERKNS_3genEPKNS_7contextE @5609
    _ZN4giac9_listplotERKNS_3genEPKNS_7contextE @5610
    _ZN4giac9_longueurERKNS_3genEPKNS_7contextE @5611
    _ZN4giac9_lyr_unitE @5612 DATA
    _ZN4giac9_makelistERKNS_3genEPKNS_7contextE @5613
    _ZN4giac9_maple_opERKNS_3genEPKNS_7contextE @5614
    _ZN4giac9_mat2listERKNS_3genEPKNS_7contextE @5615
    _ZN4giac9_mho_unitE @5616 DATA
    _ZN4giac9_mil_unitE @5617 DATA
    _ZN4giac9_mol_unitE @5618 DATA
    _ZN4giac9_mph_unitE @5619 DATA
    _ZN4giac9_nextpermERKNS_3genEPKNS_7contextE @5620
    _ZN4giac9_nmi_unitE @5621 DATA
    _ZN4giac9_octaedreERKNS_3genEPKNS_7contextE @5622
    _ZN4giac9_octprintERKNS_3genEPKNS_7contextE @5623
    _ZN4giac9_odesolveERKNS_3genEPKNS_7contextE @5624
    _ZN4giac9_ordonneeERKNS_3genEPKNS_7contextE @5625
    _ZN4giac9_ozt_unitE @5626 DATA
    _ZN4giac9_paraboleERKNS_3genEPKNS_7contextE @5627
    _ZN4giac9_partfracERKNS_3genEPKNS_7contextE @5628
    _ZN4giac9_pdl_unitE @5629 DATA
    _ZN4giac9_plotareaERKNS_3genEPKNS_7contextE @5630
    _ZN4giac9_plotfuncERKNS_3genEPKNS_7contextE @5631
    _ZN4giac9_pointpowERKNS_3genEPKNS_7contextE @5632
    _ZN4giac9_polyEvalERKNS_3genEPKNS_7contextE @5633
    _ZN4giac9_polyedreERKNS_3genEPKNS_7contextE @5634
    _ZN4giac9_polygoneERKNS_3genEPKNS_7contextE @5635
    _ZN4giac9_positionERKNS_3genEPKNS_7contextE @5636
    _ZN4giac9_posubLMQERKNS_3genEPKNS_7contextE @5637
    _ZN4giac9_pourcentERKNS_3genEPKNS_7contextE @5638
    _ZN4giac9_prevpermERKNS_3genEPKNS_7contextE @5639
    _ZN4giac9_primpartERKNS_3genEPKNS_7contextE @5640
    _ZN4giac9_propfracERKNS_3genEPKNS_7contextE @5641
    _ZN4giac9_psi_unitE @5642 DATA
    _ZN4giac9_pyramideERKNS_3genEPKNS_7contextE @5643
    _ZN4giac9_quantileERKNS_3genEPKNS_7contextE @5644
    _ZN4giac9_rad_unitE @5645 DATA
    _ZN4giac9_randNormERKNS_3genEPKNS_7contextE @5646
    _ZN4giac9_randPolyERKNS_3genEPKNS_7contextE @5647
    _ZN4giac9_randpermERKNS_3genEPKNS_7contextE @5648
    _ZN4giac9_realrootERKNS_3genEPKNS_7contextE @5649
    _ZN4giac9_rem_unitE @5650 DATA
    _ZN4giac9_rod_unitE @5651 DATA
    _ZN4giac9_rotationERKNS_3genEPKNS_7contextE @5652
    _ZN4giac9_rowspaceERKNS_3genEPKNS_7contextE @5653
    _ZN4giac9_rpm_unitE @5654 DATA
    _ZN4giac9_rpn_progERKNS_3genEPKNS_7contextE @5655
    _ZN4giac9_seqsolveERKNS_3genEPKNS_7contextE @5656
    _ZN4giac9_simplifyERKNS_3genEPKNS_7contextE @5657
    _ZN4giac9_singularERKNS_3genEPKNS_7contextE @5658
    _ZN4giac9_snedecorERKNS_3genEPKNS_7contextE @5659
    _ZN4giac9_soundsecERKNS_3genEPKNS_7contextE @5660
    _ZN4giac9_studenttERKNS_3genEPKNS_7contextE @5661
    _ZN4giac9_sturmseqERKNS_3genEPKNS_7contextE @5662
    _ZN4giac9_suppressERKNS_3genEPKNS_7contextE @5663
    _ZN4giac9_symetrieERKNS_3genEPKNS_7contextE @5664
    _ZN4giac9_syst2matERKNS_3genEPKNS_7contextE @5665
    _ZN4giac9_tableseqERKNS_3genEPKNS_7contextE @5666
    _ZN4giac9_tcollectERKNS_3genEPKNS_7contextE @5667
    _ZN4giac9_tec_unitE @5668 DATA
    _ZN4giac9_tep_unitE @5669 DATA
    _ZN4giac9_testfuncERKNS_3genEPKNS_7contextE @5670
    _ZN4giac9_toe_unitE @5671 DATA
    _ZN4giac9_ton_unitE @5672 DATA
    _ZN4giac9_triangleERKNS_3genEPKNS_7contextE @5673
    _ZN4giac9_trig2expERKNS_3genEPKNS_7contextE @5674
    _ZN4giac9_truncateERKNS_3genEPKNS_7contextE @5675
    _ZN4giac9_varianceERKNS_3genEPKNS_7contextE @5676
    _ZN4giac9_writergbERKNS_3genEPKNS_7contextE @5677
    _ZN4giac9_writewavERKNS_3genEPKNS_7contextE @5678
    _ZN4giac9a__IDNT_eE @5679 DATA
    _ZN4giac9abs_norm2ERKNS_3genEPKNS_7contextE @5680
    _ZN4giac9acos2asinERKNS_3genEPKNS_7contextE @5681
    _ZN4giac9acos2atanERKNS_3genEPKNS_7contextE @5682
    _ZN4giac9add_lnabsERKNS_3genEPKNS_7contextE @5683
    _ZN4giac9add_printERSsRKNS_3genEPKNS_7contextE @5684
    _ZN4giac9addtolvarERKNS_3genERNS_15dbgprint_vectorIS0_EE @5685
    _ZN4giac9alg_evalfERKNS_3genES2_PKNS_7contextE @5686
    _ZN4giac9algfactorERKNS_6tensorINS_3genEEES4_RiRSt6vectorINS_7facteurIS2_EESaIS8_EEbRS1_ @5687
    _ZN4giac9asin2acosERKNS_3genEPKNS_7contextE @5688
    _ZN4giac9asin2atanERKNS_3genEPKNS_7contextE @5689
    _ZN4giac9at_BezierE @5690 DATA
    _ZN4giac9at_DelVarE @5691 DATA
    _ZN4giac9at_DialogE @5692 DATA
    _ZN4giac9at_DigitsE @5693 DATA
    _ZN4giac9at_EXPORTE @5694 DATA
    _ZN4giac9at_HAngleE @5695 DATA
    _ZN4giac9at_HPDIFFE @5696 DATA
    _ZN4giac9at_OutputE @5697 DATA
    _ZN4giac9at_PILISTE @5698 DATA
    _ZN4giac9at_PromptE @5699 DATA
    _ZN4giac9at_RclPicE @5700 DATA
    _ZN4giac9at_SiCi_fE @5701 DATA
    _ZN4giac9at_SiCi_gE @5702 DATA
    _ZN4giac9at_affixeE @5703 DATA
    _ZN4giac9at_algvarE @5704 DATA
    _ZN4giac9at_alog10E @5705 DATA
    _ZN4giac9at_appendE @5706 DATA
    _ZN4giac9at_areaatE @5707 DATA
    _ZN4giac9at_assumeE @5708 DATA
    _ZN4giac9at_bitandE @5709 DATA
    _ZN4giac9at_bitmapE @5710 DATA
    _ZN4giac9at_bitxorE @5711 DATA
    _ZN4giac9at_cauchyE @5712 DATA
    _ZN4giac9at_centreE @5713 DATA
    _ZN4giac9at_cercleE @5714 DATA
    _ZN4giac9at_concatE @5715 DATA
    _ZN4giac9at_deriveE @5716 DATA
    _ZN4giac9at_dollarE @5717 DATA
    _ZN4giac9at_droiteE @5718 DATA
    _ZN4giac9at_equal2E @5719 DATA
    _ZN4giac9at_expandE @5720 DATA
    _ZN4giac9at_factorE @5721 DATA
    _ZN4giac9at_fcoeffE @5722 DATA
    _ZN4giac9at_fisherE @5723 DATA
    _ZN4giac9at_fsolveE @5724 DATA
    _ZN4giac9at_gammadE @5725 DATA
    _ZN4giac9at_gbasisE @5726 DATA
    _ZN4giac9at_getKeyE @5727 DATA
    _ZN4giac9at_heugcdE @5728 DATA
    _ZN4giac9at_hornerE @5729 DATA
    _ZN4giac9at_iabcuvE @5730 DATA
    _ZN4giac9at_ibasisE @5731 DATA
    _ZN4giac9at_idivisE @5732 DATA
    _ZN4giac9at_insmodE @5733 DATA
    _ZN4giac9at_jordanE @5734 DATA
    _ZN4giac9at_l2normE @5735 DATA
    _ZN4giac9at_lcoeffE @5736 DATA
    _ZN4giac9at_matrixE @5737 DATA
    _ZN4giac9at_medianE @5738 DATA
    _ZN4giac9at_memberE @5739 DATA
    _ZN4giac9at_milieuE @5740 DATA
    _ZN4giac9at_mkisomE @5741 DATA
    _ZN4giac9at_modgcdE @5742 DATA
    _ZN4giac9at_newtonE @5743 DATA
    _ZN4giac9at_nodispE @5744 DATA
    _ZN4giac9at_normalE @5745 DATA
    _ZN4giac9at_ntl_onE @5746 DATA
    _ZN4giac9at_optionE @5747 DATA
    _ZN4giac9at_outputE @5748 DATA
    _ZN4giac9at_pcoeffE @5749 DATA
    _ZN4giac9at_pixoffE @5750 DATA
    _ZN4giac9at_plot3dE @5751 DATA
    _ZN4giac9at_powmodE @5752 DATA
    _ZN4giac9at_prevalE @5753 DATA
    _ZN4giac9at_psrgcdE @5754 DATA
    _ZN4giac9at_quoremE @5755 DATA
    _ZN4giac9at_removeE @5756 DATA
    _ZN4giac9at_returnE @5757 DATA
    _ZN4giac9at_rm_a_zE @5758 DATA
    _ZN4giac9at_rootofE @5759 DATA
    _ZN4giac9at_selectE @5760 DATA
    _ZN4giac9at_seriesE @5761 DATA
    _ZN4giac9at_sincosE @5762 DATA
    _ZN4giac9at_sommetE @5763 DATA
    _ZN4giac9at_sphereE @5764 DATA
    _ZN4giac9at_sst_inE @5765 DATA
    _ZN4giac9at_stddevE @5766 DATA
    _ZN4giac9at_stringE @5767 DATA
    _ZN4giac9at_subsopE @5768 DATA
    _ZN4giac9at_vectorE @5769 DATA
    _ZN4giac9atan2acosERKNS_3genEPKNS_7contextE @5770
    _ZN4giac9atan2asinERKNS_3genEPKNS_7contextE @5771
    _ZN4giac9autoscaleE @5772 DATA
    _ZN4giac9b__IDNT_eE @5773 DATA
    _ZN4giac9bernoulliERKNS_3genE @5774
    _ZN4giac9bisectionERKNS_15dbgprint_vectorINS_3genEEERKS1_S6_dPKNS_7contextE @5775
    _ZN4giac9c__IDNT_eE @5776 DATA
    _ZN4giac9calc_modeEPKNS_7contextE @5777
    _ZN4giac9calc_modeEiPKNS_7contextE @5778
    _ZN4giac9cas_setupEPKNS_7contextE @5779
    _ZN4giac9cas_setupERKNS_15dbgprint_vectorINS_3genEEEPKNS_7contextE @5780
    _ZN4giac9catch_errERKSt13runtime_error @5781
    _ZN4giac9chisquareERKNS_3genES2_PKNS_7contextE @5782
    _ZN4giac9cksignerrERKNS_3genEPKNS_7contextE @5783
    _ZN4giac9cleardenoERNS_5poly8E @5784
    _ZN4giac9cleardenoERNS_9vectpoly8E @5785
    _ZN4giac9clip_lineEddddddddiRdS0_S0_S0_ @5786
    _ZN4giac9coefftypeERKNS_6tensorINS_3genEEERS1_ @5787
    _ZN4giac9comment_sEPKNS_7contextE @5788
    _ZN4giac9comment_sERKSsPKNS_7contextE @5789
    _ZN4giac9companionERKNS_15dbgprint_vectorINS_3genEEE @5790
    _ZN4giac9convert32ERKSt6vectorIiSaIiEERS0_INS_8sparse32ESaIS5_EERS0_IcSaIcEE @5791
    _ZN4giac9copycoeffERKNS_5poly8ERSt6vectorINS_3genESaIS4_EE @5792
    _ZN4giac9copycoeffERKNS_7polymodERSt6vectorIiSaIiEE @5793
    _ZN4giac9cos_pi_12E @5794 DATA
    _ZN4giac9cst_alphaE @5795 DATA
    _ZN4giac9cst_sigmaE @5796 DATA
    _ZN4giac9curvatureERKNS_3genEPKNS_7contextE @5797
    _ZN4giac9d__IDNT_eE @5798 DATA
    _ZN4giac9dbg_schurERKNS_10std_matrixINS_3genEEES4_ @5799
    _ZN4giac9debug_ptrEPKNS_7contextE @5800
    _ZN4giac9deg2rad_dE @5801 DATA
    _ZN4giac9deg2rad_eE @5802 DATA
    _ZN4giac9deg2rad_gE @5803 DATA
    _ZN4giac9desolve_fERKNS_3genES2_S2_RiRNS_15dbgprint_vectorIS0_EERS0_PKNS_7contextE @5804
    _ZN4giac9det_minorERKNS_15dbgprint_vectorINS_3genEEEbPKNS_7contextE @5805
    _ZN4giac9dichotomyERKSt6vectorIdSaIdEEd @5806
    _ZN4giac9distance2ERKNS_3genES2_PKNS_7contextE @5807
    _ZN4giac9divremmodERKNS_6tensorINS_3genEEES4_RKS1_RS2_S7_ @5808
    _ZN4giac9e__IDNT_eE @5809 DATA
    _ZN4giac9effectifsERKNS_15dbgprint_vectorINS_3genEEEddPKNS_7contextE @5810
    _ZN4giac9egcd_padeERKNS_15dbgprint_vectorINS_3genEEES4_iRS2_S5_PNS_11environmentEb @5811
    _ZN4giac9eigenval2ERNS_10std_matrixINS_3genEEEiRS1_S4_PKNS_7contextE @5812
    _ZN4giac9eigenval2ERNS_13matrix_doubleEiRdS2_ @5813
    _ZN4giac9eigenval2ERNS_21matrix_complex_doubleEiRSt7complexIdES4_ @5814
    _ZN4giac9erase_posEPKNS_7contextE @5815
    _ZN4giac9erase_posEiPKNS_7contextE @5816
    _ZN4giac9est_carreERKNS_3genES2_S2_S2_PKNS_7contextE @5817
    _ZN4giac9eval_VECTERKNS_3genERS0_iiPKNS_7contextE @5818
    _ZN4giac9evalf2bcdERKNS_3genEiPKNS_7contextE @5819
    _ZN4giac9evalf_PsiERKNS_3genEiPKNS_7contextE @5820
    _ZN4giac9evalf_intERKNS_3genES2_S2_S2_S2_ibPKNS_7contextE @5821
    _ZN4giac9expexpandERKNS_3genEPKNS_7contextE @5822
    _ZN4giac9ext_gcd_tC1ERKS0_ @5823
    _ZN4giac9ext_gcd_tC1Ev @5824
    _ZN4giac9ext_gcd_tD1Ev @5825
    _ZN4giac9extra_ptrEPKNS_7contextE @5826
    _ZN4giac9f__IDNT_eE @5827 DATA
    _ZN4giac9f_compareC1EPFbRKNS_3genES3_E @5828
    _ZN4giac9f_compareclERKNS_3genES3_ @5829
    _ZN4giac9factor_xnERKNS_3genEPKNS_7contextE @5830
    _ZN4giac9factor_xnERKNS_3genES2_PKNS_7contextE @5831
    _ZN4giac9factorialEm @5832
    _ZN4giac9find_bestERSt6vectorIiSaIiEERKNS_3genEdiRiS7_RS4_PKNS_7contextE @5833
    _ZN4giac9find_iextERKNS_3genERKNS_15dbgprint_vectorIS0_EEPKNS_7contextE @5834
    _ZN4giac9g__IDNT_eE @5835 DATA
    _ZN4giac9gamma_tabE @5836 DATA
    _ZN4giac9gendimerrEPKNS_7contextE @5837
    _ZN4giac9gendimerrEPKcRNS_3genE @5838
    _ZN4giac9gendimerrERKSs @5839
    _ZN4giac9gendimerrERNS_3genEPKNS_7contextE @5840
    _ZN4giac9geo_setupERKNS_15dbgprint_vectorINS_3genEEEPKNS_7contextE @5841
    _ZN4giac9geometricERKNS_3genES2_PKNS_7contextE @5842
    _ZN4giac9get_indexERKNS_6tdeg_tERSt6vectorIsSaIsEEii @5843
    _ZN4giac9get_pointERKNS_3genEiPKNS_7contextE @5844
    _ZN4giac9get_styleERKNS_15dbgprint_vectorINS_3genEEERSs @5845
    _ZN4giac9ggb_varxyERKNS_3genERS0_S3_PKNS_7contextE @5846
    _ZN4giac9giac_ceilEd @5847
    _ZN4giac9giac_randEPKNS_7contextE @5848
    _ZN4giac9globalizeERKNS_3genE @5849
    _ZN4giac9graph2texEP6_iobufRKNS_15dbgprint_vectorINS_3genEEEdddddPKcbPKNS_7contextE @5850
    _ZN4giac9graph2texEP6_iobufRKNS_15dbgprint_vectorINS_3genEEEddddddPKcbPKNS_7contextE @5851
    _ZN4giac9graph2texERKNS_3genERKNS_15dbgprint_vectorIS0_EEPKNS_7contextE @5852
    _ZN4giac9graph2texERKSsRKNS_15dbgprint_vectorINS_3genEEEdddddbPKNS_7contextE @5853
    _ZN4giac9graph2texERKSsRKNS_15dbgprint_vectorINS_3genEEEddddddbPKNS_7contextE @5854
    _ZN4giac9greek2texERKSsRSsb @5855
    _ZN4giac9groupermuERKSt6vectorIiSaIiEES4_ @5856
    _ZN4giac9h__IDNT_eE @5857 DATA
    _ZN4giac9has_evalfERKNS_3genERS0_iPKNS_7contextE @5858
    _ZN4giac9heap_multE @5859 DATA
    _ZN4giac9hornerintERKNS_15dbgprint_vectorINS_3genEEERKS1_S6_b @5860
    _ZN4giac9hornermodERKNS_15dbgprint_vectorINS_3genEEERKS1_S6_ @5861
    _ZN4giac9hornermodERKNS_15dbgprint_vectorINS_3genEEEii @5862
    _ZN4giac9html_helpERSt8multimapISsSsSt4lessISsESaISt4pairIKSsSsEEERS4_ @5863
    _ZN4giac9html_mallE @5864 DATA
    _ZN4giac9html_vallE @5865 DATA
    _ZN4giac9i__IDNT_eE @5866 DATA
    _ZN4giac9ichinrem2ERKNS_3genES2_ @5867
    _ZN4giac9in_fsolveERNS_15dbgprint_vectorINS_3genEEEPKNS_7contextE @5868
    _ZN4giac9in_gbasisERNS_9vectpoly8ERSt6vectorIjSaIjEEPNS_11environmentEb @5869
    _ZN4giac9in_round2ERNS_3genERKS0_i @5870
    _ZN4giac9index_gcdERKSt6vectorIsSaIsEES4_ @5871
    _ZN4giac9index_lcmERKNS_6tdeg_tES2_RS0_s @5872
    _ZN4giac9index_lcmERKNS_7index_mES2_RSt6vectorIsSaIsEE @5873
    _ZN4giac9index_lcmERKSt6vectorIsSaIsEES4_ @5874
    _ZN4giac9index_minERKSt6vectorIsSaIsEES4_ @5875
    _ZN4giac9integrateERKNS_15dbgprint_vectorINS_3genEEERKS1_ @5876
    _ZN4giac9intersectERKNS_15dbgprint_vectorINS_3genEEES4_RiS5_ @5877
    _ZN4giac9intersectESt13_Bit_iteratorS0_i @5878
    _ZN4giac9inversionERKNS_15dbgprint_vectorINS_3genEEEiPKNS_7contextE @5879
    _ZN4giac9invztransERKNS_3genES2_S2_PKNS_7contextE @5880
    _ZN4giac9is_atomicERKNS_3genE @5881
    _ZN4giac9is_binaryERKNS_3genE @5882
    _ZN4giac9is_gbasisERKNS_9vectpoly8Edb @5883
    _ZN4giac9isintpolyERKNS_15dbgprint_vectorINS_3genEEE @5884
    _ZN4giac9j__IDNT_eE @5885 DATA
    _ZN4giac9k__IDNT_eE @5886 DATA
    _ZN4giac9l__IDNT_eE @5887 DATA
    _ZN4giac9leftrightERKNS_11vectpolymodERSt6vectorISt4pairIjjESaIS5_EERS3_INS_6tdeg_tESaIS9_EESC_ @5888
    _ZN4giac9limit_tabE @5889 DATA
    _ZN4giac9ln_expandERKNS_3genEPKNS_7contextE @5890
    _ZN4giac9lncollectERKNS_3genEPKNS_7contextE @5891
    _ZN4giac9m__IDNT_eE @5892 DATA
    _ZN4giac9make_unitESt6vectorIiSaIiEE @5893
    _ZN4giac9make_unitEi @5894
    _ZN4giac9makesuiteERKNS_3genE @5895
    _ZN4giac9makesuiteERKNS_3genES2_ @5896
    _ZN4giac9maple_libERKNS_3genEPKNS_7contextE @5897
    _ZN4giac9minus_infE @5898 DATA
    _ZN4giac9minus_oneE @5899 DATA
    _ZN4giac9mksa_tri3C1Ev @5900
    _ZN4giac9mksa_tri3clEPKcS2_ @5901
    _ZN4giac9mmult_intERKNS_15dbgprint_vectorINS_3genEEES4_RS2_ @5902
    _ZN4giac9mmult_modERKSt6vectorIS0_IiSaIiEESaIS2_EES6_RS4_iiiiiiiiiib @5903
    _ZN4giac9mod_gcd_cERKNS_6tensorINS_3genEEES4_RKS1_RS2_S7_S7_b @5904
    _ZN4giac9n__IDNT_eE @5905 DATA
    _ZN4giac9nextprimeERKNS_3genE @5906
    _ZN4giac9o__IDNT_eE @5907 DATA
    _ZN4giac9p__IDNT_eE @5908 DATA
    _ZN4giac9parent_idE @5909 DATA
    _ZN4giac9pari_helpERKNS_3genE @5910
    _ZN4giac9pari_zetaERKNS_3genE @5911
    _ZN4giac9plotfieldERKNS_3genES2_S2_S2_dddddddRNS_15dbgprint_vectorIS0_EEbPKNS_7contextE @5912
    _ZN4giac9plotparamERKNS_3genES2_RKNS_15dbgprint_vectorIS0_EEbdddddddS2_S2_PKNS_7contextE @5913
    _ZN4giac9plotprobaERKNS_3genERKNS_15dbgprint_vectorIS0_EES6_PKNS_7contextE @5914
    _ZN4giac9point2abcERKNS_3genES2_RS0_S3_S3_PKNS_7contextE @5915
    _ZN4giac9pointplusERKNS_3genES2_PKNS_7contextE @5916
    _ZN4giac9poslbdLMQERKNS_15dbgprint_vectorINS_3genEEEPKNS_7contextE @5917
    _ZN4giac9pow2explnERKNS_3genEPKNS_7contextE @5918
    _ZN4giac9pow2explnERKNS_3genERKNS_14identificateurEPKNS_7contextE @5919
    _ZN4giac9powexpandERKNS_3genEPKNS_7contextE @5920
    _ZN4giac9prevprimeERKNS_3genE @5921
    _ZN4giac9printboolERSoRKSt6vectorIS1_IjSaIjEESaIS3_EEi @5922
    _ZN4giac9printcellERKNS_15dbgprint_vectorINS_3genEEEPKNS_7contextE @5923
    _ZN4giac9prod2fracERKNS_3genERNS_15dbgprint_vectorIS0_EES5_ @5924
    _ZN4giac9psrgcdmodERNS_6tensorINS_3genEEES3_RKS1_S3_ @5925
    _ZN4giac9ptruncateERNS_15dbgprint_vectorINS_6monomeEEERKNS_3genEPKNS_7contextE @5926
    _ZN4giac9pushsplitERSt6vectorItSaItEERjj @5927
    _ZN4giac9q__IDNT_eE @5928 DATA
    _ZN4giac9r__IDNT_eE @5929 DATA
    _ZN4giac9rad2deg_dE @5930 DATA
    _ZN4giac9rad2deg_eE @5931 DATA
    _ZN4giac9rad2deg_gE @5932 DATA
    _ZN4giac9rand_max2E @5933 DATA
    _ZN4giac9rand_seedEPKNS_7contextE @5934
    _ZN4giac9rand_seedEjPKNS_7contextE @5935
    _ZN4giac9randnorm2ERdS0_PKNS_7contextE @5936
    _ZN4giac9ratfactorERKNS_3genEbPKNS_7contextE @5937
    _ZN4giac9ratnormalERKNS_3genE @5938
    _ZN4giac9readrangeERKNS_3genEddRS0_RdS4_PKNS_7contextE @5939
    _ZN4giac9reducemodERKNS_7polymodERKNS_11vectpolymodERKSt6vectorIjSaIjEEjRS0_i @5940
    _ZN4giac9ref_mpz_tC1ERA1_K12__mpz_struct @5941
    _ZN4giac9ref_mpz_tC1Ej @5942
    _ZN4giac9ref_mpz_tC1Ev @5943
    _ZN4giac9ref_mpz_tD1Ev @5944
    _ZN4giac9resultantERKNS_6tensorINS_3genEEES4_ @5945
    _ZN4giac9s__IDNT_eE @5946 DATA
    _ZN4giac9seconddecERKSt4pairIiiES3_ @5947
    _ZN4giac9set_mergeERNS_15dbgprint_vectorINS_3genEEERKS2_ @5948
    _ZN4giac9setdimerrEPKNS_7contextE @5949
    _ZN4giac9setdimerrERKSs @5950
    _ZN4giac9show_axesEPKNS_7contextE @5951
    _ZN4giac9show_axesEiPKNS_7contextE @5952
    _ZN4giac9signatureERKSt6vectorIiSaIiEE @5953
    _ZN4giac9simplify3ERNS_3genES1_ @5954
    _ZN4giac9sin_pi_12E @5955 DATA
    _ZN4giac9smallmultERKNS_3genERNS_5poly8ERS0_ @5956
    _ZN4giac9smallmultINS_3genENS_6tdeg_tEEEvRKT_RKSt6vectorINS_10T_unsignedIS3_T0_EESaIS9_EERSB_ @5957
    _ZN4giac9smallmultINS_3genENS_6tdeg_tEiEEvRKT_RKSt6vectorINS_10T_unsignedIS3_T0_EESaIS9_EERSB_RKT1_ @5958
    _ZN4giac9smallmultINS_3genEjEEvRKT_RKSt6vectorINS_10T_unsignedIS2_T0_EESaIS8_EERSA_ @5959
    _ZN4giac9smallmultINS_3genEjiEEvRKSt6vectorINS_10T_unsignedIT_T0_EESaIS6_EESA_RS8_RKT1_j @5960
    _ZN4giac9smallmultINS_3genEyiEEvRKSt6vectorINS_10T_unsignedIT_T0_EESaIS6_EESA_RS8_RKT1_j @5961
    _ZN4giac9smallmultISt6vectorIiSaIiEEjNS_6modredEEEvRKS1_INS_10T_unsignedIT_T0_EESaIS8_EESC_RSA_RKT1_j @5962
    _ZN4giac9smallmultISt6vectorIiSaIiEEjNS_6modredEEEvRKT_RKS1_INS_10T_unsignedIS5_T0_EESaISA_EERSC_RKT1_ @5963
    _ZN4giac9smallmultIdjiEEvRKSt6vectorINS_10T_unsignedIT_T0_EESaIS5_EES9_RS7_RKT1_j @5964
    _ZN4giac9smallmultIdyiEEvRKSt6vectorINS_10T_unsignedIT_T0_EESaIS5_EES9_RS7_RKT1_j @5965
    _ZN4giac9smallmultIiNS_6tdeg_tEiEEvRKT_RKSt6vectorINS_10T_unsignedIS2_T0_EESaIS8_EERSA_RKT1_ @5966
    _ZN4giac9smallmultIijEEvRKT_RKSt6vectorINS_10T_unsignedIS1_T0_EESaIS7_EERS9_ @5967
    _ZN4giac9smallmultIijiEEvRKSt6vectorINS_10T_unsignedIT_T0_EESaIS5_EES9_RS7_RKT1_j @5968
    _ZN4giac9smallmultIijiEEvRKT_RKSt6vectorINS_10T_unsignedIS1_T0_EESaIS7_EERS9_RKT1_ @5969
    _ZN4giac9smallmultIxjiEEvRKSt6vectorINS_10T_unsignedIT_T0_EESaIS5_EES9_RS7_RKT1_j @5970
    _ZN4giac9smallmultIxyiEEvRKSt6vectorINS_10T_unsignedIT_T0_EESaIS5_EES9_RS7_RKT1_j @5971
    _ZN4giac9sortsubstERKNS_15dbgprint_vectorINS_3genEEES4_S4_bPKNS_7contextE @5972
    _ZN4giac9sortsubstERKNS_3genERKNS_15dbgprint_vectorIS0_EES6_bPKNS_7contextE @5973
    _ZN4giac9string_piE @5974 DATA
    _ZN4giac9sturm_seqERKNS_6tensorINS_3genEEERS2_ @5975
    _ZN4giac9sturmsignERKNS_3genEbPKNS_7contextE @5976
    _ZN4giac9sylvesterERKNS_15dbgprint_vectorINS_3genEEES4_ @5977
    _ZN4giac9symb_IFTEERKNS_3genE @5978
    _ZN4giac9symb_argsERKNS_3genE @5979
    _ZN4giac9symb_asinERKNS_3genE @5980
    _ZN4giac9symb_atanERKNS_3genE @5981
    _ZN4giac9symb_blocERKNS_3genE @5982
    _ZN4giac9symb_caseERKNS_3genE @5983
    _ZN4giac9symb_caseERKNS_3genES2_ @5984
    _ZN4giac9symb_coshERKNS_3genE @5985
    _ZN4giac9symb_egvlERKNS_3genE @5986
    _ZN4giac9symb_evalERKNS_3genE @5987
    _ZN4giac9symb_ifteERKNS_3genES2_S2_ @5988
    _ZN4giac9symb_lvarERKNS_3genE @5989
    _ZN4giac9symb_pcarERKNS_3genE @5990
    _ZN4giac9symb_plusERKNS_3genES2_ @5991
    _ZN4giac9symb_prodERKNS_3genES2_ @5992
    _ZN4giac9symb_ranmERKNS_3genE @5993
    _ZN4giac9symb_rrefERKNS_3genE @5994
    _ZN4giac9symb_sameERKNS_3genE @5995
    _ZN4giac9symb_sameERKNS_3genES2_ @5996
    _ZN4giac9symb_sinhERKNS_3genE @5997
    _ZN4giac9symb_sizeERKNS_3genE @5998
    _ZN4giac9symb_tlinERKNS_3genE @5999
    _ZN4giac9symb_tranERKNS_3genE @6000
    _ZN4giac9symb_unitERKNS_3genES2_PKNS_7contextE @6001
    _ZN4giac9symb_whenERKNS_3genE @6002
    _ZN4giac9symb_whenERKNS_3genES2_S2_ @6003
    _ZN4giac9symhornerERKNS_15dbgprint_vectorINS_3genEEERKS1_ @6004
    _ZN4giac9t__IDNT_eE @6005 DATA
    _ZN4giac9table_cosE @6006 DATA
    _ZN4giac9table_tanE @6007 DATA
    _ZN4giac9tan_pi_12E @6008 DATA
    _ZN4giac9tsimplifyERKNS_3genEPKNS_7contextE @6009
    _ZN4giac9u__IDNT_eE @6010 DATA
    _ZN4giac9unarchiveERSiPKNS_7contextE @6011
    _ZN4giac9unitarizeERKNS_6tensorINS_3genEEERS2_S5_ @6012
    _ZN4giac9update_xyERNS_6axbinvERA1_12__mpz_structS4_RSt6vectorIiSaIiEES8_RKNS_3genERKS5_INS_7basis_tESaISC_EERKS7_RKNS_15dbgprint_vectorIS9_EESM_PjS4_S4_S4_S4_S4_S4_S4_ @6013
    _ZN4giac9v__IDNT_eE @6014 DATA
    _ZN4giac9vectpoly8C1ERKS0_ @6015
    _ZN4giac9vectpoly8C1Ev @6016
    _ZN4giac9vectpoly8D1Ev @6017
    _ZN4giac9vectpoly8aSERKS0_ @6018
    _ZN4giac9w__IDNT_eE @6019 DATA
    _ZN4giac9when2signERKNS_3genEPKNS_7contextE @6020
    _ZN4giac9wilcoxonpEi @6021
    _ZN4giac9wilcoxonpEiiPKNS_7contextE @6022
    _ZN4giac9wilcoxonsERKNS_15dbgprint_vectorINS_3genEEERKS1_PKNS_7contextE @6023
    _ZN4giac9writehelpERKNS_4aideEi @6024
    _ZN4giac9x__IDNT_eE @6025 DATA
    _ZN4giac9xcas_modeEPKNS_7contextE @6026
    _ZN4giac9xcas_modeEiPKNS_7contextE @6027
    _ZN4giac9xyztrangeEddddddddddddiddbb @6028
    _ZN4giac9y__IDNT_eE @6029 DATA
    _ZN4giac9z__IDNT_eE @6030 DATA
    _ZN4giac9zincreaseERSt6vectorINS_8zpolymodESaIS1_EE @6031
    _ZN4giac9zmakelineERKNS_8zpolymodEPKNS_6tdeg_tERKSt6vectorIS3_SaIS3_EERS6_IiSaIiEEi @6032
    _ZN4giac9zoom_saveE @6033 DATA
    _ZN4giacaaERKNS_3genES2_ @6034
    _ZN4giacdvERKNS_15dbgprint_vectorINS_3genEEERKS1_ @6035
    _ZN4giacdvERKNS_15dbgprint_vectorINS_3genEEES4_ @6036
    _ZN4giacdvERKNS_3genES2_ @6037
    _ZN4giacdvERKNS_6my_mpzES2_ @6038
    _ZN4giacdvERKNS_6tensorINS_3genEEERKS1_ @6039
    _ZN4giacdvERKNS_6tensorINS_3genEEES4_ @6040
    _ZN4giacdvERKNS_7index_mEi @6041
    _ZN4giacdvERKSt6vectorIiSaIiEES4_ @6042
    _ZN4giacdvERKSt6vectorIsSaIsEES4_ @6043
    _ZN4giacdvERKSt6vectorIsSaIsEEi @6044
    _ZN4giacdvINS_3genEEENS_9TfractionIT_EERKS3_RKS4_ @6045
    _ZN4giacdvINS_3genEEENS_9TfractionIT_EERKS4_RKS3_ @6046
    _ZN4giacdvINS_3genEEENS_9TfractionIT_EERKS4_S6_ @6047
    _ZN4giaceqERKNS_3genERKNS_14identificateurE @6048
    _ZN4giaceqERKNS_3genES2_ @6049
    _ZN4giaceqERKNS_5poly8ES2_ @6050
    _ZN4giaceqERKNS_6monomeES2_ @6051
    _ZN4giaceqERKNS_6tdeg_tES2_ @6052
    _ZN4giaceqERKNS_7index_mES2_ @6053
    _ZN4giaceqERKNS_7polymodES2_ @6054
    _ZN4giaceqERKNS_8zpolymodES2_ @6055
    _ZN4giaceqINS_3genEEEbRKNS_6tensorIT_EES6_ @6056
    _ZN4giaceqINS_3genEEEbRKNS_8monomialIT_EES6_ @6057
    _ZN4giacgeERKNS_7index_mES2_ @6058
    _ZN4giacgeERKSt6vectorIsSaIsEES4_ @6059
    _ZN4giacgtERKNS_3genES2_ @6060
    _ZN4giacgtERKSt6vectorIiSaIiEEd @6061
    _ZN4giacleERKNS_7index_mES2_ @6062
    _ZN4giaclsERSoRKNS_10T_unsignedIijEE @6063
    _ZN4giaclsERSoRKNS_13matrix_doubleE @6064
    _ZN4giaclsERSoRKNS_14identificateurE @6065
    _ZN4giaclsERSoRKNS_14sparse_elementE @6066
    _ZN4giaclsERSoRKNS_17alias_ref_vecteurE @6067
    _ZN4giaclsERSoRKNS_19unary_function_evalE @6068
    _ZN4giaclsERSoRKNS_19unary_function_listE @6069
    _ZN4giaclsERSoRKNS_20unary_function_unaryE @6070
    _ZN4giaclsERSoRKNS_21matrix_complex_doubleE @6071
    _ZN4giaclsERSoRKNS_22unary_function_composeE @6072
    _ZN4giaclsERSoRKNS_23unary_function_abstractE @6073
    _ZN4giaclsERSoRKNS_23unary_function_constantE @6074
    _ZN4giaclsERSoRKNS_24unary_function_innerprodE @6075
    _ZN4giaclsERSoRKNS_3genE @6076
    _ZN4giaclsERSoRKNS_5poly8E @6077
    _ZN4giaclsERSoRKNS_6monomeE @6078
    _ZN4giaclsERSoRKNS_6tdeg_tE @6079
    _ZN4giaclsERSoRKNS_7index_mE @6080
    _ZN4giaclsERSoRKNS_7polymodE @6081
    _ZN4giaclsERSoRKNS_8sparse32E @6082
    _ZN4giaclsERSoRKNS_8symbolicE @6083
    _ZN4giaclsERSoRKNS_8zpolymodE @6084
    _ZN4giaclsERSoRKSt6vectorISt7complexIdESaIS3_EE @6085
    _ZN4giaclsERSoRKSt6vectorIdSaIdEE @6086
    _ZN4giaclsERSoRKSt6vectorIsSaIsEE @6087
    _ZN4giaclsINS_15dbgprint_vectorINS_3genEEEEERSoS4_St6vectorIT_SaIS6_EE @6088
    _ZN4giaclsINS_3genEEERSoS2_RKNS_6tensorIT_EE @6089
    _ZN4giaclsINS_3genEEERSoS2_RKNS_9TfractionIT_EE @6090
    _ZN4giaclsINS_3genEEERSoS2_St6vectorIT_SaIS4_EE @6091
    _ZN4giaclsINS_5poly8EEERSoS2_St6vectorIT_SaIS4_EE @6092
    _ZN4giaclsINS_6monomeEEERSoS2_St6vectorIT_SaIS4_EE @6093
    _ZN4giaclsINS_6tensorINS_3genEEEEERSoS4_St6vectorIT_SaIS6_EE @6094
    _ZN4giaclsINS_7polymodEEERSoS2_St6vectorIT_SaIS4_EE @6095
    _ZN4giaclsINS_8zpolymodEEERSoS2_St6vectorIT_SaIS4_EE @6096
    _ZN4giaclsISt4pairIjjEEERSoS3_St6vectorIT_SaIS5_EE @6097
    _ZN4giaclsISt6vectorINS_10T_unsignedIS1_IiSaIiEEjEESaIS5_EEEERSoS8_S1_IT_SaIS9_EE @6098
    _ZN4giaclsISt6vectorIiSaIiEEEERSoS4_S1_IT_SaIS5_EE @6099
    _ZN4giaclsISt6vectorIiSaIiEEjEERSoS4_RKS1_INS_10T_unsignedIT_T0_EESaIS8_EE @6100
    _ZN4giaclsISt7complexIdEEERSoS3_St6vectorIT_SaIS5_EE @6101
    _ZN4giaclsIcEERSoS1_St6vectorIT_SaIS3_EE @6102
    _ZN4giaclsIdEERSoS1_St6vectorIT_SaIS3_EE @6103
    _ZN4giaclsIiEERSoS1_St6vectorIT_SaIS3_EE @6104
    _ZN4giaclsIijEERSoS1_RKSt6vectorINS_10T_unsignedIT_T0_EESaIS6_EE @6105
    _ZN4giaclsIjEERSoS1_St6vectorIT_SaIS3_EE @6106
    _ZN4giaclsIjjEERSoS1_RKSt4pairIT_T0_E @6107
    _ZN4giaclsIsEERSoS1_St6vectorIT_SaIS3_EE @6108
    _ZN4giaclsIyEERSoS1_St6vectorIT_SaIS3_EE @6109
    _ZN4giacltERKNS_10T_unsignedIijEES3_ @6110
    _ZN4giacltERKNS_10heap_indexES2_ @6111
    _ZN4giacltERKNS_14indexed_stringES2_ @6112
    _ZN4giacltERKNS_16localized_stringES2_ @6113
    _ZN4giacltERKNS_4xeffES2_ @6114
    _ZN4giacltERKNS_6tensorINS_3genEEES4_ @6115
    _ZN4giacltERKNS_7facteurINS_6tensorINS_3genEEEEES6_ @6116
    _ZN4giacltINS_15dbgprint_vectorINS_3genEEEjEEbRKNS_10T_unsignedIT_T0_EES9_ @6117
    _ZN4giacltINS_3genEjEEbRKNS_10T_unsignedIT_T0_EES7_ @6118
    _ZN4giacltINS_3genEyEEbRKNS_10T_unsignedIT_T0_EES7_ @6119
    _ZN4giacltISt6vectorIiSaIiEEjEEbRKNS_10T_unsignedIT_T0_EES9_ @6120
    _ZN4giacltIdjEEbRKNS_10T_unsignedIT_T0_EES6_ @6121
    _ZN4giacltIdyEEbRKNS_10T_unsignedIT_T0_EES6_ @6122
    _ZN4giacltIijEEbRKNS_10T_unsignedIT_T0_EES6_ @6123
    _ZN4giacltIiyEEbRKNS_10T_unsignedIT_T0_EES6_ @6124
    _ZN4giacltIjEEbRKNS_10U_unsignedIT_EES5_ @6125
    _ZN4giacltIjEEbRKNS_12u_pair_indexIT_EES5_ @6126
    _ZN4giacltIxjEEbRKNS_10T_unsignedIT_T0_EES6_ @6127
    _ZN4giacltIxyEEbRKNS_10T_unsignedIT_T0_EES6_ @6128
    _ZN4giacltIyEEbRKNS_10U_unsignedIT_EES5_ @6129
    _ZN4giacltIyEEbRKNS_12u_pair_indexIT_EES5_ @6130
    _ZN4giacmIERNS_3genERKS0_ @6131
    _ZN4giacmIERNS_6my_mpzERKS0_ @6132
    _ZN4giacmLERNS_6tensorINS_3genEEERKS2_ @6133
    _ZN4giacmiERKNS_15dbgprint_vectorINS_3genEEES4_ @6134
    _ZN4giacmiERKNS_3genES2_ @6135
    _ZN4giacmiERKNS_6my_mpzES2_ @6136
    _ZN4giacmiERKNS_6tdeg_tES2_ @6137
    _ZN4giacmiERKNS_6tensorINS_3genEEES4_ @6138
    _ZN4giacmiERKNS_7index_mES2_ @6139
    _ZN4giacmiERKSt6vectorIiSaIiEES4_ @6140
    _ZN4giacmiERKSt6vectorIsSaIsEES4_ @6141
    _ZN4giacmiINS_3genEEENS_9TfractionIT_EERKS3_RKS4_ @6142
    _ZN4giacmiINS_3genEEENS_9TfractionIT_EERKS4_RKS3_ @6143
    _ZN4giacmiINS_3genEEENS_9TfractionIT_EERKS4_S6_ @6144
    _ZN4giacmlERKNS_15dbgprint_vectorINS_3genEEERKS1_ @6145
    _ZN4giacmlERKNS_15dbgprint_vectorINS_3genEEES4_ @6146
    _ZN4giacmlERKNS_3genERKNS_15dbgprint_vectorIS0_EE @6147
    _ZN4giacmlERKNS_3genERKNS_6tensorIS0_EE @6148
    _ZN4giacmlERKNS_3genES2_ @6149
    _ZN4giacmlERKNS_6my_mpzES2_ @6150
    _ZN4giacmlERKNS_6tensorINS_3genEEERKS1_ @6151
    _ZN4giacmlERKNS_6tensorINS_3genEEES4_ @6152
    _ZN4giacmlERKNS_7index_mEi @6153
    _ZN4giacmlERKSt6vectorIsSaIsEEi @6154
    _ZN4giacmlEdRKNS_3genE @6155
    _ZN4giacmlEiRKNS_3genE @6156
    _ZN4giacmlINS_3genEEENS_9TfractionIT_EERKS3_RKS4_ @6157
    _ZN4giacmlINS_3genEEENS_9TfractionIT_EERKS4_RKS3_ @6158
    _ZN4giacmlINS_3genEEENS_9TfractionIT_EERKS4_S6_ @6159
    _ZN4giacneERKNS_3genERKNS_14identificateurE @6160
    _ZN4giacneERKNS_3genES2_ @6161
    _ZN4giacneERKNS_6tdeg_tES2_ @6162
    _ZN4giacneERKNS_7index_mES2_ @6163
    _ZN4giacngERKNS_15dbgprint_vectorINS_3genEEE @6164
    _ZN4giacngERKNS_3genE @6165
    _ZN4giacngERKNS_6tensorINS_3genEEE @6166
    _ZN4giacngERKSt6vectorIiSaIiEE @6167
    _ZN4giacngERKSt6vectorIsSaIsEE @6168
    _ZN4giacntERKNS_3genE @6169
    _ZN4giacooERKNS_3genES2_ @6170
    _ZN4giacorERKSt6vectorIsSaIsEES4_ @6171
    _ZN4giacpLERNS_3genERKS0_ @6172
    _ZN4giacpLERNS_6my_mpzERKS0_ @6173
    _ZN4giacpLERNS_6tdeg_tERKS0_ @6174
    _ZN4giacplERKNS_15dbgprint_vectorINS_3genEEES4_ @6175
    _ZN4giacplERKNS_3genES2_ @6176
    _ZN4giacplERKNS_6my_mpzES2_ @6177
    _ZN4giacplERKNS_6tdeg_tES2_ @6178
    _ZN4giacplERKNS_6tensorINS_3genEEES4_ @6179
    _ZN4giacplERKNS_7index_mES2_ @6180
    _ZN4giacplERKNS_9TfractionINS_3genEEES4_ @6181
    _ZN4giacplERKSt6vectorIiSaIiEES4_ @6182
    _ZN4giacplERKSt6vectorIsSaIsEES4_ @6183
    _ZN4giacplINS_3genEEENS_9TfractionIT_EERKS3_RKS4_ @6184
    _ZN4giacplINS_3genEEENS_9TfractionIT_EERKS4_RKS3_ @6185
    _ZN4giacrMERNS_6my_mpzERKS0_ @6186
    _ZN4giacrmERKNS_15dbgprint_vectorINS_3genEEES4_ @6187
    _ZN4giacrmERKNS_3genES2_ @6188
    _ZN4giacrmERKNS_6my_mpzES2_ @6189
    _ZN4giacrmERKNS_6tensorINS_3genEEERKS1_ @6190
    _ZN4giacrmERKNS_6tensorINS_3genEEES4_ @6191
    _ZN4giacrmERKSt6vectorIiSaIiEES4_ @6192
    _ZN4giacrmERKSt6vectorIiSaIiEEi @6193
    _ZN4giacrsERSiRNS_3genE @6194
    _ZN9__gnu_cxx13new_allocatorIN4giac10T_unsignedINS1_15dbgprint_vectorINS1_3genEEEjEEE10deallocateEPS6_j @6195
    _ZN9__gnu_cxx13new_allocatorIN4giac10T_unsignedINS1_15dbgprint_vectorINS1_3genEEEjEEE7destroyEPS6_ @6196
    _ZN9__gnu_cxx13new_allocatorIN4giac10T_unsignedINS1_15dbgprint_vectorINS1_3genEEEjEEE8allocateEjPKv @6197
    _ZN9__gnu_cxx13new_allocatorIN4giac10T_unsignedINS1_15dbgprint_vectorINS1_3genEEEjEEE9constructEPS6_RKS6_ @6198
    _ZN9__gnu_cxx13new_allocatorIN4giac10T_unsignedINS1_15dbgprint_vectorINS1_3genEEEjEEEC2ERKS7_ @6199
    _ZN9__gnu_cxx13new_allocatorIN4giac10T_unsignedINS1_15dbgprint_vectorINS1_3genEEEjEEEC2Ev @6200
    _ZN9__gnu_cxx13new_allocatorIN4giac10T_unsignedINS1_15dbgprint_vectorINS1_3genEEEjEEED2Ev @6201
    _ZN9__gnu_cxx13new_allocatorIN4giac10T_unsignedINS1_3genENS1_6tdeg_tEEEE10deallocateEPS5_j @6202
    _ZN9__gnu_cxx13new_allocatorIN4giac10T_unsignedINS1_3genENS1_6tdeg_tEEEE7destroyEPS5_ @6203
    _ZN9__gnu_cxx13new_allocatorIN4giac10T_unsignedINS1_3genENS1_6tdeg_tEEEE8allocateEjPKv @6204
    _ZN9__gnu_cxx13new_allocatorIN4giac10T_unsignedINS1_3genENS1_6tdeg_tEEEE9constructEPS5_RKS5_ @6205
    _ZN9__gnu_cxx13new_allocatorIN4giac10T_unsignedINS1_3genENS1_6tdeg_tEEEEC2ERKS6_ @6206
    _ZN9__gnu_cxx13new_allocatorIN4giac10T_unsignedINS1_3genENS1_6tdeg_tEEEEC2Ev @6207
    _ZN9__gnu_cxx13new_allocatorIN4giac10T_unsignedINS1_3genENS1_6tdeg_tEEEED2Ev @6208
    _ZN9__gnu_cxx13new_allocatorIN4giac10T_unsignedINS1_3genEjEEE10deallocateEPS4_j @6209
    _ZN9__gnu_cxx13new_allocatorIN4giac10T_unsignedINS1_3genEjEEE7destroyEPS4_ @6210
    _ZN9__gnu_cxx13new_allocatorIN4giac10T_unsignedINS1_3genEjEEE8allocateEjPKv @6211
    _ZN9__gnu_cxx13new_allocatorIN4giac10T_unsignedINS1_3genEjEEE9constructEPS4_RKS4_ @6212
    _ZN9__gnu_cxx13new_allocatorIN4giac10T_unsignedINS1_3genEjEEEC2ERKS5_ @6213
    _ZN9__gnu_cxx13new_allocatorIN4giac10T_unsignedINS1_3genEjEEEC2Ev @6214
    _ZN9__gnu_cxx13new_allocatorIN4giac10T_unsignedINS1_3genEjEEED2Ev @6215
    _ZN9__gnu_cxx13new_allocatorIN4giac10T_unsignedINS1_3genEyEEE10deallocateEPS4_j @6216
    _ZN9__gnu_cxx13new_allocatorIN4giac10T_unsignedINS1_3genEyEEE7destroyEPS4_ @6217
    _ZN9__gnu_cxx13new_allocatorIN4giac10T_unsignedINS1_3genEyEEE8allocateEjPKv @6218
    _ZN9__gnu_cxx13new_allocatorIN4giac10T_unsignedINS1_3genEyEEE9constructEPS4_RKS4_ @6219
    _ZN9__gnu_cxx13new_allocatorIN4giac10T_unsignedINS1_3genEyEEEC2ERKS5_ @6220
    _ZN9__gnu_cxx13new_allocatorIN4giac10T_unsignedINS1_3genEyEEEC2Ev @6221
    _ZN9__gnu_cxx13new_allocatorIN4giac10T_unsignedINS1_3genEyEEED2Ev @6222
    _ZN9__gnu_cxx13new_allocatorIN4giac10T_unsignedISt6vectorIiSaIiEEjEEE10deallocateEPS6_j @6223
    _ZN9__gnu_cxx13new_allocatorIN4giac10T_unsignedISt6vectorIiSaIiEEjEEE7destroyEPS6_ @6224
    _ZN9__gnu_cxx13new_allocatorIN4giac10T_unsignedISt6vectorIiSaIiEEjEEE8allocateEjPKv @6225
    _ZN9__gnu_cxx13new_allocatorIN4giac10T_unsignedISt6vectorIiSaIiEEjEEE9constructEPS6_RKS6_ @6226
    _ZN9__gnu_cxx13new_allocatorIN4giac10T_unsignedISt6vectorIiSaIiEEjEEEC2ERKS7_ @6227
    _ZN9__gnu_cxx13new_allocatorIN4giac10T_unsignedISt6vectorIiSaIiEEjEEEC2Ev @6228
    _ZN9__gnu_cxx13new_allocatorIN4giac10T_unsignedISt6vectorIiSaIiEEjEEED2Ev @6229
    _ZN9__gnu_cxx13new_allocatorIN4giac10T_unsignedIdjEEE10deallocateEPS3_j @6230
    _ZN9__gnu_cxx13new_allocatorIN4giac10T_unsignedIdjEEE7destroyEPS3_ @6231
    _ZN9__gnu_cxx13new_allocatorIN4giac10T_unsignedIdjEEE8allocateEjPKv @6232
    _ZN9__gnu_cxx13new_allocatorIN4giac10T_unsignedIdjEEE9constructEPS3_RKS3_ @6233
    _ZN9__gnu_cxx13new_allocatorIN4giac10T_unsignedIdjEEEC2ERKS4_ @6234
    _ZN9__gnu_cxx13new_allocatorIN4giac10T_unsignedIdjEEEC2Ev @6235
    _ZN9__gnu_cxx13new_allocatorIN4giac10T_unsignedIdjEEED2Ev @6236
    _ZN9__gnu_cxx13new_allocatorIN4giac10T_unsignedIdyEEE10deallocateEPS3_j @6237
    _ZN9__gnu_cxx13new_allocatorIN4giac10T_unsignedIdyEEE7destroyEPS3_ @6238
    _ZN9__gnu_cxx13new_allocatorIN4giac10T_unsignedIdyEEE8allocateEjPKv @6239
    _ZN9__gnu_cxx13new_allocatorIN4giac10T_unsignedIdyEEE9constructEPS3_RKS3_ @6240
    _ZN9__gnu_cxx13new_allocatorIN4giac10T_unsignedIdyEEEC2ERKS4_ @6241
    _ZN9__gnu_cxx13new_allocatorIN4giac10T_unsignedIdyEEEC2Ev @6242
    _ZN9__gnu_cxx13new_allocatorIN4giac10T_unsignedIdyEEED2Ev @6243
    _ZN9__gnu_cxx13new_allocatorIN4giac10T_unsignedIiNS1_6tdeg_tEEEE10deallocateEPS4_j @6244
    _ZN9__gnu_cxx13new_allocatorIN4giac10T_unsignedIiNS1_6tdeg_tEEEE7destroyEPS4_ @6245
    _ZN9__gnu_cxx13new_allocatorIN4giac10T_unsignedIiNS1_6tdeg_tEEEE8allocateEjPKv @6246
    _ZN9__gnu_cxx13new_allocatorIN4giac10T_unsignedIiNS1_6tdeg_tEEEE9constructEPS4_RKS4_ @6247
    _ZN9__gnu_cxx13new_allocatorIN4giac10T_unsignedIiNS1_6tdeg_tEEEEC2ERKS5_ @6248
    _ZN9__gnu_cxx13new_allocatorIN4giac10T_unsignedIiNS1_6tdeg_tEEEEC2Ev @6249
    _ZN9__gnu_cxx13new_allocatorIN4giac10T_unsignedIiNS1_6tdeg_tEEEED2Ev @6250
    _ZN9__gnu_cxx13new_allocatorIN4giac10T_unsignedIijEEE10deallocateEPS3_j @6251
    _ZN9__gnu_cxx13new_allocatorIN4giac10T_unsignedIijEEE7destroyEPS3_ @6252
    _ZN9__gnu_cxx13new_allocatorIN4giac10T_unsignedIijEEE8allocateEjPKv @6253
    _ZN9__gnu_cxx13new_allocatorIN4giac10T_unsignedIijEEE9constructEPS3_RKS3_ @6254
    _ZN9__gnu_cxx13new_allocatorIN4giac10T_unsignedIijEEEC2ERKS4_ @6255
    _ZN9__gnu_cxx13new_allocatorIN4giac10T_unsignedIijEEEC2Ev @6256
    _ZN9__gnu_cxx13new_allocatorIN4giac10T_unsignedIijEEED2Ev @6257
    _ZN9__gnu_cxx13new_allocatorIN4giac10T_unsignedIiyEEE10deallocateEPS3_j @6258
    _ZN9__gnu_cxx13new_allocatorIN4giac10T_unsignedIiyEEE7destroyEPS3_ @6259
    _ZN9__gnu_cxx13new_allocatorIN4giac10T_unsignedIiyEEE8allocateEjPKv @6260
    _ZN9__gnu_cxx13new_allocatorIN4giac10T_unsignedIiyEEE9constructEPS3_RKS3_ @6261
    _ZN9__gnu_cxx13new_allocatorIN4giac10T_unsignedIiyEEEC2Ev @6262
    _ZN9__gnu_cxx13new_allocatorIN4giac10T_unsignedIiyEEED2Ev @6263
    _ZN9__gnu_cxx13new_allocatorIN4giac10T_unsignedIxjEEE10deallocateEPS3_j @6264
    _ZN9__gnu_cxx13new_allocatorIN4giac10T_unsignedIxjEEE7destroyEPS3_ @6265
    _ZN9__gnu_cxx13new_allocatorIN4giac10T_unsignedIxjEEE8allocateEjPKv @6266
    _ZN9__gnu_cxx13new_allocatorIN4giac10T_unsignedIxjEEE9constructEPS3_RKS3_ @6267
    _ZN9__gnu_cxx13new_allocatorIN4giac10T_unsignedIxjEEEC2ERKS4_ @6268
    _ZN9__gnu_cxx13new_allocatorIN4giac10T_unsignedIxjEEEC2Ev @6269
    _ZN9__gnu_cxx13new_allocatorIN4giac10T_unsignedIxjEEED2Ev @6270
    _ZN9__gnu_cxx13new_allocatorIN4giac10T_unsignedIxyEEE10deallocateEPS3_j @6271
    _ZN9__gnu_cxx13new_allocatorIN4giac10T_unsignedIxyEEE7destroyEPS3_ @6272
    _ZN9__gnu_cxx13new_allocatorIN4giac10T_unsignedIxyEEE8allocateEjPKv @6273
    _ZN9__gnu_cxx13new_allocatorIN4giac10T_unsignedIxyEEE9constructEPS3_RKS3_ @6274
    _ZN9__gnu_cxx13new_allocatorIN4giac10T_unsignedIxyEEEC2ERKS4_ @6275
    _ZN9__gnu_cxx13new_allocatorIN4giac10T_unsignedIxyEEEC2Ev @6276
    _ZN9__gnu_cxx13new_allocatorIN4giac10T_unsignedIxyEEED2Ev @6277
    _ZN9__gnu_cxx13new_allocatorIN4giac10lp_entry_tEE10deallocateEPS2_j @6278
    _ZN9__gnu_cxx13new_allocatorIN4giac10lp_entry_tEE7destroyEPS2_ @6279
    _ZN9__gnu_cxx13new_allocatorIN4giac10lp_entry_tEE8allocateEjPKv @6280
    _ZN9__gnu_cxx13new_allocatorIN4giac10lp_entry_tEE9constructEPS2_RKS2_ @6281
    _ZN9__gnu_cxx13new_allocatorIN4giac10lp_entry_tEEC2ERKS3_ @6282
    _ZN9__gnu_cxx13new_allocatorIN4giac10lp_entry_tEEC2Ev @6283
    _ZN9__gnu_cxx13new_allocatorIN4giac10lp_entry_tEED2Ev @6284
    _ZN9__gnu_cxx13new_allocatorIN4giac10sparse_genEE10deallocateEPS2_j @6285
    _ZN9__gnu_cxx13new_allocatorIN4giac10sparse_genEE7destroyEPS2_ @6286
    _ZN9__gnu_cxx13new_allocatorIN4giac10sparse_genEE8allocateEjPKv @6287
    _ZN9__gnu_cxx13new_allocatorIN4giac10sparse_genEE9constructEPS2_RKS2_ @6288
    _ZN9__gnu_cxx13new_allocatorIN4giac10sparse_genEEC2ERKS3_ @6289
    _ZN9__gnu_cxx13new_allocatorIN4giac10sparse_genEEC2Ev @6290
    _ZN9__gnu_cxx13new_allocatorIN4giac10sparse_genEED2Ev @6291
    _ZN9__gnu_cxx13new_allocatorIN4giac11heap_tt_ptrEE10deallocateEPS2_j @6292
    _ZN9__gnu_cxx13new_allocatorIN4giac11heap_tt_ptrEE7destroyEPS2_ @6293
    _ZN9__gnu_cxx13new_allocatorIN4giac11heap_tt_ptrEE8allocateEjPKv @6294
    _ZN9__gnu_cxx13new_allocatorIN4giac11heap_tt_ptrEE9constructEPS2_RKS2_ @6295
    _ZN9__gnu_cxx13new_allocatorIN4giac11heap_tt_ptrEEC2Ev @6296
    _ZN9__gnu_cxx13new_allocatorIN4giac11heap_tt_ptrEED2Ev @6297
    _ZN9__gnu_cxx13new_allocatorIN4giac11logo_turtleEE10deallocateEPS2_j @6298
    _ZN9__gnu_cxx13new_allocatorIN4giac11logo_turtleEE7destroyEPS2_ @6299
    _ZN9__gnu_cxx13new_allocatorIN4giac11logo_turtleEE8allocateEjPKv @6300
    _ZN9__gnu_cxx13new_allocatorIN4giac11logo_turtleEE9constructEPS2_RKS2_ @6301
    _ZN9__gnu_cxx13new_allocatorIN4giac11logo_turtleEEC2ERKS3_ @6302
    _ZN9__gnu_cxx13new_allocatorIN4giac11logo_turtleEEC2Ev @6303
    _ZN9__gnu_cxx13new_allocatorIN4giac11logo_turtleEED2Ev @6304
    _ZN9__gnu_cxx13new_allocatorIN4giac12coeffindex_tEE10deallocateEPS2_j @6305
    _ZN9__gnu_cxx13new_allocatorIN4giac12coeffindex_tEE7destroyEPS2_ @6306
    _ZN9__gnu_cxx13new_allocatorIN4giac12coeffindex_tEE8allocateEjPKv @6307
    _ZN9__gnu_cxx13new_allocatorIN4giac12coeffindex_tEE9constructEPS2_RKS2_ @6308
    _ZN9__gnu_cxx13new_allocatorIN4giac12coeffindex_tEEC2ERKS3_ @6309
    _ZN9__gnu_cxx13new_allocatorIN4giac12coeffindex_tEEC2Ev @6310
    _ZN9__gnu_cxx13new_allocatorIN4giac12coeffindex_tEED2Ev @6311
    _ZN9__gnu_cxx13new_allocatorIN4giac13nr_pointers_tEE10deallocateEPS2_j @6312
    _ZN9__gnu_cxx13new_allocatorIN4giac13nr_pointers_tEE7destroyEPS2_ @6313
    _ZN9__gnu_cxx13new_allocatorIN4giac13nr_pointers_tEE8allocateEjPKv @6314
    _ZN9__gnu_cxx13new_allocatorIN4giac13nr_pointers_tEE9constructEPS2_RKS2_ @6315
    _ZN9__gnu_cxx13new_allocatorIN4giac13nr_pointers_tEEC2Ev @6316
    _ZN9__gnu_cxx13new_allocatorIN4giac13nr_pointers_tEED2Ev @6317
    _ZN9__gnu_cxx13new_allocatorIN4giac13user_functionEE10deallocateEPS2_j @6318
    _ZN9__gnu_cxx13new_allocatorIN4giac13user_functionEE7destroyEPS2_ @6319
    _ZN9__gnu_cxx13new_allocatorIN4giac13user_functionEE8allocateEjPKv @6320
    _ZN9__gnu_cxx13new_allocatorIN4giac13user_functionEE9constructEPS2_RKS2_ @6321
    _ZN9__gnu_cxx13new_allocatorIN4giac13user_functionEEC2Ev @6322
    _ZN9__gnu_cxx13new_allocatorIN4giac14gcd_call_paramISt6vectorIiSaIiEEEEE10deallocateEPS6_j @6323
    _ZN9__gnu_cxx13new_allocatorIN4giac14gcd_call_paramISt6vectorIiSaIiEEEEE8allocateEjPKv @6324
    _ZN9__gnu_cxx13new_allocatorIN4giac14gcd_call_paramISt6vectorIiSaIiEEEEEC2ERKS7_ @6325
    _ZN9__gnu_cxx13new_allocatorIN4giac14gcd_call_paramISt6vectorIiSaIiEEEEEC2Ev @6326
    _ZN9__gnu_cxx13new_allocatorIN4giac14gcd_call_paramISt6vectorIiSaIiEEEEED2Ev @6327
    _ZN9__gnu_cxx13new_allocatorIN4giac14gcd_call_paramIiEEE10deallocateEPS3_j @6328
    _ZN9__gnu_cxx13new_allocatorIN4giac14gcd_call_paramIiEEE8allocateEjPKv @6329
    _ZN9__gnu_cxx13new_allocatorIN4giac14gcd_call_paramIiEEEC2ERKS4_ @6330
    _ZN9__gnu_cxx13new_allocatorIN4giac14gcd_call_paramIiEEEC2Ev @6331
    _ZN9__gnu_cxx13new_allocatorIN4giac14gcd_call_paramIiEEED2Ev @6332
    _ZN9__gnu_cxx13new_allocatorIN4giac14identificateurEE10deallocateEPS2_j @6333
    _ZN9__gnu_cxx13new_allocatorIN4giac14identificateurEE8allocateEjPKv @6334
    _ZN9__gnu_cxx13new_allocatorIN4giac14identificateurEEC2ERKS3_ @6335
    _ZN9__gnu_cxx13new_allocatorIN4giac14identificateurEEC2Ev @6336
    _ZN9__gnu_cxx13new_allocatorIN4giac14identificateurEED2Ev @6337
    _ZN9__gnu_cxx13new_allocatorIN4giac14indexed_stringEE10deallocateEPS2_j @6338
    _ZN9__gnu_cxx13new_allocatorIN4giac14indexed_stringEE7destroyEPS2_ @6339
    _ZN9__gnu_cxx13new_allocatorIN4giac14indexed_stringEE8allocateEjPKv @6340
    _ZN9__gnu_cxx13new_allocatorIN4giac14indexed_stringEE9constructEPS2_RKS2_ @6341
    _ZN9__gnu_cxx13new_allocatorIN4giac14indexed_stringEEC2ERKS3_ @6342
    _ZN9__gnu_cxx13new_allocatorIN4giac14indexed_stringEEC2Ev @6343
    _ZN9__gnu_cxx13new_allocatorIN4giac14indexed_stringEED2Ev @6344
    _ZN9__gnu_cxx13new_allocatorIN4giac14sparse_elementEE10deallocateEPS2_j @6345
    _ZN9__gnu_cxx13new_allocatorIN4giac14sparse_elementEE7destroyEPS2_ @6346
    _ZN9__gnu_cxx13new_allocatorIN4giac14sparse_elementEE8allocateEjPKv @6347
    _ZN9__gnu_cxx13new_allocatorIN4giac14sparse_elementEE9constructEPS2_RKS2_ @6348
    _ZN9__gnu_cxx13new_allocatorIN4giac14sparse_elementEEC2ERKS3_ @6349
    _ZN9__gnu_cxx13new_allocatorIN4giac14sparse_elementEEC2Ev @6350
    _ZN9__gnu_cxx13new_allocatorIN4giac14sparse_elementEED2Ev @6351
    _ZN9__gnu_cxx13new_allocatorIN4giac15dbgprint_vectorINS1_3genEEEE10deallocateEPS4_j @6352
    _ZN9__gnu_cxx13new_allocatorIN4giac15dbgprint_vectorINS1_3genEEEE7destroyEPS4_ @6353
    _ZN9__gnu_cxx13new_allocatorIN4giac15dbgprint_vectorINS1_3genEEEE8allocateEjPKv @6354
    _ZN9__gnu_cxx13new_allocatorIN4giac15dbgprint_vectorINS1_3genEEEE9constructEPS4_RKS4_ @6355
    _ZN9__gnu_cxx13new_allocatorIN4giac15dbgprint_vectorINS1_3genEEEEC2ERKS5_ @6356
    _ZN9__gnu_cxx13new_allocatorIN4giac15dbgprint_vectorINS1_3genEEEEC2Ev @6357
    _ZN9__gnu_cxx13new_allocatorIN4giac15dbgprint_vectorINS1_3genEEEED2Ev @6358
    _ZN9__gnu_cxx13new_allocatorIN4giac15dbgprint_vectorINS1_6monomeEEEE10deallocateEPS4_j @6359
    _ZN9__gnu_cxx13new_allocatorIN4giac15dbgprint_vectorINS1_6monomeEEEE7destroyEPS4_ @6360
    _ZN9__gnu_cxx13new_allocatorIN4giac15dbgprint_vectorINS1_6monomeEEEE8allocateEjPKv @6361
    _ZN9__gnu_cxx13new_allocatorIN4giac15dbgprint_vectorINS1_6monomeEEEE9constructEPS4_RKS4_ @6362
    _ZN9__gnu_cxx13new_allocatorIN4giac15dbgprint_vectorINS1_6monomeEEEEC2Ev @6363
    _ZN9__gnu_cxx13new_allocatorIN4giac15dbgprint_vectorINS1_6monomeEEEED2Ev @6364
    _ZN9__gnu_cxx13new_allocatorIN4giac16localized_stringEE10deallocateEPS2_j @6365
    _ZN9__gnu_cxx13new_allocatorIN4giac16localized_stringEE7destroyEPS2_ @6366
    _ZN9__gnu_cxx13new_allocatorIN4giac16localized_stringEE8allocateEjPKv @6367
    _ZN9__gnu_cxx13new_allocatorIN4giac16localized_stringEE9constructEPS2_RKS2_ @6368
    _ZN9__gnu_cxx13new_allocatorIN4giac16localized_stringEEC2ERKS3_ @6369
    _ZN9__gnu_cxx13new_allocatorIN4giac16localized_stringEEC2Ev @6370
    _ZN9__gnu_cxx13new_allocatorIN4giac16localized_stringEED2Ev @6371
    _ZN9__gnu_cxx13new_allocatorIN4giac18unary_function_ptrEE10deallocateEPS2_j @6372
    _ZN9__gnu_cxx13new_allocatorIN4giac18unary_function_ptrEE7destroyEPS2_ @6373
    _ZN9__gnu_cxx13new_allocatorIN4giac18unary_function_ptrEE8allocateEjPKv @6374
    _ZN9__gnu_cxx13new_allocatorIN4giac18unary_function_ptrEE9constructEPS2_RKS2_ @6375
    _ZN9__gnu_cxx13new_allocatorIN4giac18unary_function_ptrEEC2Ev @6376
    _ZN9__gnu_cxx13new_allocatorIN4giac18unary_function_ptrEED2Ev @6377
    _ZN9__gnu_cxx13new_allocatorIN4giac2pfINS1_3genEEEE10deallocateEPS4_j @6378
    _ZN9__gnu_cxx13new_allocatorIN4giac2pfINS1_3genEEEE7destroyEPS4_ @6379
    _ZN9__gnu_cxx13new_allocatorIN4giac2pfINS1_3genEEEE8allocateEjPKv @6380
    _ZN9__gnu_cxx13new_allocatorIN4giac2pfINS1_3genEEEE9constructEPS4_RKS4_ @6381
    _ZN9__gnu_cxx13new_allocatorIN4giac2pfINS1_3genEEEEC2ERKS5_ @6382
    _ZN9__gnu_cxx13new_allocatorIN4giac2pfINS1_3genEEEEC2Ev @6383
    _ZN9__gnu_cxx13new_allocatorIN4giac2pfINS1_3genEEEED2Ev @6384
    _ZN9__gnu_cxx13new_allocatorIN4giac3genEE10deallocateEPS2_j @6385
    _ZN9__gnu_cxx13new_allocatorIN4giac3genEE7destroyEPS2_ @6386
    _ZN9__gnu_cxx13new_allocatorIN4giac3genEE8allocateEjPKv @6387
    _ZN9__gnu_cxx13new_allocatorIN4giac3genEE9constructEPS2_RKS2_ @6388
    _ZN9__gnu_cxx13new_allocatorIN4giac3genEEC2ERKS3_ @6389
    _ZN9__gnu_cxx13new_allocatorIN4giac3genEEC2Ev @6390
    _ZN9__gnu_cxx13new_allocatorIN4giac3genEED2Ev @6391
    _ZN9__gnu_cxx13new_allocatorIN4giac3pf1EE10deallocateEPS2_j @6392
    _ZN9__gnu_cxx13new_allocatorIN4giac3pf1EE7destroyEPS2_ @6393
    _ZN9__gnu_cxx13new_allocatorIN4giac3pf1EE8allocateEjPKv @6394
    _ZN9__gnu_cxx13new_allocatorIN4giac3pf1EE9constructEPS2_RKS2_ @6395
    _ZN9__gnu_cxx13new_allocatorIN4giac3pf1EEC2Ev @6396
    _ZN9__gnu_cxx13new_allocatorIN4giac3pf1EED2Ev @6397
    _ZN9__gnu_cxx13new_allocatorIN4giac4aideEE10deallocateEPS2_j @6398
    _ZN9__gnu_cxx13new_allocatorIN4giac4aideEE7destroyEPS2_ @6399
    _ZN9__gnu_cxx13new_allocatorIN4giac4aideEE8allocateEjPKv @6400
    _ZN9__gnu_cxx13new_allocatorIN4giac4aideEE9constructEPS2_RKS2_ @6401
    _ZN9__gnu_cxx13new_allocatorIN4giac4aideEEC2ERKS3_ @6402
    _ZN9__gnu_cxx13new_allocatorIN4giac4aideEEC2Ev @6403
    _ZN9__gnu_cxx13new_allocatorIN4giac4aideEED2Ev @6404
    _ZN9__gnu_cxx13new_allocatorIN4giac4xeffEE10deallocateEPS2_j @6405
    _ZN9__gnu_cxx13new_allocatorIN4giac4xeffEE7destroyEPS2_ @6406
    _ZN9__gnu_cxx13new_allocatorIN4giac4xeffEE8allocateEjPKv @6407
    _ZN9__gnu_cxx13new_allocatorIN4giac4xeffEE9constructEPS2_RKS2_ @6408
    _ZN9__gnu_cxx13new_allocatorIN4giac4xeffEEC2Ev @6409
    _ZN9__gnu_cxx13new_allocatorIN4giac4xeffEED2Ev @6410
    _ZN9__gnu_cxx13new_allocatorIN4giac5poly8EE10deallocateEPS2_j @6411
    _ZN9__gnu_cxx13new_allocatorIN4giac5poly8EE7destroyEPS2_ @6412
    _ZN9__gnu_cxx13new_allocatorIN4giac5poly8EE8allocateEjPKv @6413
    _ZN9__gnu_cxx13new_allocatorIN4giac5poly8EE9constructEPS2_RKS2_ @6414
    _ZN9__gnu_cxx13new_allocatorIN4giac5poly8EEC2ERKS3_ @6415
    _ZN9__gnu_cxx13new_allocatorIN4giac5poly8EEC2Ev @6416
    _ZN9__gnu_cxx13new_allocatorIN4giac5poly8EED2Ev @6417
    _ZN9__gnu_cxx13new_allocatorIN4giac6axbinvEE10deallocateEPS2_j @6418
    _ZN9__gnu_cxx13new_allocatorIN4giac6axbinvEE7destroyEPS2_ @6419
    _ZN9__gnu_cxx13new_allocatorIN4giac6axbinvEE8allocateEjPKv @6420
    _ZN9__gnu_cxx13new_allocatorIN4giac6axbinvEE9constructEPS2_RKS2_ @6421
    _ZN9__gnu_cxx13new_allocatorIN4giac6axbinvEEC2Ev @6422
    _ZN9__gnu_cxx13new_allocatorIN4giac6axbinvEED2Ev @6423
    _ZN9__gnu_cxx13new_allocatorIN4giac6heap_tEE10deallocateEPS2_j @6424
    _ZN9__gnu_cxx13new_allocatorIN4giac6heap_tEE7destroyEPS2_ @6425
    _ZN9__gnu_cxx13new_allocatorIN4giac6heap_tEE8allocateEjPKv @6426
    _ZN9__gnu_cxx13new_allocatorIN4giac6heap_tEE9constructEPS2_RKS2_ @6427
    _ZN9__gnu_cxx13new_allocatorIN4giac6heap_tEEC2Ev @6428
    _ZN9__gnu_cxx13new_allocatorIN4giac6heap_tEED2Ev @6429
    _ZN9__gnu_cxx13new_allocatorIN4giac6info_tEE10deallocateEPS2_j @6430
    _ZN9__gnu_cxx13new_allocatorIN4giac6info_tEE7destroyEPS2_ @6431
    _ZN9__gnu_cxx13new_allocatorIN4giac6info_tEE8allocateEjPKv @6432
    _ZN9__gnu_cxx13new_allocatorIN4giac6info_tEE9constructEPS2_RKS2_ @6433
    _ZN9__gnu_cxx13new_allocatorIN4giac6info_tEEC2Ev @6434
    _ZN9__gnu_cxx13new_allocatorIN4giac6info_tEED2Ev @6435
    _ZN9__gnu_cxx13new_allocatorIN4giac6line_tEE10deallocateEPS2_j @6436
    _ZN9__gnu_cxx13new_allocatorIN4giac6line_tEE8allocateEjPKv @6437
    _ZN9__gnu_cxx13new_allocatorIN4giac6line_tEEC2ERKS3_ @6438
    _ZN9__gnu_cxx13new_allocatorIN4giac6line_tEEC2Ev @6439
    _ZN9__gnu_cxx13new_allocatorIN4giac6line_tEED2Ev @6440
    _ZN9__gnu_cxx13new_allocatorIN4giac6monomeEE10deallocateEPS2_j @6441
    _ZN9__gnu_cxx13new_allocatorIN4giac6monomeEE7destroyEPS2_ @6442
    _ZN9__gnu_cxx13new_allocatorIN4giac6monomeEE8allocateEjPKv @6443
    _ZN9__gnu_cxx13new_allocatorIN4giac6monomeEE9constructEPS2_RKS2_ @6444
    _ZN9__gnu_cxx13new_allocatorIN4giac6monomeEEC2ERKS3_ @6445
    _ZN9__gnu_cxx13new_allocatorIN4giac6monomeEEC2Ev @6446
    _ZN9__gnu_cxx13new_allocatorIN4giac6monomeEED2Ev @6447
    _ZN9__gnu_cxx13new_allocatorIN4giac6tdeg_tEE10deallocateEPS2_j @6448
    _ZN9__gnu_cxx13new_allocatorIN4giac6tdeg_tEE7destroyEPS2_ @6449
    _ZN9__gnu_cxx13new_allocatorIN4giac6tdeg_tEE8allocateEjPKv @6450
    _ZN9__gnu_cxx13new_allocatorIN4giac6tdeg_tEE9constructEPS2_RKS2_ @6451
    _ZN9__gnu_cxx13new_allocatorIN4giac6tdeg_tEEC2ERKS3_ @6452
    _ZN9__gnu_cxx13new_allocatorIN4giac6tdeg_tEEC2Ev @6453
    _ZN9__gnu_cxx13new_allocatorIN4giac6tdeg_tEED2Ev @6454
    _ZN9__gnu_cxx13new_allocatorIN4giac6tensorINS1_3genEEEE10deallocateEPS4_j @6455
    _ZN9__gnu_cxx13new_allocatorIN4giac6tensorINS1_3genEEEE7destroyEPS4_ @6456
    _ZN9__gnu_cxx13new_allocatorIN4giac6tensorINS1_3genEEEE8allocateEjPKv @6457
    _ZN9__gnu_cxx13new_allocatorIN4giac6tensorINS1_3genEEEE9constructEPS4_RKS4_ @6458
    _ZN9__gnu_cxx13new_allocatorIN4giac6tensorINS1_3genEEEEC2ERKS5_ @6459
    _ZN9__gnu_cxx13new_allocatorIN4giac6tensorINS1_3genEEEEC2Ev @6460
    _ZN9__gnu_cxx13new_allocatorIN4giac6tensorINS1_3genEEEED2Ev @6461
    _ZN9__gnu_cxx13new_allocatorIN4giac6vertexEE10deallocateEPS2_j @6462
    _ZN9__gnu_cxx13new_allocatorIN4giac6vertexEE8allocateEjPKv @6463
    _ZN9__gnu_cxx13new_allocatorIN4giac6vertexEEC2ERKS3_ @6464
    _ZN9__gnu_cxx13new_allocatorIN4giac6vertexEEC2Ev @6465
    _ZN9__gnu_cxx13new_allocatorIN4giac6vertexEED2Ev @6466
    _ZN9__gnu_cxx13new_allocatorIN4giac7basis_tEE10deallocateEPS2_j @6467
    _ZN9__gnu_cxx13new_allocatorIN4giac7basis_tEE7destroyEPS2_ @6468
    _ZN9__gnu_cxx13new_allocatorIN4giac7basis_tEE8allocateEjPKv @6469
    _ZN9__gnu_cxx13new_allocatorIN4giac7basis_tEE9constructEPS2_RKS2_ @6470
    _ZN9__gnu_cxx13new_allocatorIN4giac7basis_tEEC2Ev @6471
    _ZN9__gnu_cxx13new_allocatorIN4giac7basis_tEED2Ev @6472
    _ZN9__gnu_cxx13new_allocatorIN4giac7facteurINS1_15dbgprint_vectorINS1_3genEEEEEE10deallocateEPS6_j @6473
    _ZN9__gnu_cxx13new_allocatorIN4giac7facteurINS1_15dbgprint_vectorINS1_3genEEEEEE7destroyEPS6_ @6474
    _ZN9__gnu_cxx13new_allocatorIN4giac7facteurINS1_15dbgprint_vectorINS1_3genEEEEEE8allocateEjPKv @6475
    _ZN9__gnu_cxx13new_allocatorIN4giac7facteurINS1_15dbgprint_vectorINS1_3genEEEEEE9constructEPS6_RKS6_ @6476
    _ZN9__gnu_cxx13new_allocatorIN4giac7facteurINS1_15dbgprint_vectorINS1_3genEEEEEEC2Ev @6477
    _ZN9__gnu_cxx13new_allocatorIN4giac7facteurINS1_15dbgprint_vectorINS1_3genEEEEEED2Ev @6478
    _ZN9__gnu_cxx13new_allocatorIN4giac7facteurINS1_6tensorINS1_3genEEEEEE10deallocateEPS6_j @6479
    _ZN9__gnu_cxx13new_allocatorIN4giac7facteurINS1_6tensorINS1_3genEEEEEE7destroyEPS6_ @6480
    _ZN9__gnu_cxx13new_allocatorIN4giac7facteurINS1_6tensorINS1_3genEEEEEE8allocateEjPKv @6481
    _ZN9__gnu_cxx13new_allocatorIN4giac7facteurINS1_6tensorINS1_3genEEEEEE9constructEPS6_RKS6_ @6482
    _ZN9__gnu_cxx13new_allocatorIN4giac7facteurINS1_6tensorINS1_3genEEEEEEC2ERKS7_ @6483
    _ZN9__gnu_cxx13new_allocatorIN4giac7facteurINS1_6tensorINS1_3genEEEEEEC2Ev @6484
    _ZN9__gnu_cxx13new_allocatorIN4giac7facteurINS1_6tensorINS1_3genEEEEEED2Ev @6485
    _ZN9__gnu_cxx13new_allocatorIN4giac7heap_ttEE10deallocateEPS2_j @6486
    _ZN9__gnu_cxx13new_allocatorIN4giac7heap_ttEE7destroyEPS2_ @6487
    _ZN9__gnu_cxx13new_allocatorIN4giac7heap_ttEE8allocateEjPKv @6488
    _ZN9__gnu_cxx13new_allocatorIN4giac7heap_ttEE9constructEPS2_RKS2_ @6489
    _ZN9__gnu_cxx13new_allocatorIN4giac7heap_ttEEC2Ev @6490
    _ZN9__gnu_cxx13new_allocatorIN4giac7heap_ttEED2Ev @6491
    _ZN9__gnu_cxx13new_allocatorIN4giac7index_mEE10deallocateEPS2_j @6492
    _ZN9__gnu_cxx13new_allocatorIN4giac7index_mEE7destroyEPS2_ @6493
    _ZN9__gnu_cxx13new_allocatorIN4giac7index_mEE8allocateEjPKv @6494
    _ZN9__gnu_cxx13new_allocatorIN4giac7index_mEE9constructEPS2_RKS2_ @6495
    _ZN9__gnu_cxx13new_allocatorIN4giac7index_mEEC2Ev @6496
    _ZN9__gnu_cxx13new_allocatorIN4giac7index_mEED2Ev @6497
    _ZN9__gnu_cxx13new_allocatorIN4giac7nfactorEE10deallocateEPS2_j @6498
    _ZN9__gnu_cxx13new_allocatorIN4giac7nfactorEE7destroyEPS2_ @6499
    _ZN9__gnu_cxx13new_allocatorIN4giac7nfactorEE8allocateEjPKv @6500
    _ZN9__gnu_cxx13new_allocatorIN4giac7nfactorEE9constructEPS2_RKS2_ @6501
    _ZN9__gnu_cxx13new_allocatorIN4giac7nfactorEEC2Ev @6502
    _ZN9__gnu_cxx13new_allocatorIN4giac7nfactorEED2Ev @6503
    _ZN9__gnu_cxx13new_allocatorIN4giac7nr_progEE10deallocateEPS2_j @6504
    _ZN9__gnu_cxx13new_allocatorIN4giac7nr_progEE7destroyEPS2_ @6505
    _ZN9__gnu_cxx13new_allocatorIN4giac7nr_progEE8allocateEjPKv @6506
    _ZN9__gnu_cxx13new_allocatorIN4giac7nr_progEE9constructEPS2_RKS2_ @6507
    _ZN9__gnu_cxx13new_allocatorIN4giac7nr_progEEC2Ev @6508
    _ZN9__gnu_cxx13new_allocatorIN4giac7nr_progEED2Ev @6509
    _ZN9__gnu_cxx13new_allocatorIN4giac7polymodEE10deallocateEPS2_j @6510
    _ZN9__gnu_cxx13new_allocatorIN4giac7polymodEE7destroyEPS2_ @6511
    _ZN9__gnu_cxx13new_allocatorIN4giac7polymodEE8allocateEjPKv @6512
    _ZN9__gnu_cxx13new_allocatorIN4giac7polymodEE9constructEPS2_RKS2_ @6513
    _ZN9__gnu_cxx13new_allocatorIN4giac7polymodEEC2ERKS3_ @6514
    _ZN9__gnu_cxx13new_allocatorIN4giac7polymodEEC2Ev @6515
    _ZN9__gnu_cxx13new_allocatorIN4giac7polymodEED2Ev @6516
    _ZN9__gnu_cxx13new_allocatorIN4giac7zinfo_tEE10deallocateEPS2_j @6517
    _ZN9__gnu_cxx13new_allocatorIN4giac7zinfo_tEE7destroyEPS2_ @6518
    _ZN9__gnu_cxx13new_allocatorIN4giac7zinfo_tEE8allocateEjPKv @6519
    _ZN9__gnu_cxx13new_allocatorIN4giac7zinfo_tEE9constructEPS2_RKS2_ @6520
    _ZN9__gnu_cxx13new_allocatorIN4giac7zinfo_tEEC2Ev @6521
    _ZN9__gnu_cxx13new_allocatorIN4giac7zinfo_tEED2Ev @6522
    _ZN9__gnu_cxx13new_allocatorIN4giac8monomialINS1_3genEEEE10deallocateEPS4_j @6523
    _ZN9__gnu_cxx13new_allocatorIN4giac8monomialINS1_3genEEEE7destroyEPS4_ @6524
    _ZN9__gnu_cxx13new_allocatorIN4giac8monomialINS1_3genEEEE8allocateEjPKv @6525
    _ZN9__gnu_cxx13new_allocatorIN4giac8monomialINS1_3genEEEE9constructEPS4_RKS4_ @6526
    _ZN9__gnu_cxx13new_allocatorIN4giac8monomialINS1_3genEEEEC2ERKS5_ @6527
    _ZN9__gnu_cxx13new_allocatorIN4giac8monomialINS1_3genEEEEC2Ev @6528
    _ZN9__gnu_cxx13new_allocatorIN4giac8monomialINS1_3genEEEED2Ev @6529
    _ZN9__gnu_cxx13new_allocatorIN4giac8sparse32EE10deallocateEPS2_j @6530
    _ZN9__gnu_cxx13new_allocatorIN4giac8sparse32EE7destroyEPS2_ @6531
    _ZN9__gnu_cxx13new_allocatorIN4giac8sparse32EE8allocateEjPKv @6532
    _ZN9__gnu_cxx13new_allocatorIN4giac8sparse32EE9constructEPS2_RKS2_ @6533
    _ZN9__gnu_cxx13new_allocatorIN4giac8sparse32EEC2ERKS3_ @6534
    _ZN9__gnu_cxx13new_allocatorIN4giac8sparse32EEC2Ev @6535
    _ZN9__gnu_cxx13new_allocatorIN4giac8sparse32EED2Ev @6536
    _ZN9__gnu_cxx13new_allocatorIN4giac8zpolymodEE10deallocateEPS2_j @6537
    _ZN9__gnu_cxx13new_allocatorIN4giac8zpolymodEE7destroyEPS2_ @6538
    _ZN9__gnu_cxx13new_allocatorIN4giac8zpolymodEE8allocateEjPKv @6539
    _ZN9__gnu_cxx13new_allocatorIN4giac8zpolymodEE9constructEPS2_RKS2_ @6540
    _ZN9__gnu_cxx13new_allocatorIN4giac8zpolymodEEC2ERKS3_ @6541
    _ZN9__gnu_cxx13new_allocatorIN4giac8zpolymodEEC2Ev @6542
    _ZN9__gnu_cxx13new_allocatorIN4giac8zpolymodEED2Ev @6543
    _ZN9__gnu_cxx13new_allocatorIN4giac9vectpoly8EE10deallocateEPS2_j @6544
    _ZN9__gnu_cxx13new_allocatorIN4giac9vectpoly8EE7destroyEPS2_ @6545
    _ZN9__gnu_cxx13new_allocatorIN4giac9vectpoly8EE8allocateEjPKv @6546
    _ZN9__gnu_cxx13new_allocatorIN4giac9vectpoly8EE9constructEPS2_RKS2_ @6547
    _ZN9__gnu_cxx13new_allocatorIN4giac9vectpoly8EEC2Ev @6548
    _ZN9__gnu_cxx13new_allocatorIN4giac9vectpoly8EED2Ev @6549
    _ZN9__gnu_cxx13new_allocatorINS_17__normal_iteratorIPKN4giac3genESt6vectorIS3_SaIS3_EEEEE10deallocateEPS9_j @6550
    _ZN9__gnu_cxx13new_allocatorINS_17__normal_iteratorIPKN4giac3genESt6vectorIS3_SaIS3_EEEEE8allocateEjPKv @6551
    _ZN9__gnu_cxx13new_allocatorINS_17__normal_iteratorIPKN4giac3genESt6vectorIS3_SaIS3_EEEEEC2ERKSA_ @6552
    _ZN9__gnu_cxx13new_allocatorINS_17__normal_iteratorIPKN4giac3genESt6vectorIS3_SaIS3_EEEEEC2Ev @6553
    _ZN9__gnu_cxx13new_allocatorINS_17__normal_iteratorIPKN4giac3genESt6vectorIS3_SaIS3_EEEEED2Ev @6554
    _ZN9__gnu_cxx13new_allocatorINSt3tr113unordered_mapIjN4giac15dbgprint_vectorINS3_3genEEENS3_29hash_function_unsigned_objectESt8equal_toIjESaISt4pairIKjS6_EEEEE10deallocateEPSE_j @6555
    _ZN9__gnu_cxx13new_allocatorINSt3tr113unordered_mapIjN4giac15dbgprint_vectorINS3_3genEEENS3_29hash_function_unsigned_objectESt8equal_toIjESaISt4pairIKjS6_EEEEE8allocateEjPKv @6556
    _ZN9__gnu_cxx13new_allocatorINSt3tr113unordered_mapIjN4giac15dbgprint_vectorINS3_3genEEENS3_29hash_function_unsigned_objectESt8equal_toIjESaISt4pairIKjS6_EEEEEC2ERKSF_ @6557
    _ZN9__gnu_cxx13new_allocatorINSt3tr113unordered_mapIjN4giac15dbgprint_vectorINS3_3genEEENS3_29hash_function_unsigned_objectESt8equal_toIjESaISt4pairIKjS6_EEEEEC2Ev @6558
    _ZN9__gnu_cxx13new_allocatorINSt3tr113unordered_mapIjN4giac15dbgprint_vectorINS3_3genEEENS3_29hash_function_unsigned_objectESt8equal_toIjESaISt4pairIKjS6_EEEEED2Ev @6559
    _ZN9__gnu_cxx13new_allocatorINSt3tr113unordered_mapIjN4giac3genENS3_29hash_function_unsigned_objectESt8equal_toIjESaISt4pairIKjS4_EEEEE10deallocateEPSC_j @6560
    _ZN9__gnu_cxx13new_allocatorINSt3tr113unordered_mapIjN4giac3genENS3_29hash_function_unsigned_objectESt8equal_toIjESaISt4pairIKjS4_EEEEE8allocateEjPKv @6561
    _ZN9__gnu_cxx13new_allocatorINSt3tr113unordered_mapIjN4giac3genENS3_29hash_function_unsigned_objectESt8equal_toIjESaISt4pairIKjS4_EEEEEC2ERKSD_ @6562
    _ZN9__gnu_cxx13new_allocatorINSt3tr113unordered_mapIjN4giac3genENS3_29hash_function_unsigned_objectESt8equal_toIjESaISt4pairIKjS4_EEEEEC2Ev @6563
    _ZN9__gnu_cxx13new_allocatorINSt3tr113unordered_mapIjN4giac3genENS3_29hash_function_unsigned_objectESt8equal_toIjESaISt4pairIKjS4_EEEEED2Ev @6564
    _ZN9__gnu_cxx13new_allocatorINSt3tr113unordered_mapIjSt6vectorIiSaIiEEN4giac29hash_function_unsigned_objectESt8equal_toIjESaISt4pairIKjS5_EEEEE10deallocateEPSE_j @6565
    _ZN9__gnu_cxx13new_allocatorINSt3tr113unordered_mapIjSt6vectorIiSaIiEEN4giac29hash_function_unsigned_objectESt8equal_toIjESaISt4pairIKjS5_EEEEE8allocateEjPKv @6566
    _ZN9__gnu_cxx13new_allocatorINSt3tr113unordered_mapIjSt6vectorIiSaIiEEN4giac29hash_function_unsigned_objectESt8equal_toIjESaISt4pairIKjS5_EEEEEC2ERKSF_ @6567
    _ZN9__gnu_cxx13new_allocatorINSt3tr113unordered_mapIjSt6vectorIiSaIiEEN4giac29hash_function_unsigned_objectESt8equal_toIjESaISt4pairIKjS5_EEEEEC2Ev @6568
    _ZN9__gnu_cxx13new_allocatorINSt3tr113unordered_mapIjSt6vectorIiSaIiEEN4giac29hash_function_unsigned_objectESt8equal_toIjESaISt4pairIKjS5_EEEEED2Ev @6569
    _ZN9__gnu_cxx13new_allocatorINSt3tr113unordered_mapIjiN4giac29hash_function_unsigned_objectESt8equal_toIjESaISt4pairIKjiEEEEE10deallocateEPSB_j @6570
    _ZN9__gnu_cxx13new_allocatorINSt3tr113unordered_mapIjiN4giac29hash_function_unsigned_objectESt8equal_toIjESaISt4pairIKjiEEEEE8allocateEjPKv @6571
    _ZN9__gnu_cxx13new_allocatorINSt3tr113unordered_mapIjiN4giac29hash_function_unsigned_objectESt8equal_toIjESaISt4pairIKjiEEEEEC2ERKSC_ @6572
    _ZN9__gnu_cxx13new_allocatorINSt3tr113unordered_mapIjiN4giac29hash_function_unsigned_objectESt8equal_toIjESaISt4pairIKjiEEEEEC2Ev @6573
    _ZN9__gnu_cxx13new_allocatorINSt3tr113unordered_mapIjiN4giac29hash_function_unsigned_objectESt8equal_toIjESaISt4pairIKjiEEEEED2Ev @6574
    _ZN9__gnu_cxx13new_allocatorINSt3tr113unordered_mapIjxN4giac29hash_function_unsigned_objectESt8equal_toIjESaISt4pairIKjxEEEEE10deallocateEPSB_j @6575
    _ZN9__gnu_cxx13new_allocatorINSt3tr113unordered_mapIjxN4giac29hash_function_unsigned_objectESt8equal_toIjESaISt4pairIKjxEEEEE8allocateEjPKv @6576
    _ZN9__gnu_cxx13new_allocatorINSt3tr113unordered_mapIjxN4giac29hash_function_unsigned_objectESt8equal_toIjESaISt4pairIKjxEEEEEC2ERKSC_ @6577
    _ZN9__gnu_cxx13new_allocatorINSt3tr113unordered_mapIjxN4giac29hash_function_unsigned_objectESt8equal_toIjESaISt4pairIKjxEEEEEC2Ev @6578
    _ZN9__gnu_cxx13new_allocatorINSt3tr113unordered_mapIjxN4giac29hash_function_unsigned_objectESt8equal_toIjESaISt4pairIKjxEEEEED2Ev @6579
    _ZN9__gnu_cxx13new_allocatorINSt3tr113unordered_mapIyiN4giac29hash_function_unsigned_objectESt8equal_toIyESaISt4pairIKyiEEEEE10deallocateEPSB_j @6580
    _ZN9__gnu_cxx13new_allocatorINSt3tr113unordered_mapIyiN4giac29hash_function_unsigned_objectESt8equal_toIyESaISt4pairIKyiEEEEE8allocateEjPKv @6581
    _ZN9__gnu_cxx13new_allocatorINSt3tr113unordered_mapIyiN4giac29hash_function_unsigned_objectESt8equal_toIyESaISt4pairIKyiEEEEEC2ERKSC_ @6582
    _ZN9__gnu_cxx13new_allocatorINSt3tr113unordered_mapIyiN4giac29hash_function_unsigned_objectESt8equal_toIyESaISt4pairIKyiEEEEEC2Ev @6583
    _ZN9__gnu_cxx13new_allocatorINSt3tr113unordered_mapIyiN4giac29hash_function_unsigned_objectESt8equal_toIyESaISt4pairIKyiEEEEED2Ev @6584
    _ZN9__gnu_cxx13new_allocatorINSt3tr113unordered_mapIyxN4giac29hash_function_unsigned_objectESt8equal_toIyESaISt4pairIKyxEEEEE10deallocateEPSB_j @6585
    _ZN9__gnu_cxx13new_allocatorINSt3tr113unordered_mapIyxN4giac29hash_function_unsigned_objectESt8equal_toIyESaISt4pairIKyxEEEEE8allocateEjPKv @6586
    _ZN9__gnu_cxx13new_allocatorINSt3tr113unordered_mapIyxN4giac29hash_function_unsigned_objectESt8equal_toIyESaISt4pairIKyxEEEEEC2ERKSC_ @6587
    _ZN9__gnu_cxx13new_allocatorINSt3tr113unordered_mapIyxN4giac29hash_function_unsigned_objectESt8equal_toIyESaISt4pairIKyxEEEEEC2Ev @6588
    _ZN9__gnu_cxx13new_allocatorINSt3tr113unordered_mapIyxN4giac29hash_function_unsigned_objectESt8equal_toIyESaISt4pairIKyxEEEEED2Ev @6589
    _ZN9__gnu_cxx13new_allocatorINSt3tr18__detail10_Hash_nodeISt4pairIKSt6vectorIsSaIsEEN4giac3genEELb0EEEE10deallocateEPSC_j @6590
    _ZN9__gnu_cxx13new_allocatorINSt3tr18__detail10_Hash_nodeISt4pairIKSt6vectorIsSaIsEEN4giac3genEELb0EEEE8allocateEjPKv @6591
    _ZN9__gnu_cxx13new_allocatorINSt3tr18__detail10_Hash_nodeISt4pairIKSt6vectorIsSaIsEEN4giac3genEELb0EEEEC2Ev @6592
    _ZN9__gnu_cxx13new_allocatorINSt3tr18__detail10_Hash_nodeISt4pairIKSt6vectorIsSaIsEEN4giac3genEELb0EEEED2Ev @6593
    _ZN9__gnu_cxx13new_allocatorINSt3tr18__detail10_Hash_nodeISt4pairIKjN4giac15dbgprint_vectorINS6_3genEEEELb0EEEE10deallocateEPSB_j @6594
    _ZN9__gnu_cxx13new_allocatorINSt3tr18__detail10_Hash_nodeISt4pairIKjN4giac15dbgprint_vectorINS6_3genEEEELb0EEEE8allocateEjPKv @6595
    _ZN9__gnu_cxx13new_allocatorINSt3tr18__detail10_Hash_nodeISt4pairIKjN4giac15dbgprint_vectorINS6_3genEEEELb0EEEEC2ERKSC_ @6596
    _ZN9__gnu_cxx13new_allocatorINSt3tr18__detail10_Hash_nodeISt4pairIKjN4giac15dbgprint_vectorINS6_3genEEEELb0EEEEC2Ev @6597
    _ZN9__gnu_cxx13new_allocatorINSt3tr18__detail10_Hash_nodeISt4pairIKjN4giac15dbgprint_vectorINS6_3genEEEELb0EEEED2Ev @6598
    _ZN9__gnu_cxx13new_allocatorINSt3tr18__detail10_Hash_nodeISt4pairIKjN4giac3genEELb0EEEE10deallocateEPS9_j @6599
    _ZN9__gnu_cxx13new_allocatorINSt3tr18__detail10_Hash_nodeISt4pairIKjN4giac3genEELb0EEEE8allocateEjPKv @6600
    _ZN9__gnu_cxx13new_allocatorINSt3tr18__detail10_Hash_nodeISt4pairIKjN4giac3genEELb0EEEEC2ERKSA_ @6601
    _ZN9__gnu_cxx13new_allocatorINSt3tr18__detail10_Hash_nodeISt4pairIKjN4giac3genEELb0EEEEC2Ev @6602
    _ZN9__gnu_cxx13new_allocatorINSt3tr18__detail10_Hash_nodeISt4pairIKjN4giac3genEELb0EEEED2Ev @6603
    _ZN9__gnu_cxx13new_allocatorINSt3tr18__detail10_Hash_nodeISt4pairIKjN4giac6axbinvEELb0EEEE10deallocateEPS9_j @6604
    _ZN9__gnu_cxx13new_allocatorINSt3tr18__detail10_Hash_nodeISt4pairIKjN4giac6axbinvEELb0EEEE8allocateEjPKv @6605
    _ZN9__gnu_cxx13new_allocatorINSt3tr18__detail10_Hash_nodeISt4pairIKjN4giac6axbinvEELb0EEEEC2Ev @6606
    _ZN9__gnu_cxx13new_allocatorINSt3tr18__detail10_Hash_nodeISt4pairIKjN4giac6axbinvEELb0EEEED2Ev @6607
    _ZN9__gnu_cxx13new_allocatorINSt3tr18__detail10_Hash_nodeISt4pairIKjSt6vectorIiSaIiEEELb0EEEE10deallocateEPSA_j @6608
    _ZN9__gnu_cxx13new_allocatorINSt3tr18__detail10_Hash_nodeISt4pairIKjSt6vectorIiSaIiEEELb0EEEE8allocateEjPKv @6609
    _ZN9__gnu_cxx13new_allocatorINSt3tr18__detail10_Hash_nodeISt4pairIKjSt6vectorIiSaIiEEELb0EEEEC2ERKSB_ @6610
    _ZN9__gnu_cxx13new_allocatorINSt3tr18__detail10_Hash_nodeISt4pairIKjSt6vectorIiSaIiEEELb0EEEEC2Ev @6611
    _ZN9__gnu_cxx13new_allocatorINSt3tr18__detail10_Hash_nodeISt4pairIKjSt6vectorIiSaIiEEELb0EEEED2Ev @6612
    _ZN9__gnu_cxx13new_allocatorINSt3tr18__detail10_Hash_nodeISt4pairIKjdELb0EEEE10deallocateEPS7_j @6613
    _ZN9__gnu_cxx13new_allocatorINSt3tr18__detail10_Hash_nodeISt4pairIKjdELb0EEEE8allocateEjPKv @6614
    _ZN9__gnu_cxx13new_allocatorINSt3tr18__detail10_Hash_nodeISt4pairIKjdELb0EEEEC2Ev @6615
    _ZN9__gnu_cxx13new_allocatorINSt3tr18__detail10_Hash_nodeISt4pairIKjdELb0EEEED2Ev @6616
    _ZN9__gnu_cxx13new_allocatorINSt3tr18__detail10_Hash_nodeISt4pairIKjiELb0EEEE10deallocateEPS7_j @6617
    _ZN9__gnu_cxx13new_allocatorINSt3tr18__detail10_Hash_nodeISt4pairIKjiELb0EEEE8allocateEjPKv @6618
    _ZN9__gnu_cxx13new_allocatorINSt3tr18__detail10_Hash_nodeISt4pairIKjiELb0EEEEC2ERKS8_ @6619
    _ZN9__gnu_cxx13new_allocatorINSt3tr18__detail10_Hash_nodeISt4pairIKjiELb0EEEEC2Ev @6620
    _ZN9__gnu_cxx13new_allocatorINSt3tr18__detail10_Hash_nodeISt4pairIKjiELb0EEEED2Ev @6621
    _ZN9__gnu_cxx13new_allocatorINSt3tr18__detail10_Hash_nodeISt4pairIKjxELb0EEEE10deallocateEPS7_j @6622
    _ZN9__gnu_cxx13new_allocatorINSt3tr18__detail10_Hash_nodeISt4pairIKjxELb0EEEE8allocateEjPKv @6623
    _ZN9__gnu_cxx13new_allocatorINSt3tr18__detail10_Hash_nodeISt4pairIKjxELb0EEEEC2ERKS8_ @6624
    _ZN9__gnu_cxx13new_allocatorINSt3tr18__detail10_Hash_nodeISt4pairIKjxELb0EEEEC2Ev @6625
    _ZN9__gnu_cxx13new_allocatorINSt3tr18__detail10_Hash_nodeISt4pairIKjxELb0EEEED2Ev @6626
    _ZN9__gnu_cxx13new_allocatorINSt3tr18__detail10_Hash_nodeISt4pairIKyN4giac3genEELb0EEEE10deallocateEPS9_j @6627
    _ZN9__gnu_cxx13new_allocatorINSt3tr18__detail10_Hash_nodeISt4pairIKyN4giac3genEELb0EEEE8allocateEjPKv @6628
    _ZN9__gnu_cxx13new_allocatorINSt3tr18__detail10_Hash_nodeISt4pairIKyN4giac3genEELb0EEEEC2Ev @6629
    _ZN9__gnu_cxx13new_allocatorINSt3tr18__detail10_Hash_nodeISt4pairIKyN4giac3genEELb0EEEED2Ev @6630
    _ZN9__gnu_cxx13new_allocatorINSt3tr18__detail10_Hash_nodeISt4pairIKydELb0EEEE10deallocateEPS7_j @6631
    _ZN9__gnu_cxx13new_allocatorINSt3tr18__detail10_Hash_nodeISt4pairIKydELb0EEEE8allocateEjPKv @6632
    _ZN9__gnu_cxx13new_allocatorINSt3tr18__detail10_Hash_nodeISt4pairIKydELb0EEEEC2Ev @6633
    _ZN9__gnu_cxx13new_allocatorINSt3tr18__detail10_Hash_nodeISt4pairIKydELb0EEEED2Ev @6634
    _ZN9__gnu_cxx13new_allocatorINSt3tr18__detail10_Hash_nodeISt4pairIKyiELb0EEEE10deallocateEPS7_j @6635
    _ZN9__gnu_cxx13new_allocatorINSt3tr18__detail10_Hash_nodeISt4pairIKyiELb0EEEE8allocateEjPKv @6636
    _ZN9__gnu_cxx13new_allocatorINSt3tr18__detail10_Hash_nodeISt4pairIKyiELb0EEEEC2ERKS8_ @6637
    _ZN9__gnu_cxx13new_allocatorINSt3tr18__detail10_Hash_nodeISt4pairIKyiELb0EEEEC2Ev @6638
    _ZN9__gnu_cxx13new_allocatorINSt3tr18__detail10_Hash_nodeISt4pairIKyiELb0EEEED2Ev @6639
    _ZN9__gnu_cxx13new_allocatorINSt3tr18__detail10_Hash_nodeISt4pairIKyxELb0EEEE10deallocateEPS7_j @6640
    _ZN9__gnu_cxx13new_allocatorINSt3tr18__detail10_Hash_nodeISt4pairIKyxELb0EEEE8allocateEjPKv @6641
    _ZN9__gnu_cxx13new_allocatorINSt3tr18__detail10_Hash_nodeISt4pairIKyxELb0EEEEC2ERKS8_ @6642
    _ZN9__gnu_cxx13new_allocatorINSt3tr18__detail10_Hash_nodeISt4pairIKyxELb0EEEEC2Ev @6643
    _ZN9__gnu_cxx13new_allocatorINSt3tr18__detail10_Hash_nodeISt4pairIKyxELb0EEEED2Ev @6644
    _ZN9__gnu_cxx13new_allocatorIPFN4giac3genERKS2_PKNS1_7contextEEE10deallocateEPS9_j @6645
    _ZN9__gnu_cxx13new_allocatorIPFN4giac3genERKS2_PKNS1_7contextEEE7destroyEPS9_ @6646
    _ZN9__gnu_cxx13new_allocatorIPFN4giac3genERKS2_PKNS1_7contextEEE8allocateEjPKv @6647
    _ZN9__gnu_cxx13new_allocatorIPFN4giac3genERKS2_PKNS1_7contextEEE9constructEPS9_RKS9_ @6648
    _ZN9__gnu_cxx13new_allocatorIPFN4giac3genERKS2_PKNS1_7contextEEEC2ERKSA_ @6649
    _ZN9__gnu_cxx13new_allocatorIPFN4giac3genERKS2_PKNS1_7contextEEEC2Ev @6650
    _ZN9__gnu_cxx13new_allocatorIPFN4giac3genERKS2_PKNS1_7contextEEED2Ev @6651
    _ZN9__gnu_cxx13new_allocatorIPKN4giac18unary_function_ptrEE10deallocateEPS4_j @6652
    _ZN9__gnu_cxx13new_allocatorIPKN4giac18unary_function_ptrEE7destroyEPS4_ @6653
    _ZN9__gnu_cxx13new_allocatorIPKN4giac18unary_function_ptrEE8allocateEjPKv @6654
    _ZN9__gnu_cxx13new_allocatorIPKN4giac18unary_function_ptrEE9constructEPS4_RKS4_ @6655
    _ZN9__gnu_cxx13new_allocatorIPKN4giac18unary_function_ptrEEC2ERKS5_ @6656
    _ZN9__gnu_cxx13new_allocatorIPKN4giac18unary_function_ptrEEC2Ev @6657
    _ZN9__gnu_cxx13new_allocatorIPKN4giac18unary_function_ptrEED2Ev @6658
    _ZN9__gnu_cxx13new_allocatorIPKcE10deallocateEPS2_j @6659
    _ZN9__gnu_cxx13new_allocatorIPKcE7destroyEPS2_ @6660
    _ZN9__gnu_cxx13new_allocatorIPKcE8allocateEjPKv @6661
    _ZN9__gnu_cxx13new_allocatorIPKcE9constructEPS2_RKS2_ @6662
    _ZN9__gnu_cxx13new_allocatorIPKcEC2Ev @6663
    _ZN9__gnu_cxx13new_allocatorIPKcED2Ev @6664
    _ZN9__gnu_cxx13new_allocatorIPN4giac7contextEE10deallocateEPS3_j @6665
    _ZN9__gnu_cxx13new_allocatorIPN4giac7contextEE7destroyEPS3_ @6666
    _ZN9__gnu_cxx13new_allocatorIPN4giac7contextEE8allocateEjPKv @6667
    _ZN9__gnu_cxx13new_allocatorIPN4giac7contextEE9constructEPS3_RKS3_ @6668
    _ZN9__gnu_cxx13new_allocatorIPN4giac7contextEEC2ERKS4_ @6669
    _ZN9__gnu_cxx13new_allocatorIPN4giac7contextEEC2Ev @6670
    _ZN9__gnu_cxx13new_allocatorIPN4giac7contextEED2Ev @6671
    _ZN9__gnu_cxx13new_allocatorIPNSt3tr18__detail10_Hash_nodeISt4pairIKSt6vectorIsSaIsEEN4giac3genEELb0EEEE10deallocateEPSD_j @6672
    _ZN9__gnu_cxx13new_allocatorIPNSt3tr18__detail10_Hash_nodeISt4pairIKSt6vectorIsSaIsEEN4giac3genEELb0EEEE8allocateEjPKv @6673
    _ZN9__gnu_cxx13new_allocatorIPNSt3tr18__detail10_Hash_nodeISt4pairIKSt6vectorIsSaIsEEN4giac3genEELb0EEEEC2Ev @6674
    _ZN9__gnu_cxx13new_allocatorIPNSt3tr18__detail10_Hash_nodeISt4pairIKSt6vectorIsSaIsEEN4giac3genEELb0EEEED2Ev @6675
    _ZN9__gnu_cxx13new_allocatorIPNSt3tr18__detail10_Hash_nodeISt4pairIKjN4giac15dbgprint_vectorINS6_3genEEEELb0EEEE10deallocateEPSC_j @6676
    _ZN9__gnu_cxx13new_allocatorIPNSt3tr18__detail10_Hash_nodeISt4pairIKjN4giac15dbgprint_vectorINS6_3genEEEELb0EEEE8allocateEjPKv @6677
    _ZN9__gnu_cxx13new_allocatorIPNSt3tr18__detail10_Hash_nodeISt4pairIKjN4giac15dbgprint_vectorINS6_3genEEEELb0EEEEC2Ev @6678
    _ZN9__gnu_cxx13new_allocatorIPNSt3tr18__detail10_Hash_nodeISt4pairIKjN4giac15dbgprint_vectorINS6_3genEEEELb0EEEED2Ev @6679
    _ZN9__gnu_cxx13new_allocatorIPNSt3tr18__detail10_Hash_nodeISt4pairIKjN4giac3genEELb0EEEE10deallocateEPSA_j @6680
    _ZN9__gnu_cxx13new_allocatorIPNSt3tr18__detail10_Hash_nodeISt4pairIKjN4giac3genEELb0EEEE8allocateEjPKv @6681
    _ZN9__gnu_cxx13new_allocatorIPNSt3tr18__detail10_Hash_nodeISt4pairIKjN4giac3genEELb0EEEEC2Ev @6682
    _ZN9__gnu_cxx13new_allocatorIPNSt3tr18__detail10_Hash_nodeISt4pairIKjN4giac3genEELb0EEEED2Ev @6683
    _ZN9__gnu_cxx13new_allocatorIPNSt3tr18__detail10_Hash_nodeISt4pairIKjN4giac6axbinvEELb0EEEE10deallocateEPSA_j @6684
    _ZN9__gnu_cxx13new_allocatorIPNSt3tr18__detail10_Hash_nodeISt4pairIKjN4giac6axbinvEELb0EEEE8allocateEjPKv @6685
    _ZN9__gnu_cxx13new_allocatorIPNSt3tr18__detail10_Hash_nodeISt4pairIKjN4giac6axbinvEELb0EEEEC2Ev @6686
    _ZN9__gnu_cxx13new_allocatorIPNSt3tr18__detail10_Hash_nodeISt4pairIKjN4giac6axbinvEELb0EEEED2Ev @6687
    _ZN9__gnu_cxx13new_allocatorIPNSt3tr18__detail10_Hash_nodeISt4pairIKjSt6vectorIiSaIiEEELb0EEEE10deallocateEPSB_j @6688
    _ZN9__gnu_cxx13new_allocatorIPNSt3tr18__detail10_Hash_nodeISt4pairIKjSt6vectorIiSaIiEEELb0EEEE8allocateEjPKv @6689
    _ZN9__gnu_cxx13new_allocatorIPNSt3tr18__detail10_Hash_nodeISt4pairIKjSt6vectorIiSaIiEEELb0EEEEC2Ev @6690
    _ZN9__gnu_cxx13new_allocatorIPNSt3tr18__detail10_Hash_nodeISt4pairIKjSt6vectorIiSaIiEEELb0EEEED2Ev @6691
    _ZN9__gnu_cxx13new_allocatorIPNSt3tr18__detail10_Hash_nodeISt4pairIKjdELb0EEEE10deallocateEPS8_j @6692
    _ZN9__gnu_cxx13new_allocatorIPNSt3tr18__detail10_Hash_nodeISt4pairIKjdELb0EEEE8allocateEjPKv @6693
    _ZN9__gnu_cxx13new_allocatorIPNSt3tr18__detail10_Hash_nodeISt4pairIKjdELb0EEEEC2Ev @6694
    _ZN9__gnu_cxx13new_allocatorIPNSt3tr18__detail10_Hash_nodeISt4pairIKjdELb0EEEED2Ev @6695
    _ZN9__gnu_cxx13new_allocatorIPNSt3tr18__detail10_Hash_nodeISt4pairIKjiELb0EEEE10deallocateEPS8_j @6696
    _ZN9__gnu_cxx13new_allocatorIPNSt3tr18__detail10_Hash_nodeISt4pairIKjiELb0EEEE8allocateEjPKv @6697
    _ZN9__gnu_cxx13new_allocatorIPNSt3tr18__detail10_Hash_nodeISt4pairIKjiELb0EEEEC2Ev @6698
    _ZN9__gnu_cxx13new_allocatorIPNSt3tr18__detail10_Hash_nodeISt4pairIKjiELb0EEEED2Ev @6699
    _ZN9__gnu_cxx13new_allocatorIPNSt3tr18__detail10_Hash_nodeISt4pairIKjxELb0EEEE10deallocateEPS8_j @6700
    _ZN9__gnu_cxx13new_allocatorIPNSt3tr18__detail10_Hash_nodeISt4pairIKjxELb0EEEE8allocateEjPKv @6701
    _ZN9__gnu_cxx13new_allocatorIPNSt3tr18__detail10_Hash_nodeISt4pairIKjxELb0EEEEC2Ev @6702
    _ZN9__gnu_cxx13new_allocatorIPNSt3tr18__detail10_Hash_nodeISt4pairIKjxELb0EEEED2Ev @6703
    _ZN9__gnu_cxx13new_allocatorIPNSt3tr18__detail10_Hash_nodeISt4pairIKyN4giac3genEELb0EEEE10deallocateEPSA_j @6704
    _ZN9__gnu_cxx13new_allocatorIPNSt3tr18__detail10_Hash_nodeISt4pairIKyN4giac3genEELb0EEEE8allocateEjPKv @6705
    _ZN9__gnu_cxx13new_allocatorIPNSt3tr18__detail10_Hash_nodeISt4pairIKyN4giac3genEELb0EEEEC2Ev @6706
    _ZN9__gnu_cxx13new_allocatorIPNSt3tr18__detail10_Hash_nodeISt4pairIKyN4giac3genEELb0EEEED2Ev @6707
    _ZN9__gnu_cxx13new_allocatorIPNSt3tr18__detail10_Hash_nodeISt4pairIKydELb0EEEE10deallocateEPS8_j @6708
    _ZN9__gnu_cxx13new_allocatorIPNSt3tr18__detail10_Hash_nodeISt4pairIKydELb0EEEE8allocateEjPKv @6709
    _ZN9__gnu_cxx13new_allocatorIPNSt3tr18__detail10_Hash_nodeISt4pairIKydELb0EEEEC2Ev @6710
    _ZN9__gnu_cxx13new_allocatorIPNSt3tr18__detail10_Hash_nodeISt4pairIKydELb0EEEED2Ev @6711
    _ZN9__gnu_cxx13new_allocatorIPNSt3tr18__detail10_Hash_nodeISt4pairIKyiELb0EEEE10deallocateEPS8_j @6712
    _ZN9__gnu_cxx13new_allocatorIPNSt3tr18__detail10_Hash_nodeISt4pairIKyiELb0EEEE8allocateEjPKv @6713
    _ZN9__gnu_cxx13new_allocatorIPNSt3tr18__detail10_Hash_nodeISt4pairIKyiELb0EEEEC2Ev @6714
    _ZN9__gnu_cxx13new_allocatorIPNSt3tr18__detail10_Hash_nodeISt4pairIKyiELb0EEEED2Ev @6715
    _ZN9__gnu_cxx13new_allocatorIPNSt3tr18__detail10_Hash_nodeISt4pairIKyxELb0EEEE10deallocateEPS8_j @6716
    _ZN9__gnu_cxx13new_allocatorIPNSt3tr18__detail10_Hash_nodeISt4pairIKyxELb0EEEE8allocateEjPKv @6717
    _ZN9__gnu_cxx13new_allocatorIPNSt3tr18__detail10_Hash_nodeISt4pairIKyxELb0EEEEC2Ev @6718
    _ZN9__gnu_cxx13new_allocatorIPNSt3tr18__detail10_Hash_nodeISt4pairIKyxELb0EEEED2Ev @6719
    _ZN9__gnu_cxx13new_allocatorIPjE10deallocateEPS1_j @6720
    _ZN9__gnu_cxx13new_allocatorIPjE8allocateEjPKv @6721
    _ZN9__gnu_cxx13new_allocatorIPjEC2ERKS2_ @6722
    _ZN9__gnu_cxx13new_allocatorIPjEC2Ev @6723
    _ZN9__gnu_cxx13new_allocatorIPjED2Ev @6724
    _ZN9__gnu_cxx13new_allocatorISsE10deallocateEPSsj @6725
    _ZN9__gnu_cxx13new_allocatorISsE7destroyEPSs @6726
    _ZN9__gnu_cxx13new_allocatorISsE8allocateEjPKv @6727
    _ZN9__gnu_cxx13new_allocatorISsE9constructEPSsRKSs @6728
    _ZN9__gnu_cxx13new_allocatorISsEC2ERKS1_ @6729
    _ZN9__gnu_cxx13new_allocatorISsEC2Ev @6730
    _ZN9__gnu_cxx13new_allocatorISsED2Ev @6731
    _ZN9__gnu_cxx13new_allocatorISt13_Rb_tree_nodeISt4pairIKN4giac3genES4_EEE10deallocateEPS7_j @6732
    _ZN9__gnu_cxx13new_allocatorISt13_Rb_tree_nodeISt4pairIKN4giac3genES4_EEE8allocateEjPKv @6733
    _ZN9__gnu_cxx13new_allocatorISt13_Rb_tree_nodeISt4pairIKN4giac3genES4_EEEC2ERKS8_ @6734
    _ZN9__gnu_cxx13new_allocatorISt13_Rb_tree_nodeISt4pairIKN4giac3genES4_EEEC2Ev @6735
    _ZN9__gnu_cxx13new_allocatorISt13_Rb_tree_nodeISt4pairIKN4giac3genES4_EEED2Ev @6736
    _ZN9__gnu_cxx13new_allocatorISt13_Rb_tree_nodeISt4pairIKPKcN4giac3genEEEE10deallocateEPS9_j @6737
    _ZN9__gnu_cxx13new_allocatorISt13_Rb_tree_nodeISt4pairIKPKcN4giac3genEEEE8allocateEjPKv @6738
    _ZN9__gnu_cxx13new_allocatorISt13_Rb_tree_nodeISt4pairIKPKcN4giac3genEEEEC2Ev @6739
    _ZN9__gnu_cxx13new_allocatorISt13_Rb_tree_nodeISt4pairIKPKcN4giac3genEEEED2Ev @6740
    _ZN9__gnu_cxx13new_allocatorISt13_Rb_tree_nodeISt4pairIKPKcPKN4giac9mksa_unitEEEE10deallocateEPSB_j @6741
    _ZN9__gnu_cxx13new_allocatorISt13_Rb_tree_nodeISt4pairIKPKcPKN4giac9mksa_unitEEEE8allocateEjPKv @6742
    _ZN9__gnu_cxx13new_allocatorISt13_Rb_tree_nodeISt4pairIKPKcPKN4giac9mksa_unitEEEEC2Ev @6743
    _ZN9__gnu_cxx13new_allocatorISt13_Rb_tree_nodeISt4pairIKS2_IjSt6vectorIsSaIsEEEN4giac9ext_gcd_tEEEE10deallocateEPSB_j @6744
    _ZN9__gnu_cxx13new_allocatorISt13_Rb_tree_nodeISt4pairIKS2_IjSt6vectorIsSaIsEEEN4giac9ext_gcd_tEEEE8allocateEjPKv @6745
    _ZN9__gnu_cxx13new_allocatorISt13_Rb_tree_nodeISt4pairIKS2_IjSt6vectorIsSaIsEEEN4giac9ext_gcd_tEEEEC2Ev @6746
    _ZN9__gnu_cxx13new_allocatorISt13_Rb_tree_nodeISt4pairIKS2_IjSt6vectorIsSaIsEEEN4giac9ext_gcd_tEEEED2Ev @6747
    _ZN9__gnu_cxx13new_allocatorISt13_Rb_tree_nodeISt4pairIKSsN4giac16localized_stringEEEE10deallocateEPS7_j @6748
    _ZN9__gnu_cxx13new_allocatorISt13_Rb_tree_nodeISt4pairIKSsN4giac16localized_stringEEEE8allocateEjPKv @6749
    _ZN9__gnu_cxx13new_allocatorISt13_Rb_tree_nodeISt4pairIKSsN4giac16localized_stringEEEEC2Ev @6750
    _ZN9__gnu_cxx13new_allocatorISt13_Rb_tree_nodeISt4pairIKSsN4giac3genEEEE10deallocateEPS7_j @6751
    _ZN9__gnu_cxx13new_allocatorISt13_Rb_tree_nodeISt4pairIKSsN4giac3genEEEE8allocateEjPKv @6752
    _ZN9__gnu_cxx13new_allocatorISt13_Rb_tree_nodeISt4pairIKSsN4giac3genEEEEC2Ev @6753
    _ZN9__gnu_cxx13new_allocatorISt13_Rb_tree_nodeISt4pairIKSsN4giac3genEEEED2Ev @6754
    _ZN9__gnu_cxx13new_allocatorISt13_Rb_tree_nodeISt4pairIKSsPN4giac7contextEEEE10deallocateEPS8_j @6755
    _ZN9__gnu_cxx13new_allocatorISt13_Rb_tree_nodeISt4pairIKSsPN4giac7contextEEEE8allocateEjPKv @6756
    _ZN9__gnu_cxx13new_allocatorISt13_Rb_tree_nodeISt4pairIKSsPN4giac7contextEEEEC2Ev @6757
    _ZN9__gnu_cxx13new_allocatorISt13_Rb_tree_nodeISt4pairIKSsSsEEE10deallocateEPS5_j @6758
    _ZN9__gnu_cxx13new_allocatorISt13_Rb_tree_nodeISt4pairIKSsSsEEE8allocateEjPKv @6759
    _ZN9__gnu_cxx13new_allocatorISt13_Rb_tree_nodeISt4pairIKSsSsEEEC2Ev @6760
    _ZN9__gnu_cxx13new_allocatorISt13_Rb_tree_nodeISt4pairIKSsSsEEED2Ev @6761
    _ZN9__gnu_cxx13new_allocatorISt13_Rb_tree_nodeISt4pairIKSsSt6vectorISsSaISsEEEEE10deallocateEPS8_j @6762
    _ZN9__gnu_cxx13new_allocatorISt13_Rb_tree_nodeISt4pairIKSsSt6vectorISsSaISsEEEEE8allocateEjPKv @6763
    _ZN9__gnu_cxx13new_allocatorISt13_Rb_tree_nodeISt4pairIKSsSt6vectorISsSaISsEEEEEC2Ev @6764
    _ZN9__gnu_cxx13new_allocatorISt13_Rb_tree_nodeISt4pairIKSt6vectorIsSaIsEEN4giac3genEEEE10deallocateEPSA_j @6765
    _ZN9__gnu_cxx13new_allocatorISt13_Rb_tree_nodeISt4pairIKSt6vectorIsSaIsEEN4giac3genEEEE8allocateEjPKv @6766
    _ZN9__gnu_cxx13new_allocatorISt13_Rb_tree_nodeISt4pairIKSt6vectorIsSaIsEEN4giac3genEEEEC2Ev @6767
    _ZN9__gnu_cxx13new_allocatorISt13_Rb_tree_nodeISt4pairIKSt6vectorIsSaIsEEN4giac3genEEEED2Ev @6768
    _ZN9__gnu_cxx13new_allocatorISt13_Rb_tree_nodeISt4pairIKSt6vectorIsSaIsEEN4giac6tensorINS7_3genEEEEEE10deallocateEPSC_j @6769
    _ZN9__gnu_cxx13new_allocatorISt13_Rb_tree_nodeISt4pairIKSt6vectorIsSaIsEEN4giac6tensorINS7_3genEEEEEE8allocateEjPKv @6770
    _ZN9__gnu_cxx13new_allocatorISt13_Rb_tree_nodeISt4pairIKSt6vectorIsSaIsEEN4giac6tensorINS7_3genEEEEEEC2Ev @6771
    _ZN9__gnu_cxx13new_allocatorISt13_Rb_tree_nodeISt4pairIKSt6vectorIsSaIsEEN4giac6tensorINS7_3genEEEEEED2Ev @6772
    _ZN9__gnu_cxx13new_allocatorISt13_Rb_tree_nodeISt4pairIKiN4giac15dbgprint_vectorINS4_3genEEEEEE10deallocateEPS9_j @6773
    _ZN9__gnu_cxx13new_allocatorISt13_Rb_tree_nodeISt4pairIKiN4giac15dbgprint_vectorINS4_3genEEEEEE8allocateEjPKv @6774
    _ZN9__gnu_cxx13new_allocatorISt13_Rb_tree_nodeISt4pairIKiN4giac15dbgprint_vectorINS4_3genEEEEEEC2Ev @6775
    _ZN9__gnu_cxx13new_allocatorISt13_Rb_tree_nodeISt4pairIKiN4giac15dbgprint_vectorINS4_3genEEEEEED2Ev @6776
    _ZN9__gnu_cxx13new_allocatorISt13_Rb_tree_nodeISt4pairIKjS2_IjjEEEE10deallocateEPS6_j @6777
    _ZN9__gnu_cxx13new_allocatorISt13_Rb_tree_nodeISt4pairIKjS2_IjjEEEE8allocateEjPKv @6778
    _ZN9__gnu_cxx13new_allocatorISt13_Rb_tree_nodeISt4pairIKjS2_IjjEEEEC2Ev @6779
    _ZN9__gnu_cxx13new_allocatorISt13_Rb_tree_nodeISt4pairIKjS2_IjjEEEED2Ev @6780
    _ZN9__gnu_cxx13new_allocatorISt13_Rb_tree_nodeISt4pairIKjSt6vectorIS2_IjjESaIS5_EEEEE10deallocateEPS9_j @6781
    _ZN9__gnu_cxx13new_allocatorISt13_Rb_tree_nodeISt4pairIKjSt6vectorIS2_IjjESaIS5_EEEEE8allocateEjPKv @6782
    _ZN9__gnu_cxx13new_allocatorISt13_Rb_tree_nodeISt4pairIKjSt6vectorIS2_IjjESaIS5_EEEEEC2Ev @6783
    _ZN9__gnu_cxx13new_allocatorISt13_Rb_tree_nodeISt4pairIKjSt6vectorIS2_IjjESaIS5_EEEEED2Ev @6784
    _ZN9__gnu_cxx13new_allocatorISt13_Rb_tree_nodeISt4pairIKyS2_IjjEEEE10deallocateEPS6_j @6785
    _ZN9__gnu_cxx13new_allocatorISt13_Rb_tree_nodeISt4pairIKyS2_IjjEEEE8allocateEjPKv @6786
    _ZN9__gnu_cxx13new_allocatorISt13_Rb_tree_nodeISt4pairIKyS2_IjjEEEEC2Ev @6787
    _ZN9__gnu_cxx13new_allocatorISt13_Rb_tree_nodeISt4pairIKyS2_IjjEEEED2Ev @6788
    _ZN9__gnu_cxx13new_allocatorISt13_Rb_tree_nodeISt4pairIKySt6vectorIS2_IjjESaIS5_EEEEE10deallocateEPS9_j @6789
    _ZN9__gnu_cxx13new_allocatorISt13_Rb_tree_nodeISt4pairIKySt6vectorIS2_IjjESaIS5_EEEEE8allocateEjPKv @6790
    _ZN9__gnu_cxx13new_allocatorISt13_Rb_tree_nodeISt4pairIKySt6vectorIS2_IjjESaIS5_EEEEEC2Ev @6791
    _ZN9__gnu_cxx13new_allocatorISt13_Rb_tree_nodeISt4pairIKySt6vectorIS2_IjjESaIS5_EEEEED2Ev @6792
    _ZN9__gnu_cxx13new_allocatorISt4pairIKN4giac3genES3_EE7destroyEPS5_ @6793
    _ZN9__gnu_cxx13new_allocatorISt4pairIKN4giac3genES3_EE9constructEPS5_RKS5_ @6794
    _ZN9__gnu_cxx13new_allocatorISt4pairIKN4giac3genES3_EEC2Ev @6795
    _ZN9__gnu_cxx13new_allocatorISt4pairIKN4giac3genES3_EED2Ev @6796
    _ZN9__gnu_cxx13new_allocatorISt4pairIKPKcN4giac3genEEE7destroyEPS7_ @6797
    _ZN9__gnu_cxx13new_allocatorISt4pairIKPKcN4giac3genEEE9constructEPS7_RKS7_ @6798
    _ZN9__gnu_cxx13new_allocatorISt4pairIKPKcN4giac3genEEEC2Ev @6799
    _ZN9__gnu_cxx13new_allocatorISt4pairIKPKcN4giac3genEEED2Ev @6800
    _ZN9__gnu_cxx13new_allocatorISt4pairIKPKcPKN4giac9mksa_unitEEE9constructEPS9_RKS9_ @6801
    _ZN9__gnu_cxx13new_allocatorISt4pairIKPKcPKN4giac9mksa_unitEEEC2Ev @6802
    _ZN9__gnu_cxx13new_allocatorISt4pairIKPKcPKN4giac9mksa_unitEEED2Ev @6803
    _ZN9__gnu_cxx13new_allocatorISt4pairIKS1_IjSt6vectorIsSaIsEEEN4giac9ext_gcd_tEEE7destroyEPS9_ @6804
    _ZN9__gnu_cxx13new_allocatorISt4pairIKS1_IjSt6vectorIsSaIsEEEN4giac9ext_gcd_tEEE9constructEPS9_RKS9_ @6805
    _ZN9__gnu_cxx13new_allocatorISt4pairIKS1_IjSt6vectorIsSaIsEEEN4giac9ext_gcd_tEEEC2Ev @6806
    _ZN9__gnu_cxx13new_allocatorISt4pairIKS1_IjSt6vectorIsSaIsEEEN4giac9ext_gcd_tEEED2Ev @6807
    _ZN9__gnu_cxx13new_allocatorISt4pairIKSsN4giac16localized_stringEEE7destroyEPS5_ @6808
    _ZN9__gnu_cxx13new_allocatorISt4pairIKSsN4giac16localized_stringEEE9constructEPS5_RKS5_ @6809
    _ZN9__gnu_cxx13new_allocatorISt4pairIKSsN4giac16localized_stringEEEC2Ev @6810
    _ZN9__gnu_cxx13new_allocatorISt4pairIKSsN4giac16localized_stringEEED2Ev @6811
    _ZN9__gnu_cxx13new_allocatorISt4pairIKSsN4giac3genEEE7destroyEPS5_ @6812
    _ZN9__gnu_cxx13new_allocatorISt4pairIKSsN4giac3genEEE9constructEPS5_RKS5_ @6813
    _ZN9__gnu_cxx13new_allocatorISt4pairIKSsN4giac3genEEEC2Ev @6814
    _ZN9__gnu_cxx13new_allocatorISt4pairIKSsN4giac3genEEED2Ev @6815
    _ZN9__gnu_cxx13new_allocatorISt4pairIKSsPN4giac7contextEEE7destroyEPS6_ @6816
    _ZN9__gnu_cxx13new_allocatorISt4pairIKSsPN4giac7contextEEE9constructEPS6_RKS6_ @6817
    _ZN9__gnu_cxx13new_allocatorISt4pairIKSsPN4giac7contextEEEC2Ev @6818
    _ZN9__gnu_cxx13new_allocatorISt4pairIKSsPN4giac7contextEEED2Ev @6819
    _ZN9__gnu_cxx13new_allocatorISt4pairIKSsSsEE7destroyEPS3_ @6820
    _ZN9__gnu_cxx13new_allocatorISt4pairIKSsSsEE9constructEPS3_RKS3_ @6821
    _ZN9__gnu_cxx13new_allocatorISt4pairIKSsSsEEC2Ev @6822
    _ZN9__gnu_cxx13new_allocatorISt4pairIKSsSsEED2Ev @6823
    _ZN9__gnu_cxx13new_allocatorISt4pairIKSsSt6vectorISsSaISsEEEE9constructEPS6_RKS6_ @6824
    _ZN9__gnu_cxx13new_allocatorISt4pairIKSsSt6vectorISsSaISsEEEEC2Ev @6825
    _ZN9__gnu_cxx13new_allocatorISt4pairIKSsSt6vectorISsSaISsEEEED2Ev @6826
    _ZN9__gnu_cxx13new_allocatorISt4pairIKSt6vectorIsSaIsEEN4giac3genEEE7destroyEPS8_ @6827
    _ZN9__gnu_cxx13new_allocatorISt4pairIKSt6vectorIsSaIsEEN4giac3genEEE9constructEPS8_RKS8_ @6828
    _ZN9__gnu_cxx13new_allocatorISt4pairIKSt6vectorIsSaIsEEN4giac3genEEEC2Ev @6829
    _ZN9__gnu_cxx13new_allocatorISt4pairIKSt6vectorIsSaIsEEN4giac3genEEED2Ev @6830
    _ZN9__gnu_cxx13new_allocatorISt4pairIKSt6vectorIsSaIsEEN4giac6tensorINS6_3genEEEEE7destroyEPSA_ @6831
    _ZN9__gnu_cxx13new_allocatorISt4pairIKSt6vectorIsSaIsEEN4giac6tensorINS6_3genEEEEE9constructEPSA_RKSA_ @6832
    _ZN9__gnu_cxx13new_allocatorISt4pairIKSt6vectorIsSaIsEEN4giac6tensorINS6_3genEEEEEC2Ev @6833
    _ZN9__gnu_cxx13new_allocatorISt4pairIKSt6vectorIsSaIsEEN4giac6tensorINS6_3genEEEEED2Ev @6834
    _ZN9__gnu_cxx13new_allocatorISt4pairIKiN4giac15dbgprint_vectorINS3_3genEEEEE7destroyEPS7_ @6835
    _ZN9__gnu_cxx13new_allocatorISt4pairIKiN4giac15dbgprint_vectorINS3_3genEEEEE9constructEPS7_RKS7_ @6836
    _ZN9__gnu_cxx13new_allocatorISt4pairIKiN4giac15dbgprint_vectorINS3_3genEEEEEC2Ev @6837
    _ZN9__gnu_cxx13new_allocatorISt4pairIKiN4giac15dbgprint_vectorINS3_3genEEEEED2Ev @6838
    _ZN9__gnu_cxx13new_allocatorISt4pairIKjN4giac15dbgprint_vectorINS3_3genEEEEE7destroyEPS7_ @6839
    _ZN9__gnu_cxx13new_allocatorISt4pairIKjN4giac15dbgprint_vectorINS3_3genEEEEE9constructEPS7_RKS7_ @6840
    _ZN9__gnu_cxx13new_allocatorISt4pairIKjN4giac15dbgprint_vectorINS3_3genEEEEEC2Ev @6841
    _ZN9__gnu_cxx13new_allocatorISt4pairIKjN4giac15dbgprint_vectorINS3_3genEEEEED2Ev @6842
    _ZN9__gnu_cxx13new_allocatorISt4pairIKjN4giac3genEEE7destroyEPS5_ @6843
    _ZN9__gnu_cxx13new_allocatorISt4pairIKjN4giac3genEEE9constructEPS5_RKS5_ @6844
    _ZN9__gnu_cxx13new_allocatorISt4pairIKjN4giac3genEEEC2Ev @6845
    _ZN9__gnu_cxx13new_allocatorISt4pairIKjN4giac3genEEED2Ev @6846
    _ZN9__gnu_cxx13new_allocatorISt4pairIKjN4giac6axbinvEEE7destroyEPS5_ @6847
    _ZN9__gnu_cxx13new_allocatorISt4pairIKjN4giac6axbinvEEE9constructEPS5_RKS5_ @6848
    _ZN9__gnu_cxx13new_allocatorISt4pairIKjN4giac6axbinvEEEC2Ev @6849
    _ZN9__gnu_cxx13new_allocatorISt4pairIKjN4giac6axbinvEEED2Ev @6850
    _ZN9__gnu_cxx13new_allocatorISt4pairIKjS1_IjjEEE7destroyEPS4_ @6851
    _ZN9__gnu_cxx13new_allocatorISt4pairIKjS1_IjjEEE9constructEPS4_RKS4_ @6852
    _ZN9__gnu_cxx13new_allocatorISt4pairIKjS1_IjjEEEC2Ev @6853
    _ZN9__gnu_cxx13new_allocatorISt4pairIKjS1_IjjEEED2Ev @6854
    _ZN9__gnu_cxx13new_allocatorISt4pairIKjSt6vectorIS1_IjjESaIS4_EEEE7destroyEPS7_ @6855
    _ZN9__gnu_cxx13new_allocatorISt4pairIKjSt6vectorIS1_IjjESaIS4_EEEE9constructEPS7_RKS7_ @6856
    _ZN9__gnu_cxx13new_allocatorISt4pairIKjSt6vectorIS1_IjjESaIS4_EEEEC2Ev @6857
    _ZN9__gnu_cxx13new_allocatorISt4pairIKjSt6vectorIS1_IjjESaIS4_EEEED2Ev @6858
    _ZN9__gnu_cxx13new_allocatorISt4pairIKjSt6vectorIiSaIiEEEE7destroyEPS6_ @6859
    _ZN9__gnu_cxx13new_allocatorISt4pairIKjSt6vectorIiSaIiEEEE9constructEPS6_RKS6_ @6860
    _ZN9__gnu_cxx13new_allocatorISt4pairIKjSt6vectorIiSaIiEEEEC2Ev @6861
    _ZN9__gnu_cxx13new_allocatorISt4pairIKjSt6vectorIiSaIiEEEED2Ev @6862
    _ZN9__gnu_cxx13new_allocatorISt4pairIKjdEE7destroyEPS3_ @6863
    _ZN9__gnu_cxx13new_allocatorISt4pairIKjdEE9constructEPS3_RKS3_ @6864
    _ZN9__gnu_cxx13new_allocatorISt4pairIKjdEEC2Ev @6865
    _ZN9__gnu_cxx13new_allocatorISt4pairIKjdEED2Ev @6866
    _ZN9__gnu_cxx13new_allocatorISt4pairIKjiEE7destroyEPS3_ @6867
    _ZN9__gnu_cxx13new_allocatorISt4pairIKjiEE9constructEPS3_RKS3_ @6868
    _ZN9__gnu_cxx13new_allocatorISt4pairIKjiEEC2Ev @6869
    _ZN9__gnu_cxx13new_allocatorISt4pairIKjiEED2Ev @6870
    _ZN9__gnu_cxx13new_allocatorISt4pairIKjxEE7destroyEPS3_ @6871
    _ZN9__gnu_cxx13new_allocatorISt4pairIKjxEE9constructEPS3_RKS3_ @6872
    _ZN9__gnu_cxx13new_allocatorISt4pairIKjxEEC2Ev @6873
    _ZN9__gnu_cxx13new_allocatorISt4pairIKjxEED2Ev @6874
    _ZN9__gnu_cxx13new_allocatorISt4pairIKyN4giac3genEEE7destroyEPS5_ @6875
    _ZN9__gnu_cxx13new_allocatorISt4pairIKyN4giac3genEEE9constructEPS5_RKS5_ @6876
    _ZN9__gnu_cxx13new_allocatorISt4pairIKyN4giac3genEEEC2Ev @6877
    _ZN9__gnu_cxx13new_allocatorISt4pairIKyN4giac3genEEED2Ev @6878
    _ZN9__gnu_cxx13new_allocatorISt4pairIKyS1_IjjEEE7destroyEPS4_ @6879
    _ZN9__gnu_cxx13new_allocatorISt4pairIKyS1_IjjEEE9constructEPS4_RKS4_ @6880
    _ZN9__gnu_cxx13new_allocatorISt4pairIKyS1_IjjEEEC2Ev @6881
    _ZN9__gnu_cxx13new_allocatorISt4pairIKyS1_IjjEEED2Ev @6882
    _ZN9__gnu_cxx13new_allocatorISt4pairIKySt6vectorIS1_IjjESaIS4_EEEE7destroyEPS7_ @6883
    _ZN9__gnu_cxx13new_allocatorISt4pairIKySt6vectorIS1_IjjESaIS4_EEEE9constructEPS7_RKS7_ @6884
    _ZN9__gnu_cxx13new_allocatorISt4pairIKySt6vectorIS1_IjjESaIS4_EEEEC2Ev @6885
    _ZN9__gnu_cxx13new_allocatorISt4pairIKySt6vectorIS1_IjjESaIS4_EEEED2Ev @6886
    _ZN9__gnu_cxx13new_allocatorISt4pairIKydEE7destroyEPS3_ @6887
    _ZN9__gnu_cxx13new_allocatorISt4pairIKydEE9constructEPS3_RKS3_ @6888
    _ZN9__gnu_cxx13new_allocatorISt4pairIKydEEC2Ev @6889
    _ZN9__gnu_cxx13new_allocatorISt4pairIKydEED2Ev @6890
    _ZN9__gnu_cxx13new_allocatorISt4pairIKyiEE7destroyEPS3_ @6891
    _ZN9__gnu_cxx13new_allocatorISt4pairIKyiEE9constructEPS3_RKS3_ @6892
    _ZN9__gnu_cxx13new_allocatorISt4pairIKyiEEC2Ev @6893
    _ZN9__gnu_cxx13new_allocatorISt4pairIKyiEED2Ev @6894
    _ZN9__gnu_cxx13new_allocatorISt4pairIKyxEE7destroyEPS3_ @6895
    _ZN9__gnu_cxx13new_allocatorISt4pairIKyxEE9constructEPS3_RKS3_ @6896
    _ZN9__gnu_cxx13new_allocatorISt4pairIKyxEEC2Ev @6897
    _ZN9__gnu_cxx13new_allocatorISt4pairIKyxEED2Ev @6898
    _ZN9__gnu_cxx13new_allocatorISt4pairIiiEE10deallocateEPS2_j @6899
    _ZN9__gnu_cxx13new_allocatorISt4pairIiiEE7destroyEPS2_ @6900
    _ZN9__gnu_cxx13new_allocatorISt4pairIiiEE8allocateEjPKv @6901
    _ZN9__gnu_cxx13new_allocatorISt4pairIiiEE9constructEPS2_RKS2_ @6902
    _ZN9__gnu_cxx13new_allocatorISt4pairIiiEEC2Ev @6903
    _ZN9__gnu_cxx13new_allocatorISt4pairIiiEED2Ev @6904
    _ZN9__gnu_cxx13new_allocatorISt4pairIjjEE10deallocateEPS2_j @6905
    _ZN9__gnu_cxx13new_allocatorISt4pairIjjEE7destroyEPS2_ @6906
    _ZN9__gnu_cxx13new_allocatorISt4pairIjjEE8allocateEjPKv @6907
    _ZN9__gnu_cxx13new_allocatorISt4pairIjjEE9constructEPS2_RKS2_ @6908
    _ZN9__gnu_cxx13new_allocatorISt4pairIjjEEC2ERKS3_ @6909
    _ZN9__gnu_cxx13new_allocatorISt4pairIjjEEC2Ev @6910
    _ZN9__gnu_cxx13new_allocatorISt4pairIjjEED2Ev @6911
    _ZN9__gnu_cxx13new_allocatorISt6vectorIN4giac10T_unsignedIS1_IiSaIiEEjEESaIS6_EEE10deallocateEPS8_j @6912
    _ZN9__gnu_cxx13new_allocatorISt6vectorIN4giac10T_unsignedIS1_IiSaIiEEjEESaIS6_EEE7destroyEPS8_ @6913
    _ZN9__gnu_cxx13new_allocatorISt6vectorIN4giac10T_unsignedIS1_IiSaIiEEjEESaIS6_EEE8allocateEjPKv @6914
    _ZN9__gnu_cxx13new_allocatorISt6vectorIN4giac10T_unsignedIS1_IiSaIiEEjEESaIS6_EEE9constructEPS8_RKS8_ @6915
    _ZN9__gnu_cxx13new_allocatorISt6vectorIN4giac10T_unsignedIS1_IiSaIiEEjEESaIS6_EEEC2ERKS9_ @6916
    _ZN9__gnu_cxx13new_allocatorISt6vectorIN4giac10T_unsignedIS1_IiSaIiEEjEESaIS6_EEEC2Ev @6917
    _ZN9__gnu_cxx13new_allocatorISt6vectorIN4giac10T_unsignedIS1_IiSaIiEEjEESaIS6_EEED2Ev @6918
    _ZN9__gnu_cxx13new_allocatorISt6vectorIN4giac10T_unsignedIijEESaIS4_EEE10deallocateEPS6_j @6919
    _ZN9__gnu_cxx13new_allocatorISt6vectorIN4giac10T_unsignedIijEESaIS4_EEE7destroyEPS6_ @6920
    _ZN9__gnu_cxx13new_allocatorISt6vectorIN4giac10T_unsignedIijEESaIS4_EEE8allocateEjPKv @6921
    _ZN9__gnu_cxx13new_allocatorISt6vectorIN4giac10T_unsignedIijEESaIS4_EEE9constructEPS6_RKS6_ @6922
    _ZN9__gnu_cxx13new_allocatorISt6vectorIN4giac10T_unsignedIijEESaIS4_EEEC2ERKS7_ @6923
    _ZN9__gnu_cxx13new_allocatorISt6vectorIN4giac10T_unsignedIijEESaIS4_EEEC2Ev @6924
    _ZN9__gnu_cxx13new_allocatorISt6vectorIN4giac10T_unsignedIijEESaIS4_EEED2Ev @6925
    _ZN9__gnu_cxx13new_allocatorISt6vectorIN4giac10lp_entry_tESaIS3_EEE10deallocateEPS5_j @6926
    _ZN9__gnu_cxx13new_allocatorISt6vectorIN4giac10lp_entry_tESaIS3_EEE8allocateEjPKv @6927
    _ZN9__gnu_cxx13new_allocatorISt6vectorIN4giac10lp_entry_tESaIS3_EEEC2ERKS6_ @6928
    _ZN9__gnu_cxx13new_allocatorISt6vectorIN4giac10lp_entry_tESaIS3_EEEC2Ev @6929
    _ZN9__gnu_cxx13new_allocatorISt6vectorIN4giac10lp_entry_tESaIS3_EEED2Ev @6930
    _ZN9__gnu_cxx13new_allocatorISt6vectorIN4giac10sparse_genESaIS3_EEE10deallocateEPS5_j @6931
    _ZN9__gnu_cxx13new_allocatorISt6vectorIN4giac10sparse_genESaIS3_EEE7destroyEPS5_ @6932
    _ZN9__gnu_cxx13new_allocatorISt6vectorIN4giac10sparse_genESaIS3_EEE8allocateEjPKv @6933
    _ZN9__gnu_cxx13new_allocatorISt6vectorIN4giac10sparse_genESaIS3_EEE9constructEPS5_RKS5_ @6934
    _ZN9__gnu_cxx13new_allocatorISt6vectorIN4giac10sparse_genESaIS3_EEEC2ERKS6_ @6935
    _ZN9__gnu_cxx13new_allocatorISt6vectorIN4giac10sparse_genESaIS3_EEEC2Ev @6936
    _ZN9__gnu_cxx13new_allocatorISt6vectorIN4giac10sparse_genESaIS3_EEED2Ev @6937
    _ZN9__gnu_cxx13new_allocatorISt6vectorIN4giac14sparse_elementESaIS3_EEE10deallocateEPS5_j @6938
    _ZN9__gnu_cxx13new_allocatorISt6vectorIN4giac14sparse_elementESaIS3_EEE7destroyEPS5_ @6939
    _ZN9__gnu_cxx13new_allocatorISt6vectorIN4giac14sparse_elementESaIS3_EEE8allocateEjPKv @6940
    _ZN9__gnu_cxx13new_allocatorISt6vectorIN4giac14sparse_elementESaIS3_EEE9constructEPS5_RKS5_ @6941
    _ZN9__gnu_cxx13new_allocatorISt6vectorIN4giac14sparse_elementESaIS3_EEEC2ERKS6_ @6942
    _ZN9__gnu_cxx13new_allocatorISt6vectorIN4giac14sparse_elementESaIS3_EEEC2Ev @6943
    _ZN9__gnu_cxx13new_allocatorISt6vectorIN4giac14sparse_elementESaIS3_EEED2Ev @6944
    _ZN9__gnu_cxx13new_allocatorISt6vectorIN4giac3genESaIS3_EEE10deallocateEPS5_j @6945
    _ZN9__gnu_cxx13new_allocatorISt6vectorIN4giac3genESaIS3_EEE8allocateEjPKv @6946
    _ZN9__gnu_cxx13new_allocatorISt6vectorIN4giac3genESaIS3_EEEC2ERKS6_ @6947
    _ZN9__gnu_cxx13new_allocatorISt6vectorIN4giac3genESaIS3_EEEC2Ev @6948
    _ZN9__gnu_cxx13new_allocatorISt6vectorIN4giac3genESaIS3_EEED2Ev @6949
    _ZN9__gnu_cxx13new_allocatorISt6vectorIN4giac6tdeg_tESaIS3_EEE10deallocateEPS5_j @6950
    _ZN9__gnu_cxx13new_allocatorISt6vectorIN4giac6tdeg_tESaIS3_EEE8allocateEjPKv @6951
    _ZN9__gnu_cxx13new_allocatorISt6vectorIN4giac6tdeg_tESaIS3_EEEC2ERKS6_ @6952
    _ZN9__gnu_cxx13new_allocatorISt6vectorIN4giac6tdeg_tESaIS3_EEEC2Ev @6953
    _ZN9__gnu_cxx13new_allocatorISt6vectorIN4giac6tdeg_tESaIS3_EEED2Ev @6954
    _ZN9__gnu_cxx13new_allocatorISt6vectorIN4giac8sparse32ESaIS3_EEE10deallocateEPS5_j @6955
    _ZN9__gnu_cxx13new_allocatorISt6vectorIN4giac8sparse32ESaIS3_EEE7destroyEPS5_ @6956
    _ZN9__gnu_cxx13new_allocatorISt6vectorIN4giac8sparse32ESaIS3_EEE8allocateEjPKv @6957
    _ZN9__gnu_cxx13new_allocatorISt6vectorIN4giac8sparse32ESaIS3_EEE9constructEPS5_RKS5_ @6958
    _ZN9__gnu_cxx13new_allocatorISt6vectorIN4giac8sparse32ESaIS3_EEEC2ERKS6_ @6959
    _ZN9__gnu_cxx13new_allocatorISt6vectorIN4giac8sparse32ESaIS3_EEEC2Ev @6960
    _ZN9__gnu_cxx13new_allocatorISt6vectorIN4giac8sparse32ESaIS3_EEED2Ev @6961
    _ZN9__gnu_cxx13new_allocatorISt6vectorIS1_IdSaIdEESaIS3_EEE10deallocateEPS5_j @6962
    _ZN9__gnu_cxx13new_allocatorISt6vectorIS1_IdSaIdEESaIS3_EEE8allocateEjPKv @6963
    _ZN9__gnu_cxx13new_allocatorISt6vectorIS1_IdSaIdEESaIS3_EEEC2ERKS6_ @6964
    _ZN9__gnu_cxx13new_allocatorISt6vectorIS1_IdSaIdEESaIS3_EEEC2Ev @6965
    _ZN9__gnu_cxx13new_allocatorISt6vectorIS1_IdSaIdEESaIS3_EEED2Ev @6966
    _ZN9__gnu_cxx13new_allocatorISt6vectorIS1_IiSaIiEESaIS3_EEE10deallocateEPS5_j @6967
    _ZN9__gnu_cxx13new_allocatorISt6vectorIS1_IiSaIiEESaIS3_EEE8allocateEjPKv @6968
    _ZN9__gnu_cxx13new_allocatorISt6vectorIS1_IiSaIiEESaIS3_EEEC2ERKS6_ @6969
    _ZN9__gnu_cxx13new_allocatorISt6vectorIS1_IiSaIiEESaIS3_EEEC2Ev @6970
    _ZN9__gnu_cxx13new_allocatorISt6vectorIS1_IiSaIiEESaIS3_EEED2Ev @6971
    _ZN9__gnu_cxx13new_allocatorISt6vectorISt4pairIjjESaIS3_EEE10deallocateEPS5_j @6972
    _ZN9__gnu_cxx13new_allocatorISt6vectorISt4pairIjjESaIS3_EEE8allocateEjPKv @6973
    _ZN9__gnu_cxx13new_allocatorISt6vectorISt4pairIjjESaIS3_EEEC2ERKS6_ @6974
    _ZN9__gnu_cxx13new_allocatorISt6vectorISt4pairIjjESaIS3_EEEC2Ev @6975
    _ZN9__gnu_cxx13new_allocatorISt6vectorISt4pairIjjESaIS3_EEED2Ev @6976
    _ZN9__gnu_cxx13new_allocatorISt6vectorISt7complexIdESaIS3_EEE10deallocateEPS5_j @6977
    _ZN9__gnu_cxx13new_allocatorISt6vectorISt7complexIdESaIS3_EEE8allocateEjPKv @6978
    _ZN9__gnu_cxx13new_allocatorISt6vectorISt7complexIdESaIS3_EEEC2ERKS6_ @6979
    _ZN9__gnu_cxx13new_allocatorISt6vectorISt7complexIdESaIS3_EEEC2Ev @6980
    _ZN9__gnu_cxx13new_allocatorISt6vectorISt7complexIdESaIS3_EEED2Ev @6981
    _ZN9__gnu_cxx13new_allocatorISt6vectorIbSaIbEEE10deallocateEPS3_j @6982
    _ZN9__gnu_cxx13new_allocatorISt6vectorIbSaIbEEE8allocateEjPKv @6983
    _ZN9__gnu_cxx13new_allocatorISt6vectorIbSaIbEEEC2ERKS4_ @6984
    _ZN9__gnu_cxx13new_allocatorISt6vectorIbSaIbEEEC2Ev @6985
    _ZN9__gnu_cxx13new_allocatorISt6vectorIbSaIbEEED2Ev @6986
    _ZN9__gnu_cxx13new_allocatorISt6vectorIdSaIdEEE10deallocateEPS3_j @6987
    _ZN9__gnu_cxx13new_allocatorISt6vectorIdSaIdEEE7destroyEPS3_ @6988
    _ZN9__gnu_cxx13new_allocatorISt6vectorIdSaIdEEE8allocateEjPKv @6989
    _ZN9__gnu_cxx13new_allocatorISt6vectorIdSaIdEEE9constructEPS3_RKS3_ @6990
    _ZN9__gnu_cxx13new_allocatorISt6vectorIdSaIdEEEC2ERKS4_ @6991
    _ZN9__gnu_cxx13new_allocatorISt6vectorIdSaIdEEEC2Ev @6992
    _ZN9__gnu_cxx13new_allocatorISt6vectorIdSaIdEEED2Ev @6993
    _ZN9__gnu_cxx13new_allocatorISt6vectorIiSaIiEEE10deallocateEPS3_j @6994
    _ZN9__gnu_cxx13new_allocatorISt6vectorIiSaIiEEE7destroyEPS3_ @6995
    _ZN9__gnu_cxx13new_allocatorISt6vectorIiSaIiEEE8allocateEjPKv @6996
    _ZN9__gnu_cxx13new_allocatorISt6vectorIiSaIiEEE9constructEPS3_RKS3_ @6997
    _ZN9__gnu_cxx13new_allocatorISt6vectorIiSaIiEEEC2ERKS4_ @6998
    _ZN9__gnu_cxx13new_allocatorISt6vectorIiSaIiEEEC2Ev @6999
    _ZN9__gnu_cxx13new_allocatorISt6vectorIiSaIiEEED2Ev @7000
    _ZN9__gnu_cxx13new_allocatorISt6vectorIjSaIjEEE10deallocateEPS3_j @7001
    _ZN9__gnu_cxx13new_allocatorISt6vectorIjSaIjEEE7destroyEPS3_ @7002
    _ZN9__gnu_cxx13new_allocatorISt6vectorIjSaIjEEE8allocateEjPKv @7003
    _ZN9__gnu_cxx13new_allocatorISt6vectorIjSaIjEEE9constructEPS3_RKS3_ @7004
    _ZN9__gnu_cxx13new_allocatorISt6vectorIjSaIjEEEC2ERKS4_ @7005
    _ZN9__gnu_cxx13new_allocatorISt6vectorIjSaIjEEEC2Ev @7006
    _ZN9__gnu_cxx13new_allocatorISt6vectorIjSaIjEEED2Ev @7007
    _ZN9__gnu_cxx13new_allocatorISt6vectorIsSaIsEEE10deallocateEPS3_j @7008
    _ZN9__gnu_cxx13new_allocatorISt6vectorIsSaIsEEE8allocateEjPKv @7009
    _ZN9__gnu_cxx13new_allocatorISt6vectorIsSaIsEEEC2ERKS4_ @7010
    _ZN9__gnu_cxx13new_allocatorISt6vectorIsSaIsEEEC2Ev @7011
    _ZN9__gnu_cxx13new_allocatorISt6vectorIsSaIsEEED2Ev @7012
    _ZN9__gnu_cxx13new_allocatorISt6vectorItSaItEEE10deallocateEPS3_j @7013
    _ZN9__gnu_cxx13new_allocatorISt6vectorItSaItEEE7destroyEPS3_ @7014
    _ZN9__gnu_cxx13new_allocatorISt6vectorItSaItEEE8allocateEjPKv @7015
    _ZN9__gnu_cxx13new_allocatorISt6vectorItSaItEEE9constructEPS3_RKS3_ @7016
    _ZN9__gnu_cxx13new_allocatorISt6vectorItSaItEEEC2ERKS4_ @7017
    _ZN9__gnu_cxx13new_allocatorISt6vectorItSaItEEEC2Ev @7018
    _ZN9__gnu_cxx13new_allocatorISt6vectorItSaItEEED2Ev @7019
    _ZN9__gnu_cxx13new_allocatorISt7complexIdEE10deallocateEPS2_j @7020
    _ZN9__gnu_cxx13new_allocatorISt7complexIdEE7destroyEPS2_ @7021
    _ZN9__gnu_cxx13new_allocatorISt7complexIdEE8allocateEjPKv @7022
    _ZN9__gnu_cxx13new_allocatorISt7complexIdEE9constructEPS2_RKS2_ @7023
    _ZN9__gnu_cxx13new_allocatorISt7complexIdEEC2ERKS3_ @7024
    _ZN9__gnu_cxx13new_allocatorISt7complexIdEEC2Ev @7025
    _ZN9__gnu_cxx13new_allocatorISt7complexIdEED2Ev @7026
    _ZN9__gnu_cxx13new_allocatorIbEC2Ev @7027
    _ZN9__gnu_cxx13new_allocatorIbED2Ev @7028
    _ZN9__gnu_cxx13new_allocatorIcE10deallocateEPcj @7029
    _ZN9__gnu_cxx13new_allocatorIcE8allocateEjPKv @7030
    _ZN9__gnu_cxx13new_allocatorIdE10deallocateEPdj @7031
    _ZN9__gnu_cxx13new_allocatorIdE7destroyEPd @7032
    _ZN9__gnu_cxx13new_allocatorIdE8allocateEjPKv @7033
    _ZN9__gnu_cxx13new_allocatorIdE9constructEPdRKd @7034
    _ZN9__gnu_cxx13new_allocatorIdEC2ERKS1_ @7035
    _ZN9__gnu_cxx13new_allocatorIdEC2Ev @7036
    _ZN9__gnu_cxx13new_allocatorIdED2Ev @7037
    _ZN9__gnu_cxx13new_allocatorIiE10deallocateEPij @7038
    _ZN9__gnu_cxx13new_allocatorIiE7destroyEPi @7039
    _ZN9__gnu_cxx13new_allocatorIiE8allocateEjPKv @7040
    _ZN9__gnu_cxx13new_allocatorIiE9constructEPiRKi @7041
    _ZN9__gnu_cxx13new_allocatorIiEC2ERKS1_ @7042
    _ZN9__gnu_cxx13new_allocatorIiEC2Ev @7043
    _ZN9__gnu_cxx13new_allocatorIiED2Ev @7044
    _ZN9__gnu_cxx13new_allocatorIjE10deallocateEPjj @7045
    _ZN9__gnu_cxx13new_allocatorIjE7destroyEPj @7046
    _ZN9__gnu_cxx13new_allocatorIjE8allocateEjPKv @7047
    _ZN9__gnu_cxx13new_allocatorIjE9constructEPjRKj @7048
    _ZN9__gnu_cxx13new_allocatorIjEC2ERKS1_ @7049
    _ZN9__gnu_cxx13new_allocatorIjEC2Ev @7050
    _ZN9__gnu_cxx13new_allocatorIjED2Ev @7051
    _ZN9__gnu_cxx13new_allocatorIlE10deallocateEPlj @7052
    _ZN9__gnu_cxx13new_allocatorIlE8allocateEjPKv @7053
    _ZN9__gnu_cxx13new_allocatorIlEC2Ev @7054
    _ZN9__gnu_cxx13new_allocatorIlED2Ev @7055
    _ZN9__gnu_cxx13new_allocatorImE10deallocateEPmj @7056
    _ZN9__gnu_cxx13new_allocatorImE8allocateEjPKv @7057
    _ZN9__gnu_cxx13new_allocatorImEC2ERKS1_ @7058
    _ZN9__gnu_cxx13new_allocatorImEC2Ev @7059
    _ZN9__gnu_cxx13new_allocatorImED2Ev @7060
    _ZN9__gnu_cxx13new_allocatorIsE10deallocateEPsj @7061
    _ZN9__gnu_cxx13new_allocatorIsE7destroyEPs @7062
    _ZN9__gnu_cxx13new_allocatorIsE8allocateEjPKv @7063
    _ZN9__gnu_cxx13new_allocatorIsE9constructEPsRKs @7064
    _ZN9__gnu_cxx13new_allocatorIsEC2ERKS1_ @7065
    _ZN9__gnu_cxx13new_allocatorIsEC2Ev @7066
    _ZN9__gnu_cxx13new_allocatorIsED2Ev @7067
    _ZN9__gnu_cxx13new_allocatorItE10deallocateEPtj @7068
    _ZN9__gnu_cxx13new_allocatorItE7destroyEPt @7069
    _ZN9__gnu_cxx13new_allocatorItE8allocateEjPKv @7070
    _ZN9__gnu_cxx13new_allocatorItE9constructEPtRKt @7071
    _ZN9__gnu_cxx13new_allocatorItEC2ERKS1_ @7072
    _ZN9__gnu_cxx13new_allocatorItEC2Ev @7073
    _ZN9__gnu_cxx13new_allocatorItED2Ev @7074
    _ZN9__gnu_cxx13new_allocatorIxE10deallocateEPxj @7075
    _ZN9__gnu_cxx13new_allocatorIxE7destroyEPx @7076
    _ZN9__gnu_cxx13new_allocatorIxE8allocateEjPKv @7077
    _ZN9__gnu_cxx13new_allocatorIxE9constructEPxRKx @7078
    _ZN9__gnu_cxx13new_allocatorIxEC2ERKS1_ @7079
    _ZN9__gnu_cxx13new_allocatorIxEC2Ev @7080
    _ZN9__gnu_cxx13new_allocatorIxED2Ev @7081
    _ZN9__gnu_cxx13new_allocatorIyE10deallocateEPyj @7082
    _ZN9__gnu_cxx13new_allocatorIyE8allocateEjPKv @7083
    _ZN9__gnu_cxx13new_allocatorIyEC2ERKS1_ @7084
    _ZN9__gnu_cxx13new_allocatorIyEC2Ev @7085
    _ZN9__gnu_cxx13new_allocatorIyED2Ev @7086
    _ZN9__gnu_cxx14__alloc_traitsISaIN4giac10T_unsignedINS1_15dbgprint_vectorINS1_3genEEEjEEEE10_S_on_swapERS7_S9_ @7087
    _ZN9__gnu_cxx14__alloc_traitsISaIN4giac10T_unsignedINS1_15dbgprint_vectorINS1_3genEEEjEEEE17_S_select_on_copyERKS7_ @7088
    _ZN9__gnu_cxx14__alloc_traitsISaIN4giac10T_unsignedINS1_15dbgprint_vectorINS1_3genEEEjEEEE7destroyERS7_PS6_ @7089
    _ZN9__gnu_cxx14__alloc_traitsISaIN4giac10T_unsignedINS1_15dbgprint_vectorINS1_3genEEEjEEEE8max_sizeERKS7_ @7090
    _ZN9__gnu_cxx14__alloc_traitsISaIN4giac10T_unsignedINS1_15dbgprint_vectorINS1_3genEEEjEEEE9constructIS6_EEvRS7_PS6_RKT_ @7091
    _ZN9__gnu_cxx14__alloc_traitsISaIN4giac10T_unsignedINS1_3genENS1_6tdeg_tEEEEE10_S_on_swapERS6_S8_ @7092
    _ZN9__gnu_cxx14__alloc_traitsISaIN4giac10T_unsignedINS1_3genENS1_6tdeg_tEEEEE17_S_select_on_copyERKS6_ @7093
    _ZN9__gnu_cxx14__alloc_traitsISaIN4giac10T_unsignedINS1_3genENS1_6tdeg_tEEEEE7destroyERS6_PS5_ @7094
    _ZN9__gnu_cxx14__alloc_traitsISaIN4giac10T_unsignedINS1_3genENS1_6tdeg_tEEEEE8max_sizeERKS6_ @7095
    _ZN9__gnu_cxx14__alloc_traitsISaIN4giac10T_unsignedINS1_3genENS1_6tdeg_tEEEEE9constructIS5_EEvRS6_PS5_RKT_ @7096
    _ZN9__gnu_cxx14__alloc_traitsISaIN4giac10T_unsignedINS1_3genEjEEEE10_S_on_swapERS5_S7_ @7097
    _ZN9__gnu_cxx14__alloc_traitsISaIN4giac10T_unsignedINS1_3genEjEEEE17_S_select_on_copyERKS5_ @7098
    _ZN9__gnu_cxx14__alloc_traitsISaIN4giac10T_unsignedINS1_3genEjEEEE7destroyERS5_PS4_ @7099
    _ZN9__gnu_cxx14__alloc_traitsISaIN4giac10T_unsignedINS1_3genEjEEEE8max_sizeERKS5_ @7100
    _ZN9__gnu_cxx14__alloc_traitsISaIN4giac10T_unsignedINS1_3genEjEEEE9constructIS4_EEvRS5_PS4_RKT_ @7101
    _ZN9__gnu_cxx14__alloc_traitsISaIN4giac10T_unsignedINS1_3genEyEEEE17_S_select_on_copyERKS5_ @7102
    _ZN9__gnu_cxx14__alloc_traitsISaIN4giac10T_unsignedINS1_3genEyEEEE7destroyERS5_PS4_ @7103
    _ZN9__gnu_cxx14__alloc_traitsISaIN4giac10T_unsignedINS1_3genEyEEEE8max_sizeERKS5_ @7104
    _ZN9__gnu_cxx14__alloc_traitsISaIN4giac10T_unsignedINS1_3genEyEEEE9constructIS4_EEvRS5_PS4_RKT_ @7105
    _ZN9__gnu_cxx14__alloc_traitsISaIN4giac10T_unsignedISt6vectorIiSaIiEEjEEEE10_S_on_swapERS7_S9_ @7106
    _ZN9__gnu_cxx14__alloc_traitsISaIN4giac10T_unsignedISt6vectorIiSaIiEEjEEEE17_S_select_on_copyERKS7_ @7107
    _ZN9__gnu_cxx14__alloc_traitsISaIN4giac10T_unsignedISt6vectorIiSaIiEEjEEEE7destroyERS7_PS6_ @7108
    _ZN9__gnu_cxx14__alloc_traitsISaIN4giac10T_unsignedISt6vectorIiSaIiEEjEEEE8max_sizeERKS7_ @7109
    _ZN9__gnu_cxx14__alloc_traitsISaIN4giac10T_unsignedISt6vectorIiSaIiEEjEEEE9constructIS6_EEvRS7_PS6_RKT_ @7110
    _ZN9__gnu_cxx14__alloc_traitsISaIN4giac10T_unsignedIdjEEEE17_S_select_on_copyERKS4_ @7111
    _ZN9__gnu_cxx14__alloc_traitsISaIN4giac10T_unsignedIdjEEEE7destroyERS4_PS3_ @7112
    _ZN9__gnu_cxx14__alloc_traitsISaIN4giac10T_unsignedIdjEEEE8max_sizeERKS4_ @7113
    _ZN9__gnu_cxx14__alloc_traitsISaIN4giac10T_unsignedIdjEEEE9constructIS3_EEvRS4_PS3_RKT_ @7114
    _ZN9__gnu_cxx14__alloc_traitsISaIN4giac10T_unsignedIdyEEEE17_S_select_on_copyERKS4_ @7115
    _ZN9__gnu_cxx14__alloc_traitsISaIN4giac10T_unsignedIdyEEEE7destroyERS4_PS3_ @7116
    _ZN9__gnu_cxx14__alloc_traitsISaIN4giac10T_unsignedIdyEEEE8max_sizeERKS4_ @7117
    _ZN9__gnu_cxx14__alloc_traitsISaIN4giac10T_unsignedIdyEEEE9constructIS3_EEvRS4_PS3_RKT_ @7118
    _ZN9__gnu_cxx14__alloc_traitsISaIN4giac10T_unsignedIiNS1_6tdeg_tEEEEE10_S_on_swapERS5_S7_ @7119
    _ZN9__gnu_cxx14__alloc_traitsISaIN4giac10T_unsignedIiNS1_6tdeg_tEEEEE17_S_select_on_copyERKS5_ @7120
    _ZN9__gnu_cxx14__alloc_traitsISaIN4giac10T_unsignedIiNS1_6tdeg_tEEEEE7destroyERS5_PS4_ @7121
    _ZN9__gnu_cxx14__alloc_traitsISaIN4giac10T_unsignedIiNS1_6tdeg_tEEEEE8max_sizeERKS5_ @7122
    _ZN9__gnu_cxx14__alloc_traitsISaIN4giac10T_unsignedIiNS1_6tdeg_tEEEEE9constructIS4_EEvRS5_PS4_RKT_ @7123
    _ZN9__gnu_cxx14__alloc_traitsISaIN4giac10T_unsignedIijEEEE10_S_on_swapERS4_S6_ @7124
    _ZN9__gnu_cxx14__alloc_traitsISaIN4giac10T_unsignedIijEEEE17_S_select_on_copyERKS4_ @7125
    _ZN9__gnu_cxx14__alloc_traitsISaIN4giac10T_unsignedIijEEEE7destroyERS4_PS3_ @7126
    _ZN9__gnu_cxx14__alloc_traitsISaIN4giac10T_unsignedIijEEEE8max_sizeERKS4_ @7127
    _ZN9__gnu_cxx14__alloc_traitsISaIN4giac10T_unsignedIijEEEE9constructIS3_EEvRS4_PS3_RKT_ @7128
    _ZN9__gnu_cxx14__alloc_traitsISaIN4giac10T_unsignedIiyEEEE7destroyERS4_PS3_ @7129
    _ZN9__gnu_cxx14__alloc_traitsISaIN4giac10T_unsignedIiyEEEE8max_sizeERKS4_ @7130
    _ZN9__gnu_cxx14__alloc_traitsISaIN4giac10T_unsignedIiyEEEE9constructIS3_EEvRS4_PS3_RKT_ @7131
    _ZN9__gnu_cxx14__alloc_traitsISaIN4giac10T_unsignedIxjEEEE17_S_select_on_copyERKS4_ @7132
    _ZN9__gnu_cxx14__alloc_traitsISaIN4giac10T_unsignedIxjEEEE7destroyERS4_PS3_ @7133
    _ZN9__gnu_cxx14__alloc_traitsISaIN4giac10T_unsignedIxjEEEE8max_sizeERKS4_ @7134
    _ZN9__gnu_cxx14__alloc_traitsISaIN4giac10T_unsignedIxjEEEE9constructIS3_EEvRS4_PS3_RKT_ @7135
    _ZN9__gnu_cxx14__alloc_traitsISaIN4giac10T_unsignedIxyEEEE17_S_select_on_copyERKS4_ @7136
    _ZN9__gnu_cxx14__alloc_traitsISaIN4giac10T_unsignedIxyEEEE7destroyERS4_PS3_ @7137
    _ZN9__gnu_cxx14__alloc_traitsISaIN4giac10T_unsignedIxyEEEE8max_sizeERKS4_ @7138
    _ZN9__gnu_cxx14__alloc_traitsISaIN4giac10T_unsignedIxyEEEE9constructIS3_EEvRS4_PS3_RKT_ @7139
    _ZN9__gnu_cxx14__alloc_traitsISaIN4giac10lp_entry_tEEE17_S_select_on_copyERKS3_ @7140
    _ZN9__gnu_cxx14__alloc_traitsISaIN4giac10lp_entry_tEEE7destroyERS3_PS2_ @7141
    _ZN9__gnu_cxx14__alloc_traitsISaIN4giac10lp_entry_tEEE8max_sizeERKS3_ @7142
    _ZN9__gnu_cxx14__alloc_traitsISaIN4giac10lp_entry_tEEE9constructIS2_EEvRS3_PS2_RKT_ @7143
    _ZN9__gnu_cxx14__alloc_traitsISaIN4giac10sparse_genEEE10_S_on_swapERS3_S5_ @7144
    _ZN9__gnu_cxx14__alloc_traitsISaIN4giac10sparse_genEEE17_S_select_on_copyERKS3_ @7145
    _ZN9__gnu_cxx14__alloc_traitsISaIN4giac10sparse_genEEE7destroyERS3_PS2_ @7146
    _ZN9__gnu_cxx14__alloc_traitsISaIN4giac10sparse_genEEE8max_sizeERKS3_ @7147
    _ZN9__gnu_cxx14__alloc_traitsISaIN4giac10sparse_genEEE9constructIS2_EEvRS3_PS2_RKT_ @7148
    _ZN9__gnu_cxx14__alloc_traitsISaIN4giac11heap_tt_ptrEEE7destroyERS3_PS2_ @7149
    _ZN9__gnu_cxx14__alloc_traitsISaIN4giac11heap_tt_ptrEEE8max_sizeERKS3_ @7150
    _ZN9__gnu_cxx14__alloc_traitsISaIN4giac11heap_tt_ptrEEE9constructIS2_EEvRS3_PS2_RKT_ @7151
    _ZN9__gnu_cxx14__alloc_traitsISaIN4giac11logo_turtleEEE7destroyERS3_PS2_ @7152
    _ZN9__gnu_cxx14__alloc_traitsISaIN4giac11logo_turtleEEE8max_sizeERKS3_ @7153
    _ZN9__gnu_cxx14__alloc_traitsISaIN4giac11logo_turtleEEE9constructIS2_EEvRS3_PS2_RKT_ @7154
    _ZN9__gnu_cxx14__alloc_traitsISaIN4giac12coeffindex_tEEE10_S_on_swapERS3_S5_ @7155
    _ZN9__gnu_cxx14__alloc_traitsISaIN4giac12coeffindex_tEEE7destroyERS3_PS2_ @7156
    _ZN9__gnu_cxx14__alloc_traitsISaIN4giac12coeffindex_tEEE8max_sizeERKS3_ @7157
    _ZN9__gnu_cxx14__alloc_traitsISaIN4giac12coeffindex_tEEE9constructIS2_EEvRS3_PS2_RKT_ @7158
    _ZN9__gnu_cxx14__alloc_traitsISaIN4giac13nr_pointers_tEEE7destroyERS3_PS2_ @7159
    _ZN9__gnu_cxx14__alloc_traitsISaIN4giac13nr_pointers_tEEE8max_sizeERKS3_ @7160
    _ZN9__gnu_cxx14__alloc_traitsISaIN4giac13nr_pointers_tEEE9constructIS2_EEvRS3_PS2_RKT_ @7161
    _ZN9__gnu_cxx14__alloc_traitsISaIN4giac13user_functionEEE7destroyERS3_PS2_ @7162
    _ZN9__gnu_cxx14__alloc_traitsISaIN4giac13user_functionEEE8max_sizeERKS3_ @7163
    _ZN9__gnu_cxx14__alloc_traitsISaIN4giac13user_functionEEE9constructIS2_EEvRS3_PS2_RKT_ @7164
    _ZN9__gnu_cxx14__alloc_traitsISaIN4giac14indexed_stringEEE17_S_select_on_copyERKS3_ @7165
    _ZN9__gnu_cxx14__alloc_traitsISaIN4giac14indexed_stringEEE7destroyERS3_PS2_ @7166
    _ZN9__gnu_cxx14__alloc_traitsISaIN4giac14indexed_stringEEE8max_sizeERKS3_ @7167
    _ZN9__gnu_cxx14__alloc_traitsISaIN4giac14indexed_stringEEE9constructIS2_EEvRS3_PS2_RKT_ @7168
    _ZN9__gnu_cxx14__alloc_traitsISaIN4giac14sparse_elementEEE10_S_on_swapERS3_S5_ @7169
    _ZN9__gnu_cxx14__alloc_traitsISaIN4giac14sparse_elementEEE17_S_select_on_copyERKS3_ @7170
    _ZN9__gnu_cxx14__alloc_traitsISaIN4giac14sparse_elementEEE7destroyERS3_PS2_ @7171
    _ZN9__gnu_cxx14__alloc_traitsISaIN4giac14sparse_elementEEE8max_sizeERKS3_ @7172
    _ZN9__gnu_cxx14__alloc_traitsISaIN4giac14sparse_elementEEE9constructIS2_EEvRS3_PS2_RKT_ @7173
    _ZN9__gnu_cxx14__alloc_traitsISaIN4giac15dbgprint_vectorINS1_3genEEEEE10_S_on_swapERS5_S7_ @7174
    _ZN9__gnu_cxx14__alloc_traitsISaIN4giac15dbgprint_vectorINS1_3genEEEEE17_S_select_on_copyERKS5_ @7175
    _ZN9__gnu_cxx14__alloc_traitsISaIN4giac15dbgprint_vectorINS1_3genEEEEE7destroyERS5_PS4_ @7176
    _ZN9__gnu_cxx14__alloc_traitsISaIN4giac15dbgprint_vectorINS1_3genEEEEE8max_sizeERKS5_ @7177
    _ZN9__gnu_cxx14__alloc_traitsISaIN4giac15dbgprint_vectorINS1_3genEEEEE9constructIS4_EEvRS5_PS4_RKT_ @7178
    _ZN9__gnu_cxx14__alloc_traitsISaIN4giac15dbgprint_vectorINS1_6monomeEEEEE7destroyERS5_PS4_ @7179
    _ZN9__gnu_cxx14__alloc_traitsISaIN4giac15dbgprint_vectorINS1_6monomeEEEEE8max_sizeERKS5_ @7180
    _ZN9__gnu_cxx14__alloc_traitsISaIN4giac15dbgprint_vectorINS1_6monomeEEEEE9constructIS4_EEvRS5_PS4_RKT_ @7181
    _ZN9__gnu_cxx14__alloc_traitsISaIN4giac16localized_stringEEE17_S_select_on_copyERKS3_ @7182
    _ZN9__gnu_cxx14__alloc_traitsISaIN4giac16localized_stringEEE7destroyERS3_PS2_ @7183
    _ZN9__gnu_cxx14__alloc_traitsISaIN4giac16localized_stringEEE8max_sizeERKS3_ @7184
    _ZN9__gnu_cxx14__alloc_traitsISaIN4giac16localized_stringEEE9constructIS2_EEvRS3_PS2_RKT_ @7185
    _ZN9__gnu_cxx14__alloc_traitsISaIN4giac18unary_function_ptrEEE7destroyERS3_PS2_ @7186
    _ZN9__gnu_cxx14__alloc_traitsISaIN4giac18unary_function_ptrEEE8max_sizeERKS3_ @7187
    _ZN9__gnu_cxx14__alloc_traitsISaIN4giac18unary_function_ptrEEE9constructIS2_EEvRS3_PS2_RKT_ @7188
    _ZN9__gnu_cxx14__alloc_traitsISaIN4giac2pfINS1_3genEEEEE7destroyERS5_PS4_ @7189
    _ZN9__gnu_cxx14__alloc_traitsISaIN4giac2pfINS1_3genEEEEE8max_sizeERKS5_ @7190
    _ZN9__gnu_cxx14__alloc_traitsISaIN4giac2pfINS1_3genEEEEE9constructIS4_EEvRS5_PS4_RKT_ @7191
    _ZN9__gnu_cxx14__alloc_traitsISaIN4giac3genEEE10_S_on_swapERS3_S5_ @7192
    _ZN9__gnu_cxx14__alloc_traitsISaIN4giac3genEEE17_S_select_on_copyERKS3_ @7193
    _ZN9__gnu_cxx14__alloc_traitsISaIN4giac3genEEE7destroyERS3_PS2_ @7194
    _ZN9__gnu_cxx14__alloc_traitsISaIN4giac3genEEE8max_sizeERKS3_ @7195
    _ZN9__gnu_cxx14__alloc_traitsISaIN4giac3genEEE9constructIS2_EEvRS3_PS2_RKT_ @7196
    _ZN9__gnu_cxx14__alloc_traitsISaIN4giac3pf1EEE7destroyERS3_PS2_ @7197
    _ZN9__gnu_cxx14__alloc_traitsISaIN4giac3pf1EEE8max_sizeERKS3_ @7198
    _ZN9__gnu_cxx14__alloc_traitsISaIN4giac3pf1EEE9constructIS2_EEvRS3_PS2_RKT_ @7199
    _ZN9__gnu_cxx14__alloc_traitsISaIN4giac4aideEEE7destroyERS3_PS2_ @7200
    _ZN9__gnu_cxx14__alloc_traitsISaIN4giac4aideEEE8max_sizeERKS3_ @7201
    _ZN9__gnu_cxx14__alloc_traitsISaIN4giac4aideEEE9constructIS2_EEvRS3_PS2_RKT_ @7202
    _ZN9__gnu_cxx14__alloc_traitsISaIN4giac4xeffEEE7destroyERS3_PS2_ @7203
    _ZN9__gnu_cxx14__alloc_traitsISaIN4giac4xeffEEE8max_sizeERKS3_ @7204
    _ZN9__gnu_cxx14__alloc_traitsISaIN4giac4xeffEEE9constructIS2_EEvRS3_PS2_RKT_ @7205
    _ZN9__gnu_cxx14__alloc_traitsISaIN4giac5poly8EEE17_S_select_on_copyERKS3_ @7206
    _ZN9__gnu_cxx14__alloc_traitsISaIN4giac5poly8EEE7destroyERS3_PS2_ @7207
    _ZN9__gnu_cxx14__alloc_traitsISaIN4giac5poly8EEE8max_sizeERKS3_ @7208
    _ZN9__gnu_cxx14__alloc_traitsISaIN4giac5poly8EEE9constructIS2_EEvRS3_PS2_RKT_ @7209
    _ZN9__gnu_cxx14__alloc_traitsISaIN4giac6axbinvEEE7destroyERS3_PS2_ @7210
    _ZN9__gnu_cxx14__alloc_traitsISaIN4giac6axbinvEEE8max_sizeERKS3_ @7211
    _ZN9__gnu_cxx14__alloc_traitsISaIN4giac6axbinvEEE9constructIS2_EEvRS3_PS2_RKT_ @7212
    _ZN9__gnu_cxx14__alloc_traitsISaIN4giac6heap_tEEE7destroyERS3_PS2_ @7213
    _ZN9__gnu_cxx14__alloc_traitsISaIN4giac6heap_tEEE8max_sizeERKS3_ @7214
    _ZN9__gnu_cxx14__alloc_traitsISaIN4giac6heap_tEEE9constructIS2_EEvRS3_PS2_RKT_ @7215
    _ZN9__gnu_cxx14__alloc_traitsISaIN4giac6info_tEEE7destroyERS3_PS2_ @7216
    _ZN9__gnu_cxx14__alloc_traitsISaIN4giac6info_tEEE8max_sizeERKS3_ @7217
    _ZN9__gnu_cxx14__alloc_traitsISaIN4giac6info_tEEE9constructIS2_EEvRS3_PS2_RKT_ @7218
    _ZN9__gnu_cxx14__alloc_traitsISaIN4giac6line_tEEE17_S_select_on_copyERKS3_ @7219
    _ZN9__gnu_cxx14__alloc_traitsISaIN4giac6monomeEEE17_S_select_on_copyERKS3_ @7220
    _ZN9__gnu_cxx14__alloc_traitsISaIN4giac6monomeEEE7destroyERS3_PS2_ @7221
    _ZN9__gnu_cxx14__alloc_traitsISaIN4giac6monomeEEE8max_sizeERKS3_ @7222
    _ZN9__gnu_cxx14__alloc_traitsISaIN4giac6monomeEEE9constructIS2_EEvRS3_PS2_RKT_ @7223
    _ZN9__gnu_cxx14__alloc_traitsISaIN4giac6tdeg_tEEE10_S_on_swapERS3_S5_ @7224
    _ZN9__gnu_cxx14__alloc_traitsISaIN4giac6tdeg_tEEE17_S_select_on_copyERKS3_ @7225
    _ZN9__gnu_cxx14__alloc_traitsISaIN4giac6tdeg_tEEE7destroyERS3_PS2_ @7226
    _ZN9__gnu_cxx14__alloc_traitsISaIN4giac6tdeg_tEEE8max_sizeERKS3_ @7227
    _ZN9__gnu_cxx14__alloc_traitsISaIN4giac6tdeg_tEEE9constructIS2_EEvRS3_PS2_RKT_ @7228
    _ZN9__gnu_cxx14__alloc_traitsISaIN4giac6tensorINS1_3genEEEEE10_S_on_swapERS5_S7_ @7229
    _ZN9__gnu_cxx14__alloc_traitsISaIN4giac6tensorINS1_3genEEEEE17_S_select_on_copyERKS5_ @7230
    _ZN9__gnu_cxx14__alloc_traitsISaIN4giac6tensorINS1_3genEEEEE7destroyERS5_PS4_ @7231
    _ZN9__gnu_cxx14__alloc_traitsISaIN4giac6tensorINS1_3genEEEEE8max_sizeERKS5_ @7232
    _ZN9__gnu_cxx14__alloc_traitsISaIN4giac6tensorINS1_3genEEEEE9constructIS4_EEvRS5_PS4_RKT_ @7233
    _ZN9__gnu_cxx14__alloc_traitsISaIN4giac7basis_tEEE7destroyERS3_PS2_ @7234
    _ZN9__gnu_cxx14__alloc_traitsISaIN4giac7basis_tEEE8max_sizeERKS3_ @7235
    _ZN9__gnu_cxx14__alloc_traitsISaIN4giac7basis_tEEE9constructIS2_EEvRS3_PS2_RKT_ @7236
    _ZN9__gnu_cxx14__alloc_traitsISaIN4giac7facteurINS1_15dbgprint_vectorINS1_3genEEEEEEE7destroyERS7_PS6_ @7237
    _ZN9__gnu_cxx14__alloc_traitsISaIN4giac7facteurINS1_15dbgprint_vectorINS1_3genEEEEEEE8max_sizeERKS7_ @7238
    _ZN9__gnu_cxx14__alloc_traitsISaIN4giac7facteurINS1_15dbgprint_vectorINS1_3genEEEEEEE9constructIS6_EEvRS7_PS6_RKT_ @7239
    _ZN9__gnu_cxx14__alloc_traitsISaIN4giac7facteurINS1_6tensorINS1_3genEEEEEEE10_S_on_swapERS7_S9_ @7240
    _ZN9__gnu_cxx14__alloc_traitsISaIN4giac7facteurINS1_6tensorINS1_3genEEEEEEE17_S_select_on_copyERKS7_ @7241
    _ZN9__gnu_cxx14__alloc_traitsISaIN4giac7facteurINS1_6tensorINS1_3genEEEEEEE7destroyERS7_PS6_ @7242
    _ZN9__gnu_cxx14__alloc_traitsISaIN4giac7facteurINS1_6tensorINS1_3genEEEEEEE8max_sizeERKS7_ @7243
    _ZN9__gnu_cxx14__alloc_traitsISaIN4giac7facteurINS1_6tensorINS1_3genEEEEEEE9constructIS6_EEvRS7_PS6_RKT_ @7244
    _ZN9__gnu_cxx14__alloc_traitsISaIN4giac7heap_ttEEE7destroyERS3_PS2_ @7245
    _ZN9__gnu_cxx14__alloc_traitsISaIN4giac7heap_ttEEE8max_sizeERKS3_ @7246
    _ZN9__gnu_cxx14__alloc_traitsISaIN4giac7heap_ttEEE9constructIS2_EEvRS3_PS2_RKT_ @7247
    _ZN9__gnu_cxx14__alloc_traitsISaIN4giac7index_mEEE7destroyERS3_PS2_ @7248
    _ZN9__gnu_cxx14__alloc_traitsISaIN4giac7index_mEEE8max_sizeERKS3_ @7249
    _ZN9__gnu_cxx14__alloc_traitsISaIN4giac7index_mEEE9constructIS2_EEvRS3_PS2_RKT_ @7250
    _ZN9__gnu_cxx14__alloc_traitsISaIN4giac7nfactorEEE7destroyERS3_PS2_ @7251
    _ZN9__gnu_cxx14__alloc_traitsISaIN4giac7nfactorEEE8max_sizeERKS3_ @7252
    _ZN9__gnu_cxx14__alloc_traitsISaIN4giac7nfactorEEE9constructIS2_EEvRS3_PS2_RKT_ @7253
    _ZN9__gnu_cxx14__alloc_traitsISaIN4giac7nr_progEEE7destroyERS3_PS2_ @7254
    _ZN9__gnu_cxx14__alloc_traitsISaIN4giac7nr_progEEE8max_sizeERKS3_ @7255
    _ZN9__gnu_cxx14__alloc_traitsISaIN4giac7nr_progEEE9constructIS2_EEvRS3_PS2_RKT_ @7256
    _ZN9__gnu_cxx14__alloc_traitsISaIN4giac7polymodEEE10_S_on_swapERS3_S5_ @7257
    _ZN9__gnu_cxx14__alloc_traitsISaIN4giac7polymodEEE17_S_select_on_copyERKS3_ @7258
    _ZN9__gnu_cxx14__alloc_traitsISaIN4giac7polymodEEE7destroyERS3_PS2_ @7259
    _ZN9__gnu_cxx14__alloc_traitsISaIN4giac7polymodEEE8max_sizeERKS3_ @7260
    _ZN9__gnu_cxx14__alloc_traitsISaIN4giac7polymodEEE9constructIS2_EEvRS3_PS2_RKT_ @7261
    _ZN9__gnu_cxx14__alloc_traitsISaIN4giac7zinfo_tEEE7destroyERS3_PS2_ @7262
    _ZN9__gnu_cxx14__alloc_traitsISaIN4giac7zinfo_tEEE8max_sizeERKS3_ @7263
    _ZN9__gnu_cxx14__alloc_traitsISaIN4giac7zinfo_tEEE9constructIS2_EEvRS3_PS2_RKT_ @7264
    _ZN9__gnu_cxx14__alloc_traitsISaIN4giac8monomialINS1_3genEEEEE10_S_on_swapERS5_S7_ @7265
    _ZN9__gnu_cxx14__alloc_traitsISaIN4giac8monomialINS1_3genEEEEE17_S_select_on_copyERKS5_ @7266
    _ZN9__gnu_cxx14__alloc_traitsISaIN4giac8monomialINS1_3genEEEEE7destroyERS5_PS4_ @7267
    _ZN9__gnu_cxx14__alloc_traitsISaIN4giac8monomialINS1_3genEEEEE8max_sizeERKS5_ @7268
    _ZN9__gnu_cxx14__alloc_traitsISaIN4giac8monomialINS1_3genEEEEE9constructIS4_EEvRS5_PS4_RKT_ @7269
    _ZN9__gnu_cxx14__alloc_traitsISaIN4giac8sparse32EEE10_S_on_swapERS3_S5_ @7270
    _ZN9__gnu_cxx14__alloc_traitsISaIN4giac8sparse32EEE17_S_select_on_copyERKS3_ @7271
    _ZN9__gnu_cxx14__alloc_traitsISaIN4giac8sparse32EEE7destroyERS3_PS2_ @7272
    _ZN9__gnu_cxx14__alloc_traitsISaIN4giac8sparse32EEE8max_sizeERKS3_ @7273
    _ZN9__gnu_cxx14__alloc_traitsISaIN4giac8sparse32EEE9constructIS2_EEvRS3_PS2_RKT_ @7274
    _ZN9__gnu_cxx14__alloc_traitsISaIN4giac8zpolymodEEE10_S_on_swapERS3_S5_ @7275
    _ZN9__gnu_cxx14__alloc_traitsISaIN4giac8zpolymodEEE17_S_select_on_copyERKS3_ @7276
    _ZN9__gnu_cxx14__alloc_traitsISaIN4giac8zpolymodEEE7destroyERS3_PS2_ @7277
    _ZN9__gnu_cxx14__alloc_traitsISaIN4giac8zpolymodEEE8max_sizeERKS3_ @7278
    _ZN9__gnu_cxx14__alloc_traitsISaIN4giac8zpolymodEEE9constructIS2_EEvRS3_PS2_RKT_ @7279
    _ZN9__gnu_cxx14__alloc_traitsISaIN4giac9vectpoly8EEE7destroyERS3_PS2_ @7280
    _ZN9__gnu_cxx14__alloc_traitsISaIN4giac9vectpoly8EEE8max_sizeERKS3_ @7281
    _ZN9__gnu_cxx14__alloc_traitsISaIN4giac9vectpoly8EEE9constructIS2_EEvRS3_PS2_RKT_ @7282
    _ZN9__gnu_cxx14__alloc_traitsISaIPFN4giac3genERKS2_PKNS1_7contextEEEE7destroyERSA_PS9_ @7283
    _ZN9__gnu_cxx14__alloc_traitsISaIPFN4giac3genERKS2_PKNS1_7contextEEEE8max_sizeERKSA_ @7284
    _ZN9__gnu_cxx14__alloc_traitsISaIPFN4giac3genERKS2_PKNS1_7contextEEEE9constructIS9_EEvRSA_PS9_RKT_ @7285
    _ZN9__gnu_cxx14__alloc_traitsISaIPKN4giac18unary_function_ptrEEE7destroyERS5_PS4_ @7286
    _ZN9__gnu_cxx14__alloc_traitsISaIPKN4giac18unary_function_ptrEEE8max_sizeERKS5_ @7287
    _ZN9__gnu_cxx14__alloc_traitsISaIPKN4giac18unary_function_ptrEEE9constructIS4_EEvRS5_PS4_RKT_ @7288
    _ZN9__gnu_cxx14__alloc_traitsISaIPKcEE7destroyERS3_PS2_ @7289
    _ZN9__gnu_cxx14__alloc_traitsISaIPKcEE8max_sizeERKS3_ @7290
    _ZN9__gnu_cxx14__alloc_traitsISaIPKcEE9constructIS2_EEvRS3_PS2_RKT_ @7291
    _ZN9__gnu_cxx14__alloc_traitsISaIPN4giac7contextEEE7destroyERS4_PS3_ @7292
    _ZN9__gnu_cxx14__alloc_traitsISaIPN4giac7contextEEE8max_sizeERKS4_ @7293
    _ZN9__gnu_cxx14__alloc_traitsISaIPN4giac7contextEEE9constructIS3_EEvRS4_PS3_RKT_ @7294
    _ZN9__gnu_cxx14__alloc_traitsISaISsEE17_S_select_on_copyERKS1_ @7295
    _ZN9__gnu_cxx14__alloc_traitsISaISsEE7destroyERS1_PSs @7296
    _ZN9__gnu_cxx14__alloc_traitsISaISsEE8max_sizeERKS1_ @7297
    _ZN9__gnu_cxx14__alloc_traitsISaISsEE9constructISsEEvRS1_PSsRKT_ @7298
    _ZN9__gnu_cxx14__alloc_traitsISaISt4pairIiiEEE7destroyERS3_PS2_ @7299
    _ZN9__gnu_cxx14__alloc_traitsISaISt4pairIiiEEE8max_sizeERKS3_ @7300
    _ZN9__gnu_cxx14__alloc_traitsISaISt4pairIiiEEE9constructIS2_EEvRS3_PS2_RKT_ @7301
    _ZN9__gnu_cxx14__alloc_traitsISaISt4pairIjjEEE10_S_on_swapERS3_S5_ @7302
    _ZN9__gnu_cxx14__alloc_traitsISaISt4pairIjjEEE17_S_select_on_copyERKS3_ @7303
    _ZN9__gnu_cxx14__alloc_traitsISaISt4pairIjjEEE7destroyERS3_PS2_ @7304
    _ZN9__gnu_cxx14__alloc_traitsISaISt4pairIjjEEE8max_sizeERKS3_ @7305
    _ZN9__gnu_cxx14__alloc_traitsISaISt4pairIjjEEE9constructIS2_EEvRS3_PS2_RKT_ @7306
    _ZN9__gnu_cxx14__alloc_traitsISaISt6vectorIN4giac10T_unsignedIS1_IiSaIiEEjEESaIS6_EEEE17_S_select_on_copyERKS9_ @7307
    _ZN9__gnu_cxx14__alloc_traitsISaISt6vectorIN4giac10T_unsignedIS1_IiSaIiEEjEESaIS6_EEEE7destroyERS9_PS8_ @7308
    _ZN9__gnu_cxx14__alloc_traitsISaISt6vectorIN4giac10T_unsignedIS1_IiSaIiEEjEESaIS6_EEEE8max_sizeERKS9_ @7309
    _ZN9__gnu_cxx14__alloc_traitsISaISt6vectorIN4giac10T_unsignedIS1_IiSaIiEEjEESaIS6_EEEE9constructIS8_EEvRS9_PS8_RKT_ @7310
    _ZN9__gnu_cxx14__alloc_traitsISaISt6vectorIN4giac10T_unsignedIijEESaIS4_EEEE7destroyERS7_PS6_ @7311
    _ZN9__gnu_cxx14__alloc_traitsISaISt6vectorIN4giac10T_unsignedIijEESaIS4_EEEE8max_sizeERKS7_ @7312
    _ZN9__gnu_cxx14__alloc_traitsISaISt6vectorIN4giac10T_unsignedIijEESaIS4_EEEE9constructIS6_EEvRS7_PS6_RKT_ @7313
    _ZN9__gnu_cxx14__alloc_traitsISaISt6vectorIN4giac10lp_entry_tESaIS3_EEEE8max_sizeERKS6_ @7314
    _ZN9__gnu_cxx14__alloc_traitsISaISt6vectorIN4giac10sparse_genESaIS3_EEEE10_S_on_swapERS6_S8_ @7315
    _ZN9__gnu_cxx14__alloc_traitsISaISt6vectorIN4giac10sparse_genESaIS3_EEEE7destroyERS6_PS5_ @7316
    _ZN9__gnu_cxx14__alloc_traitsISaISt6vectorIN4giac10sparse_genESaIS3_EEEE8max_sizeERKS6_ @7317
    _ZN9__gnu_cxx14__alloc_traitsISaISt6vectorIN4giac10sparse_genESaIS3_EEEE9constructIS5_EEvRS6_PS5_RKT_ @7318
    _ZN9__gnu_cxx14__alloc_traitsISaISt6vectorIN4giac14sparse_elementESaIS3_EEEE10_S_on_swapERS6_S8_ @7319
    _ZN9__gnu_cxx14__alloc_traitsISaISt6vectorIN4giac14sparse_elementESaIS3_EEEE7destroyERS6_PS5_ @7320
    _ZN9__gnu_cxx14__alloc_traitsISaISt6vectorIN4giac14sparse_elementESaIS3_EEEE8max_sizeERKS6_ @7321
    _ZN9__gnu_cxx14__alloc_traitsISaISt6vectorIN4giac14sparse_elementESaIS3_EEEE9constructIS5_EEvRS6_PS5_RKT_ @7322
    _ZN9__gnu_cxx14__alloc_traitsISaISt6vectorIN4giac6tdeg_tESaIS3_EEEE10_S_on_swapERS6_S8_ @7323
    _ZN9__gnu_cxx14__alloc_traitsISaISt6vectorIN4giac6tdeg_tESaIS3_EEEE17_S_select_on_copyERKS6_ @7324
    _ZN9__gnu_cxx14__alloc_traitsISaISt6vectorIN4giac6tdeg_tESaIS3_EEEE8max_sizeERKS6_ @7325
    _ZN9__gnu_cxx14__alloc_traitsISaISt6vectorIN4giac8sparse32ESaIS3_EEEE10_S_on_swapERS6_S8_ @7326
    _ZN9__gnu_cxx14__alloc_traitsISaISt6vectorIN4giac8sparse32ESaIS3_EEEE7destroyERS6_PS5_ @7327
    _ZN9__gnu_cxx14__alloc_traitsISaISt6vectorIN4giac8sparse32ESaIS3_EEEE8max_sizeERKS6_ @7328
    _ZN9__gnu_cxx14__alloc_traitsISaISt6vectorIN4giac8sparse32ESaIS3_EEEE9constructIS5_EEvRS6_PS5_RKT_ @7329
    _ZN9__gnu_cxx14__alloc_traitsISaISt6vectorISt7complexIdESaIS3_EEEE8max_sizeERKS6_ @7330
    _ZN9__gnu_cxx14__alloc_traitsISaISt6vectorIdSaIdEEEE17_S_select_on_copyERKS4_ @7331
    _ZN9__gnu_cxx14__alloc_traitsISaISt6vectorIdSaIdEEEE7destroyERS4_PS3_ @7332
    _ZN9__gnu_cxx14__alloc_traitsISaISt6vectorIdSaIdEEEE8max_sizeERKS4_ @7333
    _ZN9__gnu_cxx14__alloc_traitsISaISt6vectorIdSaIdEEEE9constructIS3_EEvRS4_PS3_RKT_ @7334
    _ZN9__gnu_cxx14__alloc_traitsISaISt6vectorIiSaIiEEEE10_S_on_swapERS4_S6_ @7335
    _ZN9__gnu_cxx14__alloc_traitsISaISt6vectorIiSaIiEEEE17_S_select_on_copyERKS4_ @7336
    _ZN9__gnu_cxx14__alloc_traitsISaISt6vectorIiSaIiEEEE7destroyERS4_PS3_ @7337
    _ZN9__gnu_cxx14__alloc_traitsISaISt6vectorIiSaIiEEEE8max_sizeERKS4_ @7338
    _ZN9__gnu_cxx14__alloc_traitsISaISt6vectorIiSaIiEEEE9constructIS3_EEvRS4_PS3_RKT_ @7339
    _ZN9__gnu_cxx14__alloc_traitsISaISt6vectorIjSaIjEEEE10_S_on_swapERS4_S6_ @7340
    _ZN9__gnu_cxx14__alloc_traitsISaISt6vectorIjSaIjEEEE7destroyERS4_PS3_ @7341
    _ZN9__gnu_cxx14__alloc_traitsISaISt6vectorIjSaIjEEEE8max_sizeERKS4_ @7342
    _ZN9__gnu_cxx14__alloc_traitsISaISt6vectorIjSaIjEEEE9constructIS3_EEvRS4_PS3_RKT_ @7343
    _ZN9__gnu_cxx14__alloc_traitsISaISt6vectorItSaItEEEE10_S_on_swapERS4_S6_ @7344
    _ZN9__gnu_cxx14__alloc_traitsISaISt6vectorItSaItEEEE7destroyERS4_PS3_ @7345
    _ZN9__gnu_cxx14__alloc_traitsISaISt6vectorItSaItEEEE8max_sizeERKS4_ @7346
    _ZN9__gnu_cxx14__alloc_traitsISaISt6vectorItSaItEEEE9constructIS3_EEvRS4_PS3_RKT_ @7347
    _ZN9__gnu_cxx14__alloc_traitsISaISt7complexIdEEE10_S_on_swapERS3_S5_ @7348
    _ZN9__gnu_cxx14__alloc_traitsISaISt7complexIdEEE17_S_select_on_copyERKS3_ @7349
    _ZN9__gnu_cxx14__alloc_traitsISaISt7complexIdEEE7destroyERS3_PS2_ @7350
    _ZN9__gnu_cxx14__alloc_traitsISaISt7complexIdEEE8max_sizeERKS3_ @7351
    _ZN9__gnu_cxx14__alloc_traitsISaISt7complexIdEEE9constructIS2_EEvRS3_PS2_RKT_ @7352
    _ZN9__gnu_cxx14__alloc_traitsISaIcEE17_S_select_on_copyERKS1_ @7353
    _ZN9__gnu_cxx14__alloc_traitsISaIdEE10_S_on_swapERS1_S3_ @7354
    _ZN9__gnu_cxx14__alloc_traitsISaIdEE17_S_select_on_copyERKS1_ @7355
    _ZN9__gnu_cxx14__alloc_traitsISaIdEE7destroyERS1_Pd @7356
    _ZN9__gnu_cxx14__alloc_traitsISaIdEE8max_sizeERKS1_ @7357
    _ZN9__gnu_cxx14__alloc_traitsISaIdEE9constructIdEEvRS1_PdRKT_ @7358
    _ZN9__gnu_cxx14__alloc_traitsISaIiEE10_S_on_swapERS1_S3_ @7359
    _ZN9__gnu_cxx14__alloc_traitsISaIiEE17_S_select_on_copyERKS1_ @7360
    _ZN9__gnu_cxx14__alloc_traitsISaIiEE7destroyERS1_Pi @7361
    _ZN9__gnu_cxx14__alloc_traitsISaIiEE8max_sizeERKS1_ @7362
    _ZN9__gnu_cxx14__alloc_traitsISaIiEE9constructIiEEvRS1_PiRKT_ @7363
    _ZN9__gnu_cxx14__alloc_traitsISaIjEE10_S_on_swapERS1_S3_ @7364
    _ZN9__gnu_cxx14__alloc_traitsISaIjEE17_S_select_on_copyERKS1_ @7365
    _ZN9__gnu_cxx14__alloc_traitsISaIjEE7destroyERS1_Pj @7366
    _ZN9__gnu_cxx14__alloc_traitsISaIjEE8max_sizeERKS1_ @7367
    _ZN9__gnu_cxx14__alloc_traitsISaIjEE9constructIjEEvRS1_PjRKT_ @7368
    _ZN9__gnu_cxx14__alloc_traitsISaIlEE8max_sizeERKS1_ @7369
    _ZN9__gnu_cxx14__alloc_traitsISaIsEE10_S_on_swapERS1_S3_ @7370
    _ZN9__gnu_cxx14__alloc_traitsISaIsEE17_S_select_on_copyERKS1_ @7371
    _ZN9__gnu_cxx14__alloc_traitsISaIsEE7destroyERS1_Ps @7372
    _ZN9__gnu_cxx14__alloc_traitsISaIsEE8max_sizeERKS1_ @7373
    _ZN9__gnu_cxx14__alloc_traitsISaIsEE9constructIsEEvRS1_PsRKT_ @7374
    _ZN9__gnu_cxx14__alloc_traitsISaItEE10_S_on_swapERS1_S3_ @7375
    _ZN9__gnu_cxx14__alloc_traitsISaItEE17_S_select_on_copyERKS1_ @7376
    _ZN9__gnu_cxx14__alloc_traitsISaItEE7destroyERS1_Pt @7377
    _ZN9__gnu_cxx14__alloc_traitsISaItEE8max_sizeERKS1_ @7378
    _ZN9__gnu_cxx14__alloc_traitsISaItEE9constructItEEvRS1_PtRKT_ @7379
    _ZN9__gnu_cxx14__alloc_traitsISaIxEE7destroyERS1_Px @7380
    _ZN9__gnu_cxx14__alloc_traitsISaIxEE8max_sizeERKS1_ @7381
    _ZN9__gnu_cxx14__alloc_traitsISaIxEE9constructIxEEvRS1_PxRKT_ @7382
    _ZN9__gnu_cxx14__alloc_traitsISaIyEE17_S_select_on_copyERKS1_ @7383
    _ZN9__gnu_cxx17__normal_iteratorIPKN4giac10T_unsignedINS1_15dbgprint_vectorINS1_3genEEEjEESt6vectorIS6_SaIS6_EEEC1ERKS8_ @7384
    _ZN9__gnu_cxx17__normal_iteratorIPKN4giac10T_unsignedINS1_15dbgprint_vectorINS1_3genEEEjEESt6vectorIS6_SaIS6_EEEC1Ev @7385
    _ZN9__gnu_cxx17__normal_iteratorIPKN4giac10T_unsignedINS1_15dbgprint_vectorINS1_3genEEEjEESt6vectorIS6_SaIS6_EEEC1IPS6_EERKNS0_IT_NS_11__enable_ifIXsrSt10__are_sameISF_SE_E7__valueESB_E6__typeEEE @7386
    _ZN9__gnu_cxx17__normal_iteratorIPKN4giac10T_unsignedINS1_15dbgprint_vectorINS1_3genEEEjEESt6vectorIS6_SaIS6_EEEpLERKi @7387
    _ZN9__gnu_cxx17__normal_iteratorIPKN4giac10T_unsignedINS1_15dbgprint_vectorINS1_3genEEEjEESt6vectorIS6_SaIS6_EEEppEv @7388
    _ZN9__gnu_cxx17__normal_iteratorIPKN4giac10T_unsignedINS1_3genENS1_6tdeg_tEEESt6vectorIS5_SaIS5_EEEC1ERKS7_ @7389
    _ZN9__gnu_cxx17__normal_iteratorIPKN4giac10T_unsignedINS1_3genENS1_6tdeg_tEEESt6vectorIS5_SaIS5_EEEC1Ev @7390
    _ZN9__gnu_cxx17__normal_iteratorIPKN4giac10T_unsignedINS1_3genENS1_6tdeg_tEEESt6vectorIS5_SaIS5_EEEC1IPS5_EERKNS0_IT_NS_11__enable_ifIXsrSt10__are_sameISE_SD_E7__valueESA_E6__typeEEE @7391
    _ZN9__gnu_cxx17__normal_iteratorIPKN4giac10T_unsignedINS1_3genENS1_6tdeg_tEEESt6vectorIS5_SaIS5_EEEppEv @7392
    _ZN9__gnu_cxx17__normal_iteratorIPKN4giac10T_unsignedINS1_3genEjEESt6vectorIS4_SaIS4_EEEC1ERKS6_ @7393
    _ZN9__gnu_cxx17__normal_iteratorIPKN4giac10T_unsignedINS1_3genEjEESt6vectorIS4_SaIS4_EEEC1Ev @7394
    _ZN9__gnu_cxx17__normal_iteratorIPKN4giac10T_unsignedINS1_3genEjEESt6vectorIS4_SaIS4_EEEC1IPS4_EERKNS0_IT_NS_11__enable_ifIXsrSt10__are_sameISD_SC_E7__valueES9_E6__typeEEE @7395
    _ZN9__gnu_cxx17__normal_iteratorIPKN4giac10T_unsignedINS1_3genEjEESt6vectorIS4_SaIS4_EEEmmEv @7396
    _ZN9__gnu_cxx17__normal_iteratorIPKN4giac10T_unsignedINS1_3genEjEESt6vectorIS4_SaIS4_EEEpLERKi @7397
    _ZN9__gnu_cxx17__normal_iteratorIPKN4giac10T_unsignedINS1_3genEjEESt6vectorIS4_SaIS4_EEEppEv @7398
    _ZN9__gnu_cxx17__normal_iteratorIPKN4giac10T_unsignedINS1_3genEyEESt6vectorIS4_SaIS4_EEEC1ERKS6_ @7399
    _ZN9__gnu_cxx17__normal_iteratorIPKN4giac10T_unsignedINS1_3genEyEESt6vectorIS4_SaIS4_EEEC1Ev @7400
    _ZN9__gnu_cxx17__normal_iteratorIPKN4giac10T_unsignedINS1_3genEyEESt6vectorIS4_SaIS4_EEEmmEv @7401
    _ZN9__gnu_cxx17__normal_iteratorIPKN4giac10T_unsignedINS1_3genEyEESt6vectorIS4_SaIS4_EEEppEv @7402
    _ZN9__gnu_cxx17__normal_iteratorIPKN4giac10T_unsignedISt6vectorIiSaIiEEjEES3_IS6_SaIS6_EEEC1ERKS8_ @7403
    _ZN9__gnu_cxx17__normal_iteratorIPKN4giac10T_unsignedISt6vectorIiSaIiEEjEES3_IS6_SaIS6_EEEC1Ev @7404
    _ZN9__gnu_cxx17__normal_iteratorIPKN4giac10T_unsignedISt6vectorIiSaIiEEjEES3_IS6_SaIS6_EEEC1IPS6_EERKNS0_IT_NS_11__enable_ifIXsrSt10__are_sameISE_SD_E7__valueESA_E6__typeEEE @7405
    _ZN9__gnu_cxx17__normal_iteratorIPKN4giac10T_unsignedISt6vectorIiSaIiEEjEES3_IS6_SaIS6_EEEmmEv @7406
    _ZN9__gnu_cxx17__normal_iteratorIPKN4giac10T_unsignedISt6vectorIiSaIiEEjEES3_IS6_SaIS6_EEEpLERKi @7407
    _ZN9__gnu_cxx17__normal_iteratorIPKN4giac10T_unsignedISt6vectorIiSaIiEEjEES3_IS6_SaIS6_EEEppEv @7408
    _ZN9__gnu_cxx17__normal_iteratorIPKN4giac10T_unsignedIdjEESt6vectorIS3_SaIS3_EEEC1ERKS5_ @7409
    _ZN9__gnu_cxx17__normal_iteratorIPKN4giac10T_unsignedIdjEESt6vectorIS3_SaIS3_EEEC1Ev @7410
    _ZN9__gnu_cxx17__normal_iteratorIPKN4giac10T_unsignedIdjEESt6vectorIS3_SaIS3_EEEmmEv @7411
    _ZN9__gnu_cxx17__normal_iteratorIPKN4giac10T_unsignedIdjEESt6vectorIS3_SaIS3_EEEppEv @7412
    _ZN9__gnu_cxx17__normal_iteratorIPKN4giac10T_unsignedIdyEESt6vectorIS3_SaIS3_EEEC1ERKS5_ @7413
    _ZN9__gnu_cxx17__normal_iteratorIPKN4giac10T_unsignedIdyEESt6vectorIS3_SaIS3_EEEC1Ev @7414
    _ZN9__gnu_cxx17__normal_iteratorIPKN4giac10T_unsignedIdyEESt6vectorIS3_SaIS3_EEEmmEv @7415
    _ZN9__gnu_cxx17__normal_iteratorIPKN4giac10T_unsignedIdyEESt6vectorIS3_SaIS3_EEEppEv @7416
    _ZN9__gnu_cxx17__normal_iteratorIPKN4giac10T_unsignedIiNS1_6tdeg_tEEESt6vectorIS4_SaIS4_EEEC1ERKS6_ @7417
    _ZN9__gnu_cxx17__normal_iteratorIPKN4giac10T_unsignedIiNS1_6tdeg_tEEESt6vectorIS4_SaIS4_EEEC1Ev @7418
    _ZN9__gnu_cxx17__normal_iteratorIPKN4giac10T_unsignedIiNS1_6tdeg_tEEESt6vectorIS4_SaIS4_EEEC1IPS4_EERKNS0_IT_NS_11__enable_ifIXsrSt10__are_sameISD_SC_E7__valueES9_E6__typeEEE @7419
    _ZN9__gnu_cxx17__normal_iteratorIPKN4giac10T_unsignedIiNS1_6tdeg_tEEESt6vectorIS4_SaIS4_EEEppEv @7420
    _ZN9__gnu_cxx17__normal_iteratorIPKN4giac10T_unsignedIijEESt6vectorIS3_SaIS3_EEEC1ERKS5_ @7421
    _ZN9__gnu_cxx17__normal_iteratorIPKN4giac10T_unsignedIijEESt6vectorIS3_SaIS3_EEEC1Ev @7422
    _ZN9__gnu_cxx17__normal_iteratorIPKN4giac10T_unsignedIijEESt6vectorIS3_SaIS3_EEEC1IPS3_EERKNS0_IT_NS_11__enable_ifIXsrSt10__are_sameISC_SB_E7__valueES8_E6__typeEEE @7423
    _ZN9__gnu_cxx17__normal_iteratorIPKN4giac10T_unsignedIijEESt6vectorIS3_SaIS3_EEEmmEv @7424
    _ZN9__gnu_cxx17__normal_iteratorIPKN4giac10T_unsignedIijEESt6vectorIS3_SaIS3_EEEpLERKi @7425
    _ZN9__gnu_cxx17__normal_iteratorIPKN4giac10T_unsignedIijEESt6vectorIS3_SaIS3_EEEppEv @7426
    _ZN9__gnu_cxx17__normal_iteratorIPKN4giac10T_unsignedIiyEESt6vectorIS3_SaIS3_EEEC1ERKS5_ @7427
    _ZN9__gnu_cxx17__normal_iteratorIPKN4giac10T_unsignedIiyEESt6vectorIS3_SaIS3_EEEC1Ev @7428
    _ZN9__gnu_cxx17__normal_iteratorIPKN4giac10T_unsignedIiyEESt6vectorIS3_SaIS3_EEEC1IPS3_EERKNS0_IT_NS_11__enable_ifIXsrSt10__are_sameISC_SB_E7__valueES8_E6__typeEEE @7429
    _ZN9__gnu_cxx17__normal_iteratorIPKN4giac10T_unsignedIiyEESt6vectorIS3_SaIS3_EEEppEv @7430
    _ZN9__gnu_cxx17__normal_iteratorIPKN4giac10T_unsignedIxjEESt6vectorIS3_SaIS3_EEEC1ERKS5_ @7431
    _ZN9__gnu_cxx17__normal_iteratorIPKN4giac10T_unsignedIxjEESt6vectorIS3_SaIS3_EEEC1Ev @7432
    _ZN9__gnu_cxx17__normal_iteratorIPKN4giac10T_unsignedIxjEESt6vectorIS3_SaIS3_EEEC1IPS3_EERKNS0_IT_NS_11__enable_ifIXsrSt10__are_sameISC_SB_E7__valueES8_E6__typeEEE @7433
    _ZN9__gnu_cxx17__normal_iteratorIPKN4giac10T_unsignedIxjEESt6vectorIS3_SaIS3_EEEmmEv @7434
    _ZN9__gnu_cxx17__normal_iteratorIPKN4giac10T_unsignedIxjEESt6vectorIS3_SaIS3_EEEppEv @7435
    _ZN9__gnu_cxx17__normal_iteratorIPKN4giac10T_unsignedIxyEESt6vectorIS3_SaIS3_EEEC1ERKS5_ @7436
    _ZN9__gnu_cxx17__normal_iteratorIPKN4giac10T_unsignedIxyEESt6vectorIS3_SaIS3_EEEC1Ev @7437
    _ZN9__gnu_cxx17__normal_iteratorIPKN4giac10T_unsignedIxyEESt6vectorIS3_SaIS3_EEEC1IPS3_EERKNS0_IT_NS_11__enable_ifIXsrSt10__are_sameISC_SB_E7__valueES8_E6__typeEEE @7438
    _ZN9__gnu_cxx17__normal_iteratorIPKN4giac10T_unsignedIxyEESt6vectorIS3_SaIS3_EEEmmEv @7439
    _ZN9__gnu_cxx17__normal_iteratorIPKN4giac10T_unsignedIxyEESt6vectorIS3_SaIS3_EEEppEv @7440
    _ZN9__gnu_cxx17__normal_iteratorIPKN4giac10lp_entry_tESt6vectorIS2_SaIS2_EEEC1ERKS4_ @7441
    _ZN9__gnu_cxx17__normal_iteratorIPKN4giac10lp_entry_tESt6vectorIS2_SaIS2_EEEppEv @7442
    _ZN9__gnu_cxx17__normal_iteratorIPKN4giac10sparse_genESt6vectorIS2_SaIS2_EEEC1ERKS4_ @7443
    _ZN9__gnu_cxx17__normal_iteratorIPKN4giac10sparse_genESt6vectorIS2_SaIS2_EEEppEv @7444
    _ZN9__gnu_cxx17__normal_iteratorIPKN4giac11heap_tt_ptrESt6vectorIS2_SaIS2_EEEC1ERKS4_ @7445
    _ZN9__gnu_cxx17__normal_iteratorIPKN4giac11logo_turtleESt6vectorIS2_SaIS2_EEEC1ERKS4_ @7446
    _ZN9__gnu_cxx17__normal_iteratorIPKN4giac11logo_turtleESt6vectorIS2_SaIS2_EEEppEv @7447
    _ZN9__gnu_cxx17__normal_iteratorIPKN4giac13nr_pointers_tESt6vectorIS2_SaIS2_EEEC1ERKS4_ @7448
    _ZN9__gnu_cxx17__normal_iteratorIPKN4giac13user_functionESt6vectorIS2_SaIS2_EEEC1ERKS4_ @7449
    _ZN9__gnu_cxx17__normal_iteratorIPKN4giac13user_functionESt6vectorIS2_SaIS2_EEEppEv @7450
    _ZN9__gnu_cxx17__normal_iteratorIPKN4giac14indexed_stringESt6vectorIS2_SaIS2_EEEC1ERKS4_ @7451
    _ZN9__gnu_cxx17__normal_iteratorIPKN4giac14indexed_stringESt6vectorIS2_SaIS2_EEEppEv @7452
    _ZN9__gnu_cxx17__normal_iteratorIPKN4giac14sparse_elementESt6vectorIS2_SaIS2_EEEC1ERKS4_ @7453
    _ZN9__gnu_cxx17__normal_iteratorIPKN4giac14sparse_elementESt6vectorIS2_SaIS2_EEEC1IPS2_EERKNS0_IT_NS_11__enable_ifIXsrSt10__are_sameISB_SA_E7__valueES7_E6__typeEEE @7454
    _ZN9__gnu_cxx17__normal_iteratorIPKN4giac14sparse_elementESt6vectorIS2_SaIS2_EEEppEv @7455
    _ZN9__gnu_cxx17__normal_iteratorIPKN4giac15dbgprint_vectorINS1_3genEEESt6vectorIS4_SaIS4_EEEC1ERKS6_ @7456
    _ZN9__gnu_cxx17__normal_iteratorIPKN4giac15dbgprint_vectorINS1_3genEEESt6vectorIS4_SaIS4_EEEC1Ev @7457
    _ZN9__gnu_cxx17__normal_iteratorIPKN4giac15dbgprint_vectorINS1_3genEEESt6vectorIS4_SaIS4_EEEC1IPS4_EERKNS0_IT_NS_11__enable_ifIXsrSt10__are_sameISD_SC_E7__valueES9_E6__typeEEE @7458
    _ZN9__gnu_cxx17__normal_iteratorIPKN4giac15dbgprint_vectorINS1_3genEEESt6vectorIS4_SaIS4_EEEppEv @7459
    _ZN9__gnu_cxx17__normal_iteratorIPKN4giac16localized_stringESt6vectorIS2_SaIS2_EEEC1ERKS4_ @7460
    _ZN9__gnu_cxx17__normal_iteratorIPKN4giac16localized_stringESt6vectorIS2_SaIS2_EEEC1Ev @7461
    _ZN9__gnu_cxx17__normal_iteratorIPKN4giac16localized_stringESt6vectorIS2_SaIS2_EEEC1IPS2_EERKNS0_IT_NS_11__enable_ifIXsrSt10__are_sameISB_SA_E7__valueES7_E6__typeEEE @7462
    _ZN9__gnu_cxx17__normal_iteratorIPKN4giac16localized_stringESt6vectorIS2_SaIS2_EEEppEv @7463
    _ZN9__gnu_cxx17__normal_iteratorIPKN4giac18unary_function_ptrESt6vectorIS2_SaIS2_EEEC1ERKS4_ @7464
    _ZN9__gnu_cxx17__normal_iteratorIPKN4giac18unary_function_ptrESt6vectorIS2_SaIS2_EEEppEv @7465
    _ZN9__gnu_cxx17__normal_iteratorIPKN4giac2pfINS1_3genEEESt6vectorIS4_SaIS4_EEEC1ERKS6_ @7466
    _ZN9__gnu_cxx17__normal_iteratorIPKN4giac2pfINS1_3genEEESt6vectorIS4_SaIS4_EEEC1IPS4_EERKNS0_IT_NS_11__enable_ifIXsrSt10__are_sameISD_SC_E7__valueES9_E6__typeEEE @7467
    _ZN9__gnu_cxx17__normal_iteratorIPKN4giac2pfINS1_3genEEESt6vectorIS4_SaIS4_EEEppEv @7468
    _ZN9__gnu_cxx17__normal_iteratorIPKN4giac3genESt6vectorIS2_SaIS2_EEEC1ERKS4_ @7469
    _ZN9__gnu_cxx17__normal_iteratorIPKN4giac3genESt6vectorIS2_SaIS2_EEEC1Ev @7470
    _ZN9__gnu_cxx17__normal_iteratorIPKN4giac3genESt6vectorIS2_SaIS2_EEEC1IPS2_EERKNS0_IT_NS_11__enable_ifIXsrSt10__are_sameISB_SA_E7__valueES7_E6__typeEEE @7471
    _ZN9__gnu_cxx17__normal_iteratorIPKN4giac3genESt6vectorIS2_SaIS2_EEEmmEv @7472
    _ZN9__gnu_cxx17__normal_iteratorIPKN4giac3genESt6vectorIS2_SaIS2_EEEpLERKi @7473
    _ZN9__gnu_cxx17__normal_iteratorIPKN4giac3genESt6vectorIS2_SaIS2_EEEppEv @7474
    _ZN9__gnu_cxx17__normal_iteratorIPKN4giac3pf1ESt6vectorIS2_SaIS2_EEEC1IPS2_EERKNS0_IT_NS_11__enable_ifIXsrSt10__are_sameISB_SA_E7__valueES7_E6__typeEEE @7475
    _ZN9__gnu_cxx17__normal_iteratorIPKN4giac4aideESt6vectorIS2_SaIS2_EEEC1ERKS4_ @7476
    _ZN9__gnu_cxx17__normal_iteratorIPKN4giac4aideESt6vectorIS2_SaIS2_EEEppEv @7477
    _ZN9__gnu_cxx17__normal_iteratorIPKN4giac4xeffESt6vectorIS2_SaIS2_EEEC1IPS2_EERKNS0_IT_NS_11__enable_ifIXsrSt10__are_sameISB_SA_E7__valueES7_E6__typeEEE @7478
    _ZN9__gnu_cxx17__normal_iteratorIPKN4giac4xeffESt6vectorIS2_SaIS2_EEEppEv @7479
    _ZN9__gnu_cxx17__normal_iteratorIPKN4giac5poly8ESt6vectorIS2_SaIS2_EEEC1ERKS4_ @7480
    _ZN9__gnu_cxx17__normal_iteratorIPKN4giac5poly8ESt6vectorIS2_SaIS2_EEEppEv @7481
    _ZN9__gnu_cxx17__normal_iteratorIPKN4giac6axbinvESt6vectorIS2_SaIS2_EEEC1IPS2_EERKNS0_IT_NS_11__enable_ifIXsrSt10__are_sameISB_SA_E7__valueES7_E6__typeEEE @7482
    _ZN9__gnu_cxx17__normal_iteratorIPKN4giac6axbinvESt6vectorIS2_SaIS2_EEEppEv @7483
    _ZN9__gnu_cxx17__normal_iteratorIPKN4giac6heap_tESt6vectorIS2_SaIS2_EEEC1ERKS4_ @7484
    _ZN9__gnu_cxx17__normal_iteratorIPKN4giac6line_tESt6vectorIS2_SaIS2_EEEC1ERKS4_ @7485
    _ZN9__gnu_cxx17__normal_iteratorIPKN4giac6monomeESt6vectorIS2_SaIS2_EEEC1ERKS4_ @7486
    _ZN9__gnu_cxx17__normal_iteratorIPKN4giac6monomeESt6vectorIS2_SaIS2_EEEC1Ev @7487
    _ZN9__gnu_cxx17__normal_iteratorIPKN4giac6monomeESt6vectorIS2_SaIS2_EEEC1IPS2_EERKNS0_IT_NS_11__enable_ifIXsrSt10__are_sameISB_SA_E7__valueES7_E6__typeEEE @7488
    _ZN9__gnu_cxx17__normal_iteratorIPKN4giac6monomeESt6vectorIS2_SaIS2_EEEmmEv @7489
    _ZN9__gnu_cxx17__normal_iteratorIPKN4giac6monomeESt6vectorIS2_SaIS2_EEEppEi @7490
    _ZN9__gnu_cxx17__normal_iteratorIPKN4giac6monomeESt6vectorIS2_SaIS2_EEEppEv @7491
    _ZN9__gnu_cxx17__normal_iteratorIPKN4giac6tdeg_tESt6vectorIS2_SaIS2_EEEC1ERKS4_ @7492
    _ZN9__gnu_cxx17__normal_iteratorIPKN4giac6tdeg_tESt6vectorIS2_SaIS2_EEEppEv @7493
    _ZN9__gnu_cxx17__normal_iteratorIPKN4giac6tensorINS1_3genEEESt6vectorIS4_SaIS4_EEEC1ERKS6_ @7494
    _ZN9__gnu_cxx17__normal_iteratorIPKN4giac6tensorINS1_3genEEESt6vectorIS4_SaIS4_EEEC1IPS4_EERKNS0_IT_NS_11__enable_ifIXsrSt10__are_sameISD_SC_E7__valueES9_E6__typeEEE @7495
    _ZN9__gnu_cxx17__normal_iteratorIPKN4giac6tensorINS1_3genEEESt6vectorIS4_SaIS4_EEEppEv @7496
    _ZN9__gnu_cxx17__normal_iteratorIPKN4giac7facteurINS1_15dbgprint_vectorINS1_3genEEEEESt6vectorIS6_SaIS6_EEEC1ERKS8_ @7497
    _ZN9__gnu_cxx17__normal_iteratorIPKN4giac7facteurINS1_15dbgprint_vectorINS1_3genEEEEESt6vectorIS6_SaIS6_EEEppEv @7498
    _ZN9__gnu_cxx17__normal_iteratorIPKN4giac7facteurINS1_6tensorINS1_3genEEEEESt6vectorIS6_SaIS6_EEEC1ERKS8_ @7499
    _ZN9__gnu_cxx17__normal_iteratorIPKN4giac7facteurINS1_6tensorINS1_3genEEEEESt6vectorIS6_SaIS6_EEEC1Ev @7500
    _ZN9__gnu_cxx17__normal_iteratorIPKN4giac7facteurINS1_6tensorINS1_3genEEEEESt6vectorIS6_SaIS6_EEEC1IPS6_EERKNS0_IT_NS_11__enable_ifIXsrSt10__are_sameISF_SE_E7__valueESB_E6__typeEEE @7501
    _ZN9__gnu_cxx17__normal_iteratorIPKN4giac7facteurINS1_6tensorINS1_3genEEEEESt6vectorIS6_SaIS6_EEEppEv @7502
    _ZN9__gnu_cxx17__normal_iteratorIPKN4giac7heap_ttESt6vectorIS2_SaIS2_EEEC1ERKS4_ @7503
    _ZN9__gnu_cxx17__normal_iteratorIPKN4giac7index_mESt6vectorIS2_SaIS2_EEEC1ERKS4_ @7504
    _ZN9__gnu_cxx17__normal_iteratorIPKN4giac7nfactorESt6vectorIS2_SaIS2_EEEC1IPS2_EERKNS0_IT_NS_11__enable_ifIXsrSt10__are_sameISB_SA_E7__valueES7_E6__typeEEE @7505
    _ZN9__gnu_cxx17__normal_iteratorIPKN4giac7nfactorESt6vectorIS2_SaIS2_EEEppEv @7506
    _ZN9__gnu_cxx17__normal_iteratorIPKN4giac7polymodESt6vectorIS2_SaIS2_EEEC1ERKS4_ @7507
    _ZN9__gnu_cxx17__normal_iteratorIPKN4giac7polymodESt6vectorIS2_SaIS2_EEEppEv @7508
    _ZN9__gnu_cxx17__normal_iteratorIPKN4giac7zinfo_tESt6vectorIS2_SaIS2_EEEC1ERKS4_ @7509
    _ZN9__gnu_cxx17__normal_iteratorIPKN4giac8monomialINS1_3genEEESt6vectorIS4_SaIS4_EEEC1ERKS6_ @7510
    _ZN9__gnu_cxx17__normal_iteratorIPKN4giac8monomialINS1_3genEEESt6vectorIS4_SaIS4_EEEC1Ev @7511
    _ZN9__gnu_cxx17__normal_iteratorIPKN4giac8monomialINS1_3genEEESt6vectorIS4_SaIS4_EEEC1IPS4_EERKNS0_IT_NS_11__enable_ifIXsrSt10__are_sameISD_SC_E7__valueES9_E6__typeEEE @7512
    _ZN9__gnu_cxx17__normal_iteratorIPKN4giac8monomialINS1_3genEEESt6vectorIS4_SaIS4_EEEmmEv @7513
    _ZN9__gnu_cxx17__normal_iteratorIPKN4giac8monomialINS1_3genEEESt6vectorIS4_SaIS4_EEEpLERKi @7514
    _ZN9__gnu_cxx17__normal_iteratorIPKN4giac8monomialINS1_3genEEESt6vectorIS4_SaIS4_EEEppEv @7515
    _ZN9__gnu_cxx17__normal_iteratorIPKN4giac8sparse32ESt6vectorIS2_SaIS2_EEEC1ERKS4_ @7516
    _ZN9__gnu_cxx17__normal_iteratorIPKN4giac8sparse32ESt6vectorIS2_SaIS2_EEEC1IPS2_EERKNS0_IT_NS_11__enable_ifIXsrSt10__are_sameISB_SA_E7__valueES7_E6__typeEEE @7517
    _ZN9__gnu_cxx17__normal_iteratorIPKN4giac8sparse32ESt6vectorIS2_SaIS2_EEEppEv @7518
    _ZN9__gnu_cxx17__normal_iteratorIPKN4giac8zpolymodESt6vectorIS2_SaIS2_EEEC1ERKS4_ @7519
    _ZN9__gnu_cxx17__normal_iteratorIPKN4giac8zpolymodESt6vectorIS2_SaIS2_EEEppEv @7520
    _ZN9__gnu_cxx17__normal_iteratorIPKPKN4giac18unary_function_ptrESt6vectorIS4_SaIS4_EEEC1ERKS6_ @7521
    _ZN9__gnu_cxx17__normal_iteratorIPKPKN4giac18unary_function_ptrESt6vectorIS4_SaIS4_EEEppEv @7522
    _ZN9__gnu_cxx17__normal_iteratorIPKPKcSt6vectorIS2_SaIS2_EEEC1ERKS4_ @7523
    _ZN9__gnu_cxx17__normal_iteratorIPKSsSt6vectorISsSaISsEEEC1ERKS2_ @7524
    _ZN9__gnu_cxx17__normal_iteratorIPKSsSt6vectorISsSaISsEEEC1IPSsEERKNS0_IT_NS_11__enable_ifIXsrSt10__are_sameIS9_S8_E7__valueES5_E6__typeEEE @7525
    _ZN9__gnu_cxx17__normal_iteratorIPKSsSt6vectorISsSaISsEEEppEv @7526
    _ZN9__gnu_cxx17__normal_iteratorIPKSt4pairIiiESt6vectorIS2_SaIS2_EEEC1ERKS4_ @7527
    _ZN9__gnu_cxx17__normal_iteratorIPKSt4pairIiiESt6vectorIS2_SaIS2_EEEppEv @7528
    _ZN9__gnu_cxx17__normal_iteratorIPKSt4pairIjjESt6vectorIS2_SaIS2_EEEC1ERKS4_ @7529
    _ZN9__gnu_cxx17__normal_iteratorIPKSt4pairIjjESt6vectorIS2_SaIS2_EEEppEv @7530
    _ZN9__gnu_cxx17__normal_iteratorIPKSt6vectorIN4giac10T_unsignedIS1_IiSaIiEEjEESaIS6_EES1_IS8_SaIS8_EEEC1ERKSA_ @7531
    _ZN9__gnu_cxx17__normal_iteratorIPKSt6vectorIN4giac10T_unsignedIS1_IiSaIiEEjEESaIS6_EES1_IS8_SaIS8_EEEppEv @7532
    _ZN9__gnu_cxx17__normal_iteratorIPKSt6vectorIN4giac6tdeg_tESaIS3_EES1_IS5_SaIS5_EEEC1ERKS7_ @7533
    _ZN9__gnu_cxx17__normal_iteratorIPKSt6vectorIN4giac6tdeg_tESaIS3_EES1_IS5_SaIS5_EEEppEv @7534
    _ZN9__gnu_cxx17__normal_iteratorIPKSt6vectorISt7complexIdESaIS3_EES1_IS5_SaIS5_EEEC1Ev @7535
    _ZN9__gnu_cxx17__normal_iteratorIPKSt6vectorISt7complexIdESaIS3_EES1_IS5_SaIS5_EEEC1IPS5_EERKNS0_IT_NS_11__enable_ifIXsrSt10__are_sameISD_SC_E7__valueES9_E6__typeEEE @7536
    _ZN9__gnu_cxx17__normal_iteratorIPKSt6vectorISt7complexIdESaIS3_EES1_IS5_SaIS5_EEEppEv @7537
    _ZN9__gnu_cxx17__normal_iteratorIPKSt6vectorIdSaIdEES1_IS3_SaIS3_EEEC1ERKS5_ @7538
    _ZN9__gnu_cxx17__normal_iteratorIPKSt6vectorIdSaIdEES1_IS3_SaIS3_EEEC1Ev @7539
    _ZN9__gnu_cxx17__normal_iteratorIPKSt6vectorIdSaIdEES1_IS3_SaIS3_EEEC1IPS3_EERKNS0_IT_NS_11__enable_ifIXsrSt10__are_sameISB_SA_E7__valueES7_E6__typeEEE @7540
    _ZN9__gnu_cxx17__normal_iteratorIPKSt6vectorIdSaIdEES1_IS3_SaIS3_EEEpLERKi @7541
    _ZN9__gnu_cxx17__normal_iteratorIPKSt6vectorIdSaIdEES1_IS3_SaIS3_EEEppEv @7542
    _ZN9__gnu_cxx17__normal_iteratorIPKSt6vectorIiSaIiEES1_IS3_SaIS3_EEEC1ERKS5_ @7543
    _ZN9__gnu_cxx17__normal_iteratorIPKSt6vectorIiSaIiEES1_IS3_SaIS3_EEEC1Ev @7544
    _ZN9__gnu_cxx17__normal_iteratorIPKSt6vectorIiSaIiEES1_IS3_SaIS3_EEEC1IPS3_EERKNS0_IT_NS_11__enable_ifIXsrSt10__are_sameISB_SA_E7__valueES7_E6__typeEEE @7545
    _ZN9__gnu_cxx17__normal_iteratorIPKSt6vectorIiSaIiEES1_IS3_SaIS3_EEEpLERKi @7546
    _ZN9__gnu_cxx17__normal_iteratorIPKSt6vectorIiSaIiEES1_IS3_SaIS3_EEEppEv @7547
    _ZN9__gnu_cxx17__normal_iteratorIPKSt6vectorIjSaIjEES1_IS3_SaIS3_EEEC1ERKS5_ @7548
    _ZN9__gnu_cxx17__normal_iteratorIPKSt7complexIdESt6vectorIS2_SaIS2_EEEC1ERKS4_ @7549
    _ZN9__gnu_cxx17__normal_iteratorIPKSt7complexIdESt6vectorIS2_SaIS2_EEEppEv @7550
    _ZN9__gnu_cxx17__normal_iteratorIPKcSsEppEv @7551
    _ZN9__gnu_cxx17__normal_iteratorIPKcSt6vectorIcSaIcEEEC1ERKS2_ @7552
    _ZN9__gnu_cxx17__normal_iteratorIPKcSt6vectorIcSaIcEEEC1IPcEERKNS0_IT_NS_11__enable_ifIXsrSt10__are_sameIS9_S8_E7__valueES5_E6__typeEEE @7553
    _ZN9__gnu_cxx17__normal_iteratorIPKcSt6vectorIcSaIcEEEppEv @7554
    _ZN9__gnu_cxx17__normal_iteratorIPKdSt6vectorIdSaIdEEEC1ERKS2_ @7555
    _ZN9__gnu_cxx17__normal_iteratorIPKdSt6vectorIdSaIdEEEC1IPdEERKNS0_IT_NS_11__enable_ifIXsrSt10__are_sameIS9_S8_E7__valueES5_E6__typeEEE @7556
    _ZN9__gnu_cxx17__normal_iteratorIPKdSt6vectorIdSaIdEEEppEv @7557
    _ZN9__gnu_cxx17__normal_iteratorIPKiSt6vectorIiSaIiEEEC1ERKS2_ @7558
    _ZN9__gnu_cxx17__normal_iteratorIPKiSt6vectorIiSaIiEEEC1Ev @7559
    _ZN9__gnu_cxx17__normal_iteratorIPKiSt6vectorIiSaIiEEEC1IPiEERKNS0_IT_NS_11__enable_ifIXsrSt10__are_sameIS9_S8_E7__valueES5_E6__typeEEE @7560
    _ZN9__gnu_cxx17__normal_iteratorIPKiSt6vectorIiSaIiEEEmmEv @7561
    _ZN9__gnu_cxx17__normal_iteratorIPKiSt6vectorIiSaIiEEEppEv @7562
    _ZN9__gnu_cxx17__normal_iteratorIPKjSt6vectorIjSaIjEEEC1ERKS2_ @7563
    _ZN9__gnu_cxx17__normal_iteratorIPKjSt6vectorIjSaIjEEEC1Ev @7564
    _ZN9__gnu_cxx17__normal_iteratorIPKjSt6vectorIjSaIjEEEmmEv @7565
    _ZN9__gnu_cxx17__normal_iteratorIPKjSt6vectorIjSaIjEEEppEv @7566
    _ZN9__gnu_cxx17__normal_iteratorIPKsSt6vectorIsSaIsEEEC1ERKS2_ @7567
    _ZN9__gnu_cxx17__normal_iteratorIPKsSt6vectorIsSaIsEEEC1Ev @7568
    _ZN9__gnu_cxx17__normal_iteratorIPKsSt6vectorIsSaIsEEEC1IPsEERKNS0_IT_NS_11__enable_ifIXsrSt10__are_sameIS9_S8_E7__valueES5_E6__typeEEE @7569
    _ZN9__gnu_cxx17__normal_iteratorIPKsSt6vectorIsSaIsEEEmmEv @7570
    _ZN9__gnu_cxx17__normal_iteratorIPKsSt6vectorIsSaIsEEEppEv @7571
    _ZN9__gnu_cxx17__normal_iteratorIPKtSt6vectorItSaItEEEC1ERKS2_ @7572
    _ZN9__gnu_cxx17__normal_iteratorIPKxSt6vectorIxSaIxEEEC1ERKS2_ @7573
    _ZN9__gnu_cxx17__normal_iteratorIPKxSt6vectorIxSaIxEEEC1IPxEERKNS0_IT_NS_11__enable_ifIXsrSt10__are_sameIS9_S8_E7__valueES5_E6__typeEEE @7574
    _ZN9__gnu_cxx17__normal_iteratorIPKxSt6vectorIxSaIxEEEppEv @7575
    _ZN9__gnu_cxx17__normal_iteratorIPKySt6vectorIySaIyEEEC1ERKS2_ @7576
    _ZN9__gnu_cxx17__normal_iteratorIPKySt6vectorIySaIyEEEppEv @7577
    _ZN9__gnu_cxx17__normal_iteratorIPN4giac10T_unsignedINS1_15dbgprint_vectorINS1_3genEEEjEESt6vectorIS6_SaIS6_EEEC1ERKS7_ @7578
    _ZN9__gnu_cxx17__normal_iteratorIPN4giac10T_unsignedINS1_15dbgprint_vectorINS1_3genEEEjEESt6vectorIS6_SaIS6_EEEC1Ev @7579
    _ZN9__gnu_cxx17__normal_iteratorIPN4giac10T_unsignedINS1_15dbgprint_vectorINS1_3genEEEjEESt6vectorIS6_SaIS6_EEEmmEv @7580
    _ZN9__gnu_cxx17__normal_iteratorIPN4giac10T_unsignedINS1_15dbgprint_vectorINS1_3genEEEjEESt6vectorIS6_SaIS6_EEEppEv @7581
    _ZN9__gnu_cxx17__normal_iteratorIPN4giac10T_unsignedINS1_3genENS1_6tdeg_tEEESt6vectorIS5_SaIS5_EEEC1ERKS6_ @7582
    _ZN9__gnu_cxx17__normal_iteratorIPN4giac10T_unsignedINS1_3genENS1_6tdeg_tEEESt6vectorIS5_SaIS5_EEEppEv @7583
    _ZN9__gnu_cxx17__normal_iteratorIPN4giac10T_unsignedINS1_3genEjEESt6vectorIS4_SaIS4_EEEC1ERKS5_ @7584
    _ZN9__gnu_cxx17__normal_iteratorIPN4giac10T_unsignedINS1_3genEjEESt6vectorIS4_SaIS4_EEEC1Ev @7585
    _ZN9__gnu_cxx17__normal_iteratorIPN4giac10T_unsignedINS1_3genEjEESt6vectorIS4_SaIS4_EEEmmEv @7586
    _ZN9__gnu_cxx17__normal_iteratorIPN4giac10T_unsignedINS1_3genEjEESt6vectorIS4_SaIS4_EEEppEv @7587
    _ZN9__gnu_cxx17__normal_iteratorIPN4giac10T_unsignedINS1_3genEyEESt6vectorIS4_SaIS4_EEEC1ERKS5_ @7588
    _ZN9__gnu_cxx17__normal_iteratorIPN4giac10T_unsignedINS1_3genEyEESt6vectorIS4_SaIS4_EEEmmEv @7589
    _ZN9__gnu_cxx17__normal_iteratorIPN4giac10T_unsignedINS1_3genEyEESt6vectorIS4_SaIS4_EEEppEv @7590
    _ZN9__gnu_cxx17__normal_iteratorIPN4giac10T_unsignedISt6vectorIiSaIiEEjEES3_IS6_SaIS6_EEEC1ERKS7_ @7591
    _ZN9__gnu_cxx17__normal_iteratorIPN4giac10T_unsignedISt6vectorIiSaIiEEjEES3_IS6_SaIS6_EEEC1Ev @7592
    _ZN9__gnu_cxx17__normal_iteratorIPN4giac10T_unsignedISt6vectorIiSaIiEEjEES3_IS6_SaIS6_EEEmmEv @7593
    _ZN9__gnu_cxx17__normal_iteratorIPN4giac10T_unsignedISt6vectorIiSaIiEEjEES3_IS6_SaIS6_EEEppEv @7594
    _ZN9__gnu_cxx17__normal_iteratorIPN4giac10T_unsignedIdjEESt6vectorIS3_SaIS3_EEEC1ERKS4_ @7595
    _ZN9__gnu_cxx17__normal_iteratorIPN4giac10T_unsignedIdjEESt6vectorIS3_SaIS3_EEEmmEv @7596
    _ZN9__gnu_cxx17__normal_iteratorIPN4giac10T_unsignedIdjEESt6vectorIS3_SaIS3_EEEppEv @7597
    _ZN9__gnu_cxx17__normal_iteratorIPN4giac10T_unsignedIdyEESt6vectorIS3_SaIS3_EEEC1ERKS4_ @7598
    _ZN9__gnu_cxx17__normal_iteratorIPN4giac10T_unsignedIdyEESt6vectorIS3_SaIS3_EEEmmEv @7599
    _ZN9__gnu_cxx17__normal_iteratorIPN4giac10T_unsignedIdyEESt6vectorIS3_SaIS3_EEEppEv @7600
    _ZN9__gnu_cxx17__normal_iteratorIPN4giac10T_unsignedIiNS1_6tdeg_tEEESt6vectorIS4_SaIS4_EEEC1ERKS5_ @7601
    _ZN9__gnu_cxx17__normal_iteratorIPN4giac10T_unsignedIiNS1_6tdeg_tEEESt6vectorIS4_SaIS4_EEEmmEv @7602
    _ZN9__gnu_cxx17__normal_iteratorIPN4giac10T_unsignedIiNS1_6tdeg_tEEESt6vectorIS4_SaIS4_EEEppEv @7603
    _ZN9__gnu_cxx17__normal_iteratorIPN4giac10T_unsignedIijEESt6vectorIS3_SaIS3_EEEC1ERKS4_ @7604
    _ZN9__gnu_cxx17__normal_iteratorIPN4giac10T_unsignedIijEESt6vectorIS3_SaIS3_EEEC1Ev @7605
    _ZN9__gnu_cxx17__normal_iteratorIPN4giac10T_unsignedIijEESt6vectorIS3_SaIS3_EEEmmEv @7606
    _ZN9__gnu_cxx17__normal_iteratorIPN4giac10T_unsignedIijEESt6vectorIS3_SaIS3_EEEppEv @7607
    _ZN9__gnu_cxx17__normal_iteratorIPN4giac10T_unsignedIiyEESt6vectorIS3_SaIS3_EEEC1ERKS4_ @7608
    _ZN9__gnu_cxx17__normal_iteratorIPN4giac10T_unsignedIiyEESt6vectorIS3_SaIS3_EEEC1Ev @7609
    _ZN9__gnu_cxx17__normal_iteratorIPN4giac10T_unsignedIiyEESt6vectorIS3_SaIS3_EEEmmEv @7610
    _ZN9__gnu_cxx17__normal_iteratorIPN4giac10T_unsignedIiyEESt6vectorIS3_SaIS3_EEEppEv @7611
    _ZN9__gnu_cxx17__normal_iteratorIPN4giac10T_unsignedIxjEESt6vectorIS3_SaIS3_EEEC1ERKS4_ @7612
    _ZN9__gnu_cxx17__normal_iteratorIPN4giac10T_unsignedIxjEESt6vectorIS3_SaIS3_EEEC1Ev @7613
    _ZN9__gnu_cxx17__normal_iteratorIPN4giac10T_unsignedIxjEESt6vectorIS3_SaIS3_EEEmmEv @7614
    _ZN9__gnu_cxx17__normal_iteratorIPN4giac10T_unsignedIxjEESt6vectorIS3_SaIS3_EEEppEv @7615
    _ZN9__gnu_cxx17__normal_iteratorIPN4giac10T_unsignedIxyEESt6vectorIS3_SaIS3_EEEC1ERKS4_ @7616
    _ZN9__gnu_cxx17__normal_iteratorIPN4giac10T_unsignedIxyEESt6vectorIS3_SaIS3_EEEC1Ev @7617
    _ZN9__gnu_cxx17__normal_iteratorIPN4giac10T_unsignedIxyEESt6vectorIS3_SaIS3_EEEmmEv @7618
    _ZN9__gnu_cxx17__normal_iteratorIPN4giac10T_unsignedIxyEESt6vectorIS3_SaIS3_EEEppEv @7619
    _ZN9__gnu_cxx17__normal_iteratorIPN4giac10lp_entry_tESt6vectorIS2_SaIS2_EEEC1ERKS3_ @7620
    _ZN9__gnu_cxx17__normal_iteratorIPN4giac10sparse_genESt6vectorIS2_SaIS2_EEEC1ERKS3_ @7621
    _ZN9__gnu_cxx17__normal_iteratorIPN4giac10sparse_genESt6vectorIS2_SaIS2_EEEppEv @7622
    _ZN9__gnu_cxx17__normal_iteratorIPN4giac11heap_tt_ptrESt6vectorIS2_SaIS2_EEEC1ERKS3_ @7623
    _ZN9__gnu_cxx17__normal_iteratorIPN4giac11heap_tt_ptrESt6vectorIS2_SaIS2_EEEmmEv @7624
    _ZN9__gnu_cxx17__normal_iteratorIPN4giac11logo_turtleESt6vectorIS2_SaIS2_EEEC1ERKS3_ @7625
    _ZN9__gnu_cxx17__normal_iteratorIPN4giac11logo_turtleESt6vectorIS2_SaIS2_EEEppEv @7626
    _ZN9__gnu_cxx17__normal_iteratorIPN4giac12coeffindex_tESt6vectorIS2_SaIS2_EEEC1ERKS3_ @7627
    _ZN9__gnu_cxx17__normal_iteratorIPN4giac13nr_pointers_tESt6vectorIS2_SaIS2_EEEC1ERKS3_ @7628
    _ZN9__gnu_cxx17__normal_iteratorIPN4giac13user_functionESt6vectorIS2_SaIS2_EEEC1ERKS3_ @7629
    _ZN9__gnu_cxx17__normal_iteratorIPN4giac14indexed_stringESt6vectorIS2_SaIS2_EEEC1ERKS3_ @7630
    _ZN9__gnu_cxx17__normal_iteratorIPN4giac14indexed_stringESt6vectorIS2_SaIS2_EEEppEv @7631
    _ZN9__gnu_cxx17__normal_iteratorIPN4giac14sparse_elementESt6vectorIS2_SaIS2_EEEC1ERKS3_ @7632
    _ZN9__gnu_cxx17__normal_iteratorIPN4giac14sparse_elementESt6vectorIS2_SaIS2_EEEmmEv @7633
    _ZN9__gnu_cxx17__normal_iteratorIPN4giac14sparse_elementESt6vectorIS2_SaIS2_EEEppEv @7634
    _ZN9__gnu_cxx17__normal_iteratorIPN4giac15dbgprint_vectorINS1_3genEEESt6vectorIS4_SaIS4_EEEC1ERKS5_ @7635
    _ZN9__gnu_cxx17__normal_iteratorIPN4giac15dbgprint_vectorINS1_3genEEESt6vectorIS4_SaIS4_EEEppEv @7636
    _ZN9__gnu_cxx17__normal_iteratorIPN4giac15dbgprint_vectorINS1_6monomeEEESt6vectorIS4_SaIS4_EEEC1ERKS5_ @7637
    _ZN9__gnu_cxx17__normal_iteratorIPN4giac16localized_stringESt6vectorIS2_SaIS2_EEEC1ERKS3_ @7638
    _ZN9__gnu_cxx17__normal_iteratorIPN4giac16localized_stringESt6vectorIS2_SaIS2_EEEmmEv @7639
    _ZN9__gnu_cxx17__normal_iteratorIPN4giac16localized_stringESt6vectorIS2_SaIS2_EEEppEv @7640
    _ZN9__gnu_cxx17__normal_iteratorIPN4giac18unary_function_ptrESt6vectorIS2_SaIS2_EEEC1ERKS3_ @7641
    _ZN9__gnu_cxx17__normal_iteratorIPN4giac18unary_function_ptrESt6vectorIS2_SaIS2_EEEppEv @7642
    _ZN9__gnu_cxx17__normal_iteratorIPN4giac2pfINS1_3genEEESt6vectorIS4_SaIS4_EEEC1ERKS5_ @7643
    _ZN9__gnu_cxx17__normal_iteratorIPN4giac2pfINS1_3genEEESt6vectorIS4_SaIS4_EEEppEv @7644
    _ZN9__gnu_cxx17__normal_iteratorIPN4giac3genESt6vectorIS2_SaIS2_EEEC1ERKS3_ @7645
    _ZN9__gnu_cxx17__normal_iteratorIPN4giac3genESt6vectorIS2_SaIS2_EEEC1Ev @7646
    _ZN9__gnu_cxx17__normal_iteratorIPN4giac3genESt6vectorIS2_SaIS2_EEEmIERKi @7647
    _ZN9__gnu_cxx17__normal_iteratorIPN4giac3genESt6vectorIS2_SaIS2_EEEmmEv @7648
    _ZN9__gnu_cxx17__normal_iteratorIPN4giac3genESt6vectorIS2_SaIS2_EEEpLERKi @7649
    _ZN9__gnu_cxx17__normal_iteratorIPN4giac3genESt6vectorIS2_SaIS2_EEEppEv @7650
    _ZN9__gnu_cxx17__normal_iteratorIPN4giac3pf1ESt6vectorIS2_SaIS2_EEEC1ERKS3_ @7651
    _ZN9__gnu_cxx17__normal_iteratorIPN4giac3pf1ESt6vectorIS2_SaIS2_EEEppEv @7652
    _ZN9__gnu_cxx17__normal_iteratorIPN4giac4aideESt6vectorIS2_SaIS2_EEEC1ERKS3_ @7653
    _ZN9__gnu_cxx17__normal_iteratorIPN4giac4aideESt6vectorIS2_SaIS2_EEEC1Ev @7654
    _ZN9__gnu_cxx17__normal_iteratorIPN4giac4aideESt6vectorIS2_SaIS2_EEEmmEv @7655
    _ZN9__gnu_cxx17__normal_iteratorIPN4giac4aideESt6vectorIS2_SaIS2_EEEpLERKi @7656
    _ZN9__gnu_cxx17__normal_iteratorIPN4giac4aideESt6vectorIS2_SaIS2_EEEppEv @7657
    _ZN9__gnu_cxx17__normal_iteratorIPN4giac4xeffESt6vectorIS2_SaIS2_EEEC1ERKS3_ @7658
    _ZN9__gnu_cxx17__normal_iteratorIPN4giac4xeffESt6vectorIS2_SaIS2_EEEmmEv @7659
    _ZN9__gnu_cxx17__normal_iteratorIPN4giac4xeffESt6vectorIS2_SaIS2_EEEppEv @7660
    _ZN9__gnu_cxx17__normal_iteratorIPN4giac5poly8ESt6vectorIS2_SaIS2_EEEC1ERKS3_ @7661
    _ZN9__gnu_cxx17__normal_iteratorIPN4giac5poly8ESt6vectorIS2_SaIS2_EEEppEv @7662
    _ZN9__gnu_cxx17__normal_iteratorIPN4giac6axbinvESt6vectorIS2_SaIS2_EEEC1ERKS3_ @7663
    _ZN9__gnu_cxx17__normal_iteratorIPN4giac6heap_tESt6vectorIS2_SaIS2_EEEC1ERKS3_ @7664
    _ZN9__gnu_cxx17__normal_iteratorIPN4giac6heap_tESt6vectorIS2_SaIS2_EEEmmEv @7665
    _ZN9__gnu_cxx17__normal_iteratorIPN4giac6info_tESt6vectorIS2_SaIS2_EEEC1ERKS3_ @7666
    _ZN9__gnu_cxx17__normal_iteratorIPN4giac6line_tESt6vectorIS2_SaIS2_EEEC1ERKS3_ @7667
    _ZN9__gnu_cxx17__normal_iteratorIPN4giac6line_tESt6vectorIS2_SaIS2_EEEmmEv @7668
    _ZN9__gnu_cxx17__normal_iteratorIPN4giac6line_tESt6vectorIS2_SaIS2_EEEppEv @7669
    _ZN9__gnu_cxx17__normal_iteratorIPN4giac6monomeESt6vectorIS2_SaIS2_EEEC1ERKS3_ @7670
    _ZN9__gnu_cxx17__normal_iteratorIPN4giac6monomeESt6vectorIS2_SaIS2_EEEmmEv @7671
    _ZN9__gnu_cxx17__normal_iteratorIPN4giac6monomeESt6vectorIS2_SaIS2_EEEppEv @7672
    _ZN9__gnu_cxx17__normal_iteratorIPN4giac6tdeg_tESt6vectorIS2_SaIS2_EEEC1ERKS3_ @7673
    _ZN9__gnu_cxx17__normal_iteratorIPN4giac6tensorINS1_3genEEESt6vectorIS4_SaIS4_EEEC1ERKS5_ @7674
    _ZN9__gnu_cxx17__normal_iteratorIPN4giac6tensorINS1_3genEEESt6vectorIS4_SaIS4_EEEmmEv @7675
    _ZN9__gnu_cxx17__normal_iteratorIPN4giac6tensorINS1_3genEEESt6vectorIS4_SaIS4_EEEppEv @7676
    _ZN9__gnu_cxx17__normal_iteratorIPN4giac7basis_tESt6vectorIS2_SaIS2_EEEC1ERKS3_ @7677
    _ZN9__gnu_cxx17__normal_iteratorIPN4giac7facteurINS1_15dbgprint_vectorINS1_3genEEEEESt6vectorIS6_SaIS6_EEEC1ERKS7_ @7678
    _ZN9__gnu_cxx17__normal_iteratorIPN4giac7facteurINS1_15dbgprint_vectorINS1_3genEEEEESt6vectorIS6_SaIS6_EEEppEv @7679
    _ZN9__gnu_cxx17__normal_iteratorIPN4giac7facteurINS1_6tensorINS1_3genEEEEESt6vectorIS6_SaIS6_EEEC1ERKS7_ @7680
    _ZN9__gnu_cxx17__normal_iteratorIPN4giac7facteurINS1_6tensorINS1_3genEEEEESt6vectorIS6_SaIS6_EEEmmEv @7681
    _ZN9__gnu_cxx17__normal_iteratorIPN4giac7facteurINS1_6tensorINS1_3genEEEEESt6vectorIS6_SaIS6_EEEppEv @7682
    _ZN9__gnu_cxx17__normal_iteratorIPN4giac7heap_ttESt6vectorIS2_SaIS2_EEEC1ERKS3_ @7683
    _ZN9__gnu_cxx17__normal_iteratorIPN4giac7heap_ttESt6vectorIS2_SaIS2_EEEmmEv @7684
    _ZN9__gnu_cxx17__normal_iteratorIPN4giac7index_mESt6vectorIS2_SaIS2_EEEC1ERKS3_ @7685
    _ZN9__gnu_cxx17__normal_iteratorIPN4giac7nfactorESt6vectorIS2_SaIS2_EEEC1ERKS3_ @7686
    _ZN9__gnu_cxx17__normal_iteratorIPN4giac7nr_progESt6vectorIS2_SaIS2_EEEC1ERKS3_ @7687
    _ZN9__gnu_cxx17__normal_iteratorIPN4giac7polymodESt6vectorIS2_SaIS2_EEEC1ERKS3_ @7688
    _ZN9__gnu_cxx17__normal_iteratorIPN4giac7polymodESt6vectorIS2_SaIS2_EEEppEv @7689
    _ZN9__gnu_cxx17__normal_iteratorIPN4giac7zinfo_tESt6vectorIS2_SaIS2_EEEC1ERKS3_ @7690
    _ZN9__gnu_cxx17__normal_iteratorIPN4giac8monomialINS1_3genEEESt6vectorIS4_SaIS4_EEEC1ERKS5_ @7691
    _ZN9__gnu_cxx17__normal_iteratorIPN4giac8monomialINS1_3genEEESt6vectorIS4_SaIS4_EEEmmEv @7692
    _ZN9__gnu_cxx17__normal_iteratorIPN4giac8monomialINS1_3genEEESt6vectorIS4_SaIS4_EEEppEv @7693
    _ZN9__gnu_cxx17__normal_iteratorIPN4giac8sparse32ESt6vectorIS2_SaIS2_EEEC1ERKS3_ @7694
    _ZN9__gnu_cxx17__normal_iteratorIPN4giac8zpolymodESt6vectorIS2_SaIS2_EEEC1ERKS3_ @7695
    _ZN9__gnu_cxx17__normal_iteratorIPN4giac9vectpoly8ESt6vectorIS2_SaIS2_EEEC1ERKS3_ @7696
    _ZN9__gnu_cxx17__normal_iteratorIPPFN4giac3genERKS2_PKNS1_7contextEESt6vectorIS9_SaIS9_EEEC1ERKSA_ @7697
    _ZN9__gnu_cxx17__normal_iteratorIPPKN4giac18unary_function_ptrESt6vectorIS4_SaIS4_EEEC1ERKS5_ @7698
    _ZN9__gnu_cxx17__normal_iteratorIPPKcSt6vectorIS2_SaIS2_EEEC1ERKS3_ @7699
    _ZN9__gnu_cxx17__normal_iteratorIPPN4giac7contextESt6vectorIS3_SaIS3_EEEC1ERKS4_ @7700
    _ZN9__gnu_cxx17__normal_iteratorIPSsSt6vectorISsSaISsEEEC1ERKS1_ @7701
    _ZN9__gnu_cxx17__normal_iteratorIPSsSt6vectorISsSaISsEEEC1Ev @7702
    _ZN9__gnu_cxx17__normal_iteratorIPSsSt6vectorISsSaISsEEEmmEv @7703
    _ZN9__gnu_cxx17__normal_iteratorIPSsSt6vectorISsSaISsEEEppEv @7704
    _ZN9__gnu_cxx17__normal_iteratorIPSt4pairIiiESt6vectorIS2_SaIS2_EEEC1ERKS3_ @7705
    _ZN9__gnu_cxx17__normal_iteratorIPSt4pairIiiESt6vectorIS2_SaIS2_EEEmmEv @7706
    _ZN9__gnu_cxx17__normal_iteratorIPSt4pairIiiESt6vectorIS2_SaIS2_EEEppEv @7707
    _ZN9__gnu_cxx17__normal_iteratorIPSt4pairIjjESt6vectorIS2_SaIS2_EEEC1ERKS3_ @7708
    _ZN9__gnu_cxx17__normal_iteratorIPSt4pairIjjESt6vectorIS2_SaIS2_EEEC1Ev @7709
    _ZN9__gnu_cxx17__normal_iteratorIPSt4pairIjjESt6vectorIS2_SaIS2_EEEppEv @7710
    _ZN9__gnu_cxx17__normal_iteratorIPSt6vectorIN4giac10T_unsignedIS1_IiSaIiEEjEESaIS6_EES1_IS8_SaIS8_EEEC1ERKS9_ @7711
    _ZN9__gnu_cxx17__normal_iteratorIPSt6vectorIN4giac10T_unsignedIS1_IiSaIiEEjEESaIS6_EES1_IS8_SaIS8_EEEmmEv @7712
    _ZN9__gnu_cxx17__normal_iteratorIPSt6vectorIN4giac10T_unsignedIS1_IiSaIiEEjEESaIS6_EES1_IS8_SaIS8_EEEppEv @7713
    _ZN9__gnu_cxx17__normal_iteratorIPSt6vectorIN4giac10T_unsignedIijEESaIS4_EES1_IS6_SaIS6_EEEC1ERKS7_ @7714
    _ZN9__gnu_cxx17__normal_iteratorIPSt6vectorIN4giac10T_unsignedIijEESaIS4_EES1_IS6_SaIS6_EEEmmEv @7715
    _ZN9__gnu_cxx17__normal_iteratorIPSt6vectorIN4giac10T_unsignedIijEESaIS4_EES1_IS6_SaIS6_EEEppEv @7716
    _ZN9__gnu_cxx17__normal_iteratorIPSt6vectorIN4giac10lp_entry_tESaIS3_EES1_IS5_SaIS5_EEEC1ERKS6_ @7717
    _ZN9__gnu_cxx17__normal_iteratorIPSt6vectorIN4giac10sparse_genESaIS3_EES1_IS5_SaIS5_EEEC1ERKS6_ @7718
    _ZN9__gnu_cxx17__normal_iteratorIPSt6vectorIN4giac14sparse_elementESaIS3_EES1_IS5_SaIS5_EEEC1ERKS6_ @7719
    _ZN9__gnu_cxx17__normal_iteratorIPSt6vectorIN4giac6tdeg_tESaIS3_EES1_IS5_SaIS5_EEEC1ERKS6_ @7720
    _ZN9__gnu_cxx17__normal_iteratorIPSt6vectorIN4giac6tdeg_tESaIS3_EES1_IS5_SaIS5_EEEppEv @7721
    _ZN9__gnu_cxx17__normal_iteratorIPSt6vectorIN4giac8sparse32ESaIS3_EES1_IS5_SaIS5_EEEC1ERKS6_ @7722
    _ZN9__gnu_cxx17__normal_iteratorIPSt6vectorISt7complexIdESaIS3_EES1_IS5_SaIS5_EEEC1ERKS6_ @7723
    _ZN9__gnu_cxx17__normal_iteratorIPSt6vectorISt7complexIdESaIS3_EES1_IS5_SaIS5_EEEppEv @7724
    _ZN9__gnu_cxx17__normal_iteratorIPSt6vectorIdSaIdEES1_IS3_SaIS3_EEEC1ERKS4_ @7725
    _ZN9__gnu_cxx17__normal_iteratorIPSt6vectorIdSaIdEES1_IS3_SaIS3_EEEpLERKi @7726
    _ZN9__gnu_cxx17__normal_iteratorIPSt6vectorIdSaIdEES1_IS3_SaIS3_EEEppEv @7727
    _ZN9__gnu_cxx17__normal_iteratorIPSt6vectorIiSaIiEES1_IS3_SaIS3_EEEC1ERKS4_ @7728
    _ZN9__gnu_cxx17__normal_iteratorIPSt6vectorIiSaIiEES1_IS3_SaIS3_EEEC1Ev @7729
    _ZN9__gnu_cxx17__normal_iteratorIPSt6vectorIiSaIiEES1_IS3_SaIS3_EEEppEv @7730
    _ZN9__gnu_cxx17__normal_iteratorIPSt6vectorIjSaIjEES1_IS3_SaIS3_EEEC1ERKS4_ @7731
    _ZN9__gnu_cxx17__normal_iteratorIPSt6vectorItSaItEES1_IS3_SaIS3_EEEC1ERKS4_ @7732
    _ZN9__gnu_cxx17__normal_iteratorIPSt7complexIdESt6vectorIS2_SaIS2_EEEC1ERKS3_ @7733
    _ZN9__gnu_cxx17__normal_iteratorIPcSt6vectorIcSaIcEEEC1ERKS1_ @7734
    _ZN9__gnu_cxx17__normal_iteratorIPcSt6vectorIcSaIcEEEppEv @7735
    _ZN9__gnu_cxx17__normal_iteratorIPdSt6vectorIdSaIdEEEC1ERKS1_ @7736
    _ZN9__gnu_cxx17__normal_iteratorIPdSt6vectorIdSaIdEEEmIERKi @7737
    _ZN9__gnu_cxx17__normal_iteratorIPdSt6vectorIdSaIdEEEmmEv @7738
    _ZN9__gnu_cxx17__normal_iteratorIPdSt6vectorIdSaIdEEEpLERKi @7739
    _ZN9__gnu_cxx17__normal_iteratorIPdSt6vectorIdSaIdEEEppEv @7740
    _ZN9__gnu_cxx17__normal_iteratorIPiSt6vectorIiSaIiEEEC1ERKS1_ @7741
    _ZN9__gnu_cxx17__normal_iteratorIPiSt6vectorIiSaIiEEEC1Ev @7742
    _ZN9__gnu_cxx17__normal_iteratorIPiSt6vectorIiSaIiEEEmIERKi @7743
    _ZN9__gnu_cxx17__normal_iteratorIPiSt6vectorIiSaIiEEEmmEv @7744
    _ZN9__gnu_cxx17__normal_iteratorIPiSt6vectorIiSaIiEEEpLERKi @7745
    _ZN9__gnu_cxx17__normal_iteratorIPiSt6vectorIiSaIiEEEppEv @7746
    _ZN9__gnu_cxx17__normal_iteratorIPjSt6vectorIjSaIjEEEC1ERKS1_ @7747
    _ZN9__gnu_cxx17__normal_iteratorIPjSt6vectorIjSaIjEEEmmEv @7748
    _ZN9__gnu_cxx17__normal_iteratorIPjSt6vectorIjSaIjEEEppEv @7749
    _ZN9__gnu_cxx17__normal_iteratorIPlSt6vectorIlSaIlEEEC1ERKS1_ @7750
    _ZN9__gnu_cxx17__normal_iteratorIPsSt6vectorIsSaIsEEEC1ERKS1_ @7751
    _ZN9__gnu_cxx17__normal_iteratorIPsSt6vectorIsSaIsEEEC1Ev @7752
    _ZN9__gnu_cxx17__normal_iteratorIPsSt6vectorIsSaIsEEEmmEv @7753
    _ZN9__gnu_cxx17__normal_iteratorIPsSt6vectorIsSaIsEEEppEv @7754
    _ZN9__gnu_cxx17__normal_iteratorIPtSt6vectorItSaItEEEC1ERKS1_ @7755
    _ZN9__gnu_cxx17__normal_iteratorIPxSt6vectorIxSaIxEEEC1ERKS1_ @7756
    _ZN9__gnu_cxx17__normal_iteratorIPxSt6vectorIxSaIxEEEpLERKi @7757
    _ZN9__gnu_cxx17__normal_iteratorIPxSt6vectorIxSaIxEEEppEv @7758
    _ZN9__gnu_cxxeqIPKN4giac10T_unsignedINS1_15dbgprint_vectorINS1_3genEEEjEEPS6_St6vectorIS6_SaIS6_EEEEbRKNS_17__normal_iteratorIT_T1_EERKNSD_IT0_SF_EE @7759
    _ZN9__gnu_cxxeqIPKN4giac10T_unsignedINS1_15dbgprint_vectorINS1_3genEEEjEESt6vectorIS6_SaIS6_EEEEbRKNS_17__normal_iteratorIT_T0_EESH_ @7760
    _ZN9__gnu_cxxeqIPKN4giac10T_unsignedINS1_3genENS1_6tdeg_tEEESt6vectorIS5_SaIS5_EEEEbRKNS_17__normal_iteratorIT_T0_EESG_ @7761
    _ZN9__gnu_cxxeqIPKN4giac10T_unsignedINS1_3genEjEESt6vectorIS4_SaIS4_EEEEbRKNS_17__normal_iteratorIT_T0_EESF_ @7762
    _ZN9__gnu_cxxeqIPKN4giac10T_unsignedINS1_3genEyEESt6vectorIS4_SaIS4_EEEEbRKNS_17__normal_iteratorIT_T0_EESF_ @7763
    _ZN9__gnu_cxxeqIPKN4giac10T_unsignedISt6vectorIiSaIiEEjEES3_IS6_SaIS6_EEEEbRKNS_17__normal_iteratorIT_T0_EESG_ @7764
    _ZN9__gnu_cxxeqIPKN4giac10T_unsignedIdjEESt6vectorIS3_SaIS3_EEEEbRKNS_17__normal_iteratorIT_T0_EESE_ @7765
    _ZN9__gnu_cxxeqIPKN4giac10T_unsignedIdyEESt6vectorIS3_SaIS3_EEEEbRKNS_17__normal_iteratorIT_T0_EESE_ @7766
    _ZN9__gnu_cxxeqIPKN4giac10T_unsignedIiNS1_6tdeg_tEEESt6vectorIS4_SaIS4_EEEEbRKNS_17__normal_iteratorIT_T0_EESF_ @7767
    _ZN9__gnu_cxxeqIPKN4giac10T_unsignedIijEESt6vectorIS3_SaIS3_EEEEbRKNS_17__normal_iteratorIT_T0_EESE_ @7768
    _ZN9__gnu_cxxeqIPKN4giac10T_unsignedIiyEESt6vectorIS3_SaIS3_EEEEbRKNS_17__normal_iteratorIT_T0_EESE_ @7769
    _ZN9__gnu_cxxeqIPKN4giac10T_unsignedIxjEESt6vectorIS3_SaIS3_EEEEbRKNS_17__normal_iteratorIT_T0_EESE_ @7770
    _ZN9__gnu_cxxeqIPKN4giac10T_unsignedIxyEESt6vectorIS3_SaIS3_EEEEbRKNS_17__normal_iteratorIT_T0_EESE_ @7771
    _ZN9__gnu_cxxeqIPKN4giac10lp_entry_tESt6vectorIS2_SaIS2_EEEEbRKNS_17__normal_iteratorIT_T0_EESD_ @7772
    _ZN9__gnu_cxxeqIPKN4giac11heap_tt_ptrESt6vectorIS2_SaIS2_EEEEbRKNS_17__normal_iteratorIT_T0_EESD_ @7773
    _ZN9__gnu_cxxeqIPKN4giac13nr_pointers_tESt6vectorIS2_SaIS2_EEEEbRKNS_17__normal_iteratorIT_T0_EESD_ @7774
    _ZN9__gnu_cxxeqIPKN4giac14sparse_elementESt6vectorIS2_SaIS2_EEEEbRKNS_17__normal_iteratorIT_T0_EESD_ @7775
    _ZN9__gnu_cxxeqIPKN4giac15dbgprint_vectorINS1_3genEEESt6vectorIS4_SaIS4_EEEEbRKNS_17__normal_iteratorIT_T0_EESF_ @7776
    _ZN9__gnu_cxxeqIPKN4giac3genEPS2_St6vectorIS2_SaIS2_EEEEbRKNS_17__normal_iteratorIT_T1_EERKNS9_IT0_SB_EE @7777
    _ZN9__gnu_cxxeqIPKN4giac3genESt6vectorIS2_SaIS2_EEEEbRKNS_17__normal_iteratorIT_T0_EESD_ @7778
    _ZN9__gnu_cxxeqIPKN4giac4aideESt6vectorIS2_SaIS2_EEEEbRKNS_17__normal_iteratorIT_T0_EESD_ @7779
    _ZN9__gnu_cxxeqIPKN4giac5poly8ESt6vectorIS2_SaIS2_EEEEbRKNS_17__normal_iteratorIT_T0_EESD_ @7780
    _ZN9__gnu_cxxeqIPKN4giac6heap_tESt6vectorIS2_SaIS2_EEEEbRKNS_17__normal_iteratorIT_T0_EESD_ @7781
    _ZN9__gnu_cxxeqIPKN4giac6monomeESt6vectorIS2_SaIS2_EEEEbRKNS_17__normal_iteratorIT_T0_EESD_ @7782
    _ZN9__gnu_cxxeqIPKN4giac6tdeg_tESt6vectorIS2_SaIS2_EEEEbRKNS_17__normal_iteratorIT_T0_EESD_ @7783
    _ZN9__gnu_cxxeqIPKN4giac6tensorINS1_3genEEESt6vectorIS4_SaIS4_EEEEbRKNS_17__normal_iteratorIT_T0_EESF_ @7784
    _ZN9__gnu_cxxeqIPKN4giac7facteurINS1_6tensorINS1_3genEEEEESt6vectorIS6_SaIS6_EEEEbRKNS_17__normal_iteratorIT_T0_EESH_ @7785
    _ZN9__gnu_cxxeqIPKN4giac7heap_ttESt6vectorIS2_SaIS2_EEEEbRKNS_17__normal_iteratorIT_T0_EESD_ @7786
    _ZN9__gnu_cxxeqIPKN4giac7index_mESt6vectorIS2_SaIS2_EEEEbRKNS_17__normal_iteratorIT_T0_EESD_ @7787
    _ZN9__gnu_cxxeqIPKN4giac7polymodESt6vectorIS2_SaIS2_EEEEbRKNS_17__normal_iteratorIT_T0_EESD_ @7788
    _ZN9__gnu_cxxeqIPKN4giac7zinfo_tESt6vectorIS2_SaIS2_EEEEbRKNS_17__normal_iteratorIT_T0_EESD_ @7789
    _ZN9__gnu_cxxeqIPKN4giac8monomialINS1_3genEEESt6vectorIS4_SaIS4_EEEEbRKNS_17__normal_iteratorIT_T0_EESF_ @7790
    _ZN9__gnu_cxxeqIPKN4giac8sparse32ESt6vectorIS2_SaIS2_EEEEbRKNS_17__normal_iteratorIT_T0_EESD_ @7791
    _ZN9__gnu_cxxeqIPKPKN4giac18unary_function_ptrESt6vectorIS4_SaIS4_EEEEbRKNS_17__normal_iteratorIT_T0_EESF_ @7792
    _ZN9__gnu_cxxeqIPKPKcSt6vectorIS2_SaIS2_EEEEbRKNS_17__normal_iteratorIT_T0_EESD_ @7793
    _ZN9__gnu_cxxeqIPKSsPSsSt6vectorISsSaISsEEEEbRKNS_17__normal_iteratorIT_T1_EERKNS7_IT0_S9_EE @7794
    _ZN9__gnu_cxxeqIPKSsSt6vectorISsSaISsEEEEbRKNS_17__normal_iteratorIT_T0_EESB_ @7795
    _ZN9__gnu_cxxeqIPKSt4pairIjjESt6vectorIS2_SaIS2_EEEEbRKNS_17__normal_iteratorIT_T0_EESD_ @7796
    _ZN9__gnu_cxxeqIPKSt6vectorIdSaIdEES1_IS3_SaIS3_EEEEbRKNS_17__normal_iteratorIT_T0_EESD_ @7797
    _ZN9__gnu_cxxeqIPKSt6vectorIiSaIiEES1_IS3_SaIS3_EEEEbRKNS_17__normal_iteratorIT_T0_EESD_ @7798
    _ZN9__gnu_cxxeqIPKSt6vectorIjSaIjEES1_IS3_SaIS3_EEEEbRKNS_17__normal_iteratorIT_T0_EESD_ @7799
    _ZN9__gnu_cxxeqIPKdPdSt6vectorIdSaIdEEEEbRKNS_17__normal_iteratorIT_T1_EERKNS7_IT0_S9_EE @7800
    _ZN9__gnu_cxxeqIPKdSt6vectorIdSaIdEEEEbRKNS_17__normal_iteratorIT_T0_EESB_ @7801
    _ZN9__gnu_cxxeqIPKiSt6vectorIiSaIiEEEEbRKNS_17__normal_iteratorIT_T0_EESB_ @7802
    _ZN9__gnu_cxxeqIPKjSt6vectorIjSaIjEEEEbRKNS_17__normal_iteratorIT_T0_EESB_ @7803
    _ZN9__gnu_cxxeqIPKsSt6vectorIsSaIsEEEEbRKNS_17__normal_iteratorIT_T0_EESB_ @7804
    _ZN9__gnu_cxxeqIPKtSt6vectorItSaItEEEEbRKNS_17__normal_iteratorIT_T0_EESB_ @7805
    _ZN9__gnu_cxxeqIPN4giac10T_unsignedINS1_15dbgprint_vectorINS1_3genEEEjEESt6vectorIS6_SaIS6_EEEEbRKNS_17__normal_iteratorIT_T0_EESG_ @7806
    _ZN9__gnu_cxxeqIPN4giac10T_unsignedINS1_3genENS1_6tdeg_tEEESt6vectorIS5_SaIS5_EEEEbRKNS_17__normal_iteratorIT_T0_EESF_ @7807
    _ZN9__gnu_cxxeqIPN4giac10T_unsignedINS1_3genEjEESt6vectorIS4_SaIS4_EEEEbRKNS_17__normal_iteratorIT_T0_EESE_ @7808
    _ZN9__gnu_cxxeqIPN4giac10T_unsignedINS1_3genEyEESt6vectorIS4_SaIS4_EEEEbRKNS_17__normal_iteratorIT_T0_EESE_ @7809
    _ZN9__gnu_cxxeqIPN4giac10T_unsignedISt6vectorIiSaIiEEjEES3_IS6_SaIS6_EEEEbRKNS_17__normal_iteratorIT_T0_EESF_ @7810
    _ZN9__gnu_cxxeqIPN4giac10T_unsignedIdjEESt6vectorIS3_SaIS3_EEEEbRKNS_17__normal_iteratorIT_T0_EESD_ @7811
    _ZN9__gnu_cxxeqIPN4giac10T_unsignedIdyEESt6vectorIS3_SaIS3_EEEEbRKNS_17__normal_iteratorIT_T0_EESD_ @7812
    _ZN9__gnu_cxxeqIPN4giac10T_unsignedIiNS1_6tdeg_tEEESt6vectorIS4_SaIS4_EEEEbRKNS_17__normal_iteratorIT_T0_EESE_ @7813
    _ZN9__gnu_cxxeqIPN4giac10T_unsignedIijEESt6vectorIS3_SaIS3_EEEEbRKNS_17__normal_iteratorIT_T0_EESD_ @7814
    _ZN9__gnu_cxxeqIPN4giac10T_unsignedIiyEESt6vectorIS3_SaIS3_EEEEbRKNS_17__normal_iteratorIT_T0_EESD_ @7815
    _ZN9__gnu_cxxeqIPN4giac10T_unsignedIxjEESt6vectorIS3_SaIS3_EEEEbRKNS_17__normal_iteratorIT_T0_EESD_ @7816
    _ZN9__gnu_cxxeqIPN4giac10T_unsignedIxyEESt6vectorIS3_SaIS3_EEEEbRKNS_17__normal_iteratorIT_T0_EESD_ @7817
    _ZN9__gnu_cxxeqIPN4giac14sparse_elementESt6vectorIS2_SaIS2_EEEEbRKNS_17__normal_iteratorIT_T0_EESC_ @7818
    _ZN9__gnu_cxxeqIPN4giac16localized_stringESt6vectorIS2_SaIS2_EEEEbRKNS_17__normal_iteratorIT_T0_EESC_ @7819
    _ZN9__gnu_cxxeqIPN4giac3genESt6vectorIS2_SaIS2_EEEEbRKNS_17__normal_iteratorIT_T0_EESC_ @7820
    _ZN9__gnu_cxxeqIPN4giac3pf1EPKS2_St6vectorIS2_SaIS2_EEEEbRKNS_17__normal_iteratorIT_T1_EERKNS9_IT0_SB_EE @7821
    _ZN9__gnu_cxxeqIPN4giac4aideESt6vectorIS2_SaIS2_EEEEbRKNS_17__normal_iteratorIT_T0_EESC_ @7822
    _ZN9__gnu_cxxeqIPN4giac4xeffESt6vectorIS2_SaIS2_EEEEbRKNS_17__normal_iteratorIT_T0_EESC_ @7823
    _ZN9__gnu_cxxeqIPN4giac6line_tESt6vectorIS2_SaIS2_EEEEbRKNS_17__normal_iteratorIT_T0_EESC_ @7824
    _ZN9__gnu_cxxeqIPN4giac6monomeESt6vectorIS2_SaIS2_EEEEbRKNS_17__normal_iteratorIT_T0_EESC_ @7825
    _ZN9__gnu_cxxeqIPN4giac6tensorINS1_3genEEESt6vectorIS4_SaIS4_EEEEbRKNS_17__normal_iteratorIT_T0_EESE_ @7826
    _ZN9__gnu_cxxeqIPN4giac7facteurINS1_6tensorINS1_3genEEEEESt6vectorIS6_SaIS6_EEEEbRKNS_17__normal_iteratorIT_T0_EESG_ @7827
    _ZN9__gnu_cxxeqIPN4giac7index_mESt6vectorIS2_SaIS2_EEEEbRKNS_17__normal_iteratorIT_T0_EESC_ @7828
    _ZN9__gnu_cxxeqIPN4giac7polymodESt6vectorIS2_SaIS2_EEEEbRKNS_17__normal_iteratorIT_T0_EESC_ @7829
    _ZN9__gnu_cxxeqIPN4giac8monomialINS1_3genEEEPKS4_St6vectorIS4_SaIS4_EEEEbRKNS_17__normal_iteratorIT_T1_EERKNSB_IT0_SD_EE @7830
    _ZN9__gnu_cxxeqIPN4giac8monomialINS1_3genEEESt6vectorIS4_SaIS4_EEEEbRKNS_17__normal_iteratorIT_T0_EESE_ @7831
    _ZN9__gnu_cxxeqIPSsSt6vectorISsSaISsEEEEbRKNS_17__normal_iteratorIT_T0_EESA_ @7832
    _ZN9__gnu_cxxeqIPSt4pairIiiESt6vectorIS2_SaIS2_EEEEbRKNS_17__normal_iteratorIT_T0_EESC_ @7833
    _ZN9__gnu_cxxeqIPSt6vectorIN4giac10T_unsignedIS1_IiSaIiEEjEESaIS6_EES1_IS8_SaIS8_EEEEbRKNS_17__normal_iteratorIT_T0_EESH_ @7834
    _ZN9__gnu_cxxeqIPSt6vectorIN4giac10T_unsignedIijEESaIS4_EES1_IS6_SaIS6_EEEEbRKNS_17__normal_iteratorIT_T0_EESF_ @7835
    _ZN9__gnu_cxxeqIPdSt6vectorIdSaIdEEEEbRKNS_17__normal_iteratorIT_T0_EESA_ @7836
    _ZN9__gnu_cxxeqIPiSt6vectorIiSaIiEEEEbRKNS_17__normal_iteratorIT_T0_EESA_ @7837
    _ZN9__gnu_cxxeqIPjSt6vectorIjSaIjEEEEbRKNS_17__normal_iteratorIT_T0_EESA_ @7838
    _ZN9__gnu_cxxeqIPsSt6vectorIsSaIsEEEEbRKNS_17__normal_iteratorIT_T0_EESA_ @7839
    _ZN9__gnu_cxxgeIPKN4giac10T_unsignedINS1_3genENS1_6tdeg_tEEESt6vectorIS5_SaIS5_EEEEbRKNS_17__normal_iteratorIT_T0_EESG_ @7840
    _ZN9__gnu_cxxgeIPKN4giac10T_unsignedIiNS1_6tdeg_tEEEPS4_St6vectorIS4_SaIS4_EEEEbRKNS_17__normal_iteratorIT_T1_EERKNSB_IT0_SD_EE @7841
    _ZN9__gnu_cxxgeIPKN4giac10T_unsignedIiNS1_6tdeg_tEEESt6vectorIS4_SaIS4_EEEEbRKNS_17__normal_iteratorIT_T0_EESF_ @7842
    _ZN9__gnu_cxxgeIPKN4giac8monomialINS1_3genEEESt6vectorIS4_SaIS4_EEEEbRKNS_17__normal_iteratorIT_T0_EESF_ @7843
    _ZN9__gnu_cxxleIPKN4giac8sparse32ESt6vectorIS2_SaIS2_EEEEbRKNS_17__normal_iteratorIT_T0_EESD_ @7844
    _ZN9__gnu_cxxleIPKSt6vectorIdSaIdEES1_IS3_SaIS3_EEEEbRKNS_17__normal_iteratorIT_T0_EESD_ @7845
    _ZN9__gnu_cxxleIPKSt6vectorIiSaIiEES1_IS3_SaIS3_EEEEbRKNS_17__normal_iteratorIT_T0_EESD_ @7846
    _ZN9__gnu_cxxleIPdSt6vectorIdSaIdEEEEbRKNS_17__normal_iteratorIT_T0_EESA_ @7847
    _ZN9__gnu_cxxleIPiSt6vectorIiSaIiEEEEbRKNS_17__normal_iteratorIT_T0_EESA_ @7848
    _ZN9__gnu_cxxltIPKN4giac14sparse_elementESt6vectorIS2_SaIS2_EEEEbRKNS_17__normal_iteratorIT_T0_EESD_ @7849
    _ZN9__gnu_cxxltIPKN4giac3genESt6vectorIS2_SaIS2_EEEEbRKNS_17__normal_iteratorIT_T0_EESD_ @7850
    _ZN9__gnu_cxxltIPKSt6vectorIdSaIdEES1_IS3_SaIS3_EEEEbRKNS_17__normal_iteratorIT_T0_EESD_ @7851
    _ZN9__gnu_cxxltIPKSt6vectorIiSaIiEES1_IS3_SaIS3_EEEEbRKNS_17__normal_iteratorIT_T0_EESD_ @7852
    _ZN9__gnu_cxxltIPN4giac10T_unsignedINS1_15dbgprint_vectorINS1_3genEEEjEESt6vectorIS6_SaIS6_EEEEbRKNS_17__normal_iteratorIT_T0_EESG_ @7853
    _ZN9__gnu_cxxltIPN4giac10T_unsignedINS1_3genEjEESt6vectorIS4_SaIS4_EEEEbRKNS_17__normal_iteratorIT_T0_EESE_ @7854
    _ZN9__gnu_cxxltIPN4giac10T_unsignedINS1_3genEyEESt6vectorIS4_SaIS4_EEEEbRKNS_17__normal_iteratorIT_T0_EESE_ @7855
    _ZN9__gnu_cxxltIPN4giac10T_unsignedISt6vectorIiSaIiEEjEES3_IS6_SaIS6_EEEEbRKNS_17__normal_iteratorIT_T0_EESF_ @7856
    _ZN9__gnu_cxxltIPN4giac10T_unsignedIdjEESt6vectorIS3_SaIS3_EEEEbRKNS_17__normal_iteratorIT_T0_EESD_ @7857
    _ZN9__gnu_cxxltIPN4giac10T_unsignedIdyEESt6vectorIS3_SaIS3_EEEEbRKNS_17__normal_iteratorIT_T0_EESD_ @7858
    _ZN9__gnu_cxxltIPN4giac10T_unsignedIiNS1_6tdeg_tEEESt6vectorIS4_SaIS4_EEEEbRKNS_17__normal_iteratorIT_T0_EESE_ @7859
    _ZN9__gnu_cxxltIPN4giac10T_unsignedIijEESt6vectorIS3_SaIS3_EEEEbRKNS_17__normal_iteratorIT_T0_EESD_ @7860
    _ZN9__gnu_cxxltIPN4giac10T_unsignedIiyEESt6vectorIS3_SaIS3_EEEEbRKNS_17__normal_iteratorIT_T0_EESD_ @7861
    _ZN9__gnu_cxxltIPN4giac10T_unsignedIxjEESt6vectorIS3_SaIS3_EEEEbRKNS_17__normal_iteratorIT_T0_EESD_ @7862
    _ZN9__gnu_cxxltIPN4giac10T_unsignedIxyEESt6vectorIS3_SaIS3_EEEEbRKNS_17__normal_iteratorIT_T0_EESD_ @7863
    _ZN9__gnu_cxxltIPN4giac14sparse_elementESt6vectorIS2_SaIS2_EEEEbRKNS_17__normal_iteratorIT_T0_EESC_ @7864
    _ZN9__gnu_cxxltIPN4giac16localized_stringESt6vectorIS2_SaIS2_EEEEbRKNS_17__normal_iteratorIT_T0_EESC_ @7865
    _ZN9__gnu_cxxltIPN4giac3genESt6vectorIS2_SaIS2_EEEEbRKNS_17__normal_iteratorIT_T0_EESC_ @7866
    _ZN9__gnu_cxxltIPN4giac4aideESt6vectorIS2_SaIS2_EEEEbRKNS_17__normal_iteratorIT_T0_EESC_ @7867
    _ZN9__gnu_cxxltIPN4giac4xeffESt6vectorIS2_SaIS2_EEEEbRKNS_17__normal_iteratorIT_T0_EESC_ @7868
    _ZN9__gnu_cxxltIPN4giac6line_tESt6vectorIS2_SaIS2_EEEEbRKNS_17__normal_iteratorIT_T0_EESC_ @7869
    _ZN9__gnu_cxxltIPN4giac6monomeESt6vectorIS2_SaIS2_EEEEbRKNS_17__normal_iteratorIT_T0_EESC_ @7870
    _ZN9__gnu_cxxltIPN4giac6tensorINS1_3genEEESt6vectorIS4_SaIS4_EEEEbRKNS_17__normal_iteratorIT_T0_EESE_ @7871
    _ZN9__gnu_cxxltIPN4giac7facteurINS1_6tensorINS1_3genEEEEESt6vectorIS6_SaIS6_EEEEbRKNS_17__normal_iteratorIT_T0_EESG_ @7872
    _ZN9__gnu_cxxltIPN4giac8monomialINS1_3genEEESt6vectorIS4_SaIS4_EEEEbRKNS_17__normal_iteratorIT_T0_EESE_ @7873
    _ZN9__gnu_cxxltIPSsSt6vectorISsSaISsEEEEbRKNS_17__normal_iteratorIT_T0_EESA_ @7874
    _ZN9__gnu_cxxltIPSt4pairIiiESt6vectorIS2_SaIS2_EEEEbRKNS_17__normal_iteratorIT_T0_EESC_ @7875
    _ZN9__gnu_cxxltIPSt6vectorIN4giac10T_unsignedIS1_IiSaIiEEjEESaIS6_EES1_IS8_SaIS8_EEEEbRKNS_17__normal_iteratorIT_T0_EESH_ @7876
    _ZN9__gnu_cxxltIPSt6vectorIN4giac10T_unsignedIijEESaIS4_EES1_IS6_SaIS6_EEEEbRKNS_17__normal_iteratorIT_T0_EESF_ @7877
    _ZN9__gnu_cxxltIPdSt6vectorIdSaIdEEEEbRKNS_17__normal_iteratorIT_T0_EESA_ @7878
    _ZN9__gnu_cxxltIPiSt6vectorIiSaIiEEEEbRKNS_17__normal_iteratorIT_T0_EESA_ @7879
    _ZN9__gnu_cxxltIPjSt6vectorIjSaIjEEEEbRKNS_17__normal_iteratorIT_T0_EESA_ @7880
    _ZN9__gnu_cxxltIPsSt6vectorIsSaIsEEEEbRKNS_17__normal_iteratorIT_T0_EESA_ @7881
    _ZN9__gnu_cxxmiIPKN4giac10T_unsignedINS1_15dbgprint_vectorINS1_3genEEEjEESt6vectorIS6_SaIS6_EEEENS_17__normal_iteratorIT_T0_E15difference_typeERKSF_SI_ @7882
    _ZN9__gnu_cxxmiIPKN4giac10T_unsignedINS1_3genENS1_6tdeg_tEEESt6vectorIS5_SaIS5_EEEENS_17__normal_iteratorIT_T0_E15difference_typeERKSE_SH_ @7883
    _ZN9__gnu_cxxmiIPKN4giac10T_unsignedINS1_3genEjEESt6vectorIS4_SaIS4_EEEENS_17__normal_iteratorIT_T0_E15difference_typeERKSD_SG_ @7884
    _ZN9__gnu_cxxmiIPKN4giac10T_unsignedINS1_3genEyEESt6vectorIS4_SaIS4_EEEENS_17__normal_iteratorIT_T0_E15difference_typeERKSD_SG_ @7885
    _ZN9__gnu_cxxmiIPKN4giac10T_unsignedISt6vectorIiSaIiEEjEES3_IS6_SaIS6_EEEENS_17__normal_iteratorIT_T0_E15difference_typeERKSE_SH_ @7886
    _ZN9__gnu_cxxmiIPKN4giac10T_unsignedIdjEESt6vectorIS3_SaIS3_EEEENS_17__normal_iteratorIT_T0_E15difference_typeERKSC_SF_ @7887
    _ZN9__gnu_cxxmiIPKN4giac10T_unsignedIdyEESt6vectorIS3_SaIS3_EEEENS_17__normal_iteratorIT_T0_E15difference_typeERKSC_SF_ @7888
    _ZN9__gnu_cxxmiIPKN4giac10T_unsignedIiNS1_6tdeg_tEEESt6vectorIS4_SaIS4_EEEENS_17__normal_iteratorIT_T0_E15difference_typeERKSD_SG_ @7889
    _ZN9__gnu_cxxmiIPKN4giac10T_unsignedIijEESt6vectorIS3_SaIS3_EEEENS_17__normal_iteratorIT_T0_E15difference_typeERKSC_SF_ @7890
    _ZN9__gnu_cxxmiIPKN4giac10T_unsignedIiyEESt6vectorIS3_SaIS3_EEEENS_17__normal_iteratorIT_T0_E15difference_typeERKSC_SF_ @7891
    _ZN9__gnu_cxxmiIPKN4giac10T_unsignedIxjEESt6vectorIS3_SaIS3_EEEENS_17__normal_iteratorIT_T0_E15difference_typeERKSC_SF_ @7892
    _ZN9__gnu_cxxmiIPKN4giac10T_unsignedIxyEESt6vectorIS3_SaIS3_EEEENS_17__normal_iteratorIT_T0_E15difference_typeERKSC_SF_ @7893
    _ZN9__gnu_cxxmiIPKN4giac11logo_turtleESt6vectorIS2_SaIS2_EEEENS_17__normal_iteratorIT_T0_E15difference_typeERKSB_SE_ @7894
    _ZN9__gnu_cxxmiIPKN4giac15dbgprint_vectorINS1_3genEEESt6vectorIS4_SaIS4_EEEENS_17__normal_iteratorIT_T0_E15difference_typeERKSD_SG_ @7895
    _ZN9__gnu_cxxmiIPKN4giac3genEPS2_St6vectorIS2_SaIS2_EEEENS_17__normal_iteratorIT_T1_E15difference_typeERKSC_RKNS9_IT0_SB_EE @7896
    _ZN9__gnu_cxxmiIPKN4giac3genESt6vectorIS2_SaIS2_EEEENS_17__normal_iteratorIT_T0_E15difference_typeERKSB_SE_ @7897
    _ZN9__gnu_cxxmiIPKN4giac5poly8ESt6vectorIS2_SaIS2_EEEENS_17__normal_iteratorIT_T0_E15difference_typeERKSB_SE_ @7898
    _ZN9__gnu_cxxmiIPKN4giac6monomeESt6vectorIS2_SaIS2_EEEENS_17__normal_iteratorIT_T0_E15difference_typeERKSB_SE_ @7899
    _ZN9__gnu_cxxmiIPKN4giac6tdeg_tESt6vectorIS2_SaIS2_EEEENS_17__normal_iteratorIT_T0_E15difference_typeERKSB_SE_ @7900
    _ZN9__gnu_cxxmiIPKN4giac6tensorINS1_3genEEESt6vectorIS4_SaIS4_EEEENS_17__normal_iteratorIT_T0_E15difference_typeERKSD_SG_ @7901
    _ZN9__gnu_cxxmiIPKN4giac7facteurINS1_6tensorINS1_3genEEEEESt6vectorIS6_SaIS6_EEEENS_17__normal_iteratorIT_T0_E15difference_typeERKSF_SI_ @7902
    _ZN9__gnu_cxxmiIPKN4giac7polymodESt6vectorIS2_SaIS2_EEEENS_17__normal_iteratorIT_T0_E15difference_typeERKSB_SE_ @7903
    _ZN9__gnu_cxxmiIPKN4giac8monomialINS1_3genEEESt6vectorIS4_SaIS4_EEEENS_17__normal_iteratorIT_T0_E15difference_typeERKSD_SG_ @7904
    _ZN9__gnu_cxxmiIPKSt6vectorISt7complexIdESaIS3_EES1_IS5_SaIS5_EEEENS_17__normal_iteratorIT_T0_E15difference_typeERKSD_SG_ @7905
    _ZN9__gnu_cxxmiIPKSt6vectorIdSaIdEES1_IS3_SaIS3_EEEENS_17__normal_iteratorIT_T0_E15difference_typeERKSB_SE_ @7906
    _ZN9__gnu_cxxmiIPKSt6vectorIiSaIiEES1_IS3_SaIS3_EEEENS_17__normal_iteratorIT_T0_E15difference_typeERKSB_SE_ @7907
    _ZN9__gnu_cxxmiIPKcSt6vectorIcSaIcEEEENS_17__normal_iteratorIT_T0_E15difference_typeERKS9_SC_ @7908
    _ZN9__gnu_cxxmiIPKdSt6vectorIdSaIdEEEENS_17__normal_iteratorIT_T0_E15difference_typeERKS9_SC_ @7909
    _ZN9__gnu_cxxmiIPKiSt6vectorIiSaIiEEEENS_17__normal_iteratorIT_T0_E15difference_typeERKS9_SC_ @7910
    _ZN9__gnu_cxxmiIPKjSt6vectorIjSaIjEEEENS_17__normal_iteratorIT_T0_E15difference_typeERKS9_SC_ @7911
    _ZN9__gnu_cxxmiIPKsSt6vectorIsSaIsEEEENS_17__normal_iteratorIT_T0_E15difference_typeERKS9_SC_ @7912
    _ZN9__gnu_cxxmiIPKySt6vectorIySaIyEEEENS_17__normal_iteratorIT_T0_E15difference_typeERKS9_SC_ @7913
    _ZN9__gnu_cxxmiIPN4giac10T_unsignedINS1_15dbgprint_vectorINS1_3genEEEjEESt6vectorIS6_SaIS6_EEEENS_17__normal_iteratorIT_T0_E15difference_typeERKSE_SH_ @7914
    _ZN9__gnu_cxxmiIPN4giac10T_unsignedINS1_3genENS1_6tdeg_tEEESt6vectorIS5_SaIS5_EEEENS_17__normal_iteratorIT_T0_E15difference_typeERKSD_SG_ @7915
    _ZN9__gnu_cxxmiIPN4giac10T_unsignedINS1_3genEjEESt6vectorIS4_SaIS4_EEEENS_17__normal_iteratorIT_T0_E15difference_typeERKSC_SF_ @7916
    _ZN9__gnu_cxxmiIPN4giac10T_unsignedINS1_3genEyEESt6vectorIS4_SaIS4_EEEENS_17__normal_iteratorIT_T0_E15difference_typeERKSC_SF_ @7917
    _ZN9__gnu_cxxmiIPN4giac10T_unsignedISt6vectorIiSaIiEEjEES3_IS6_SaIS6_EEEENS_17__normal_iteratorIT_T0_E15difference_typeERKSD_SG_ @7918
    _ZN9__gnu_cxxmiIPN4giac10T_unsignedIdjEESt6vectorIS3_SaIS3_EEEENS_17__normal_iteratorIT_T0_E15difference_typeERKSB_SE_ @7919
    _ZN9__gnu_cxxmiIPN4giac10T_unsignedIdyEESt6vectorIS3_SaIS3_EEEENS_17__normal_iteratorIT_T0_E15difference_typeERKSB_SE_ @7920
    _ZN9__gnu_cxxmiIPN4giac10T_unsignedIiNS1_6tdeg_tEEESt6vectorIS4_SaIS4_EEEENS_17__normal_iteratorIT_T0_E15difference_typeERKSC_SF_ @7921
    _ZN9__gnu_cxxmiIPN4giac10T_unsignedIijEESt6vectorIS3_SaIS3_EEEENS_17__normal_iteratorIT_T0_E15difference_typeERKSB_SE_ @7922
    _ZN9__gnu_cxxmiIPN4giac10T_unsignedIiyEESt6vectorIS3_SaIS3_EEEENS_17__normal_iteratorIT_T0_E15difference_typeERKSB_SE_ @7923
    _ZN9__gnu_cxxmiIPN4giac10T_unsignedIxjEESt6vectorIS3_SaIS3_EEEENS_17__normal_iteratorIT_T0_E15difference_typeERKSB_SE_ @7924
    _ZN9__gnu_cxxmiIPN4giac10T_unsignedIxyEESt6vectorIS3_SaIS3_EEEENS_17__normal_iteratorIT_T0_E15difference_typeERKSB_SE_ @7925
    _ZN9__gnu_cxxmiIPN4giac10lp_entry_tESt6vectorIS2_SaIS2_EEEENS_17__normal_iteratorIT_T0_E15difference_typeERKSA_SD_ @7926
    _ZN9__gnu_cxxmiIPN4giac10sparse_genESt6vectorIS2_SaIS2_EEEENS_17__normal_iteratorIT_T0_E15difference_typeERKSA_SD_ @7927
    _ZN9__gnu_cxxmiIPN4giac11heap_tt_ptrESt6vectorIS2_SaIS2_EEEENS_17__normal_iteratorIT_T0_E15difference_typeERKSA_SD_ @7928
    _ZN9__gnu_cxxmiIPN4giac11logo_turtleESt6vectorIS2_SaIS2_EEEENS_17__normal_iteratorIT_T0_E15difference_typeERKSA_SD_ @7929
    _ZN9__gnu_cxxmiIPN4giac12coeffindex_tESt6vectorIS2_SaIS2_EEEENS_17__normal_iteratorIT_T0_E15difference_typeERKSA_SD_ @7930
    _ZN9__gnu_cxxmiIPN4giac13nr_pointers_tESt6vectorIS2_SaIS2_EEEENS_17__normal_iteratorIT_T0_E15difference_typeERKSA_SD_ @7931
    _ZN9__gnu_cxxmiIPN4giac13user_functionESt6vectorIS2_SaIS2_EEEENS_17__normal_iteratorIT_T0_E15difference_typeERKSA_SD_ @7932
    _ZN9__gnu_cxxmiIPN4giac14indexed_stringESt6vectorIS2_SaIS2_EEEENS_17__normal_iteratorIT_T0_E15difference_typeERKSA_SD_ @7933
    _ZN9__gnu_cxxmiIPN4giac14sparse_elementESt6vectorIS2_SaIS2_EEEENS_17__normal_iteratorIT_T0_E15difference_typeERKSA_SD_ @7934
    _ZN9__gnu_cxxmiIPN4giac15dbgprint_vectorINS1_3genEEESt6vectorIS4_SaIS4_EEEENS_17__normal_iteratorIT_T0_E15difference_typeERKSC_SF_ @7935
    _ZN9__gnu_cxxmiIPN4giac15dbgprint_vectorINS1_6monomeEEESt6vectorIS4_SaIS4_EEEENS_17__normal_iteratorIT_T0_E15difference_typeERKSC_SF_ @7936
    _ZN9__gnu_cxxmiIPN4giac16localized_stringESt6vectorIS2_SaIS2_EEEENS_17__normal_iteratorIT_T0_E15difference_typeERKSA_SD_ @7937
    _ZN9__gnu_cxxmiIPN4giac18unary_function_ptrESt6vectorIS2_SaIS2_EEEENS_17__normal_iteratorIT_T0_E15difference_typeERKSA_SD_ @7938
    _ZN9__gnu_cxxmiIPN4giac2pfINS1_3genEEESt6vectorIS4_SaIS4_EEEENS_17__normal_iteratorIT_T0_E15difference_typeERKSC_SF_ @7939
    _ZN9__gnu_cxxmiIPN4giac3genESt6vectorIS2_SaIS2_EEEENS_17__normal_iteratorIT_T0_E15difference_typeERKSA_SD_ @7940
    _ZN9__gnu_cxxmiIPN4giac3pf1ESt6vectorIS2_SaIS2_EEEENS_17__normal_iteratorIT_T0_E15difference_typeERKSA_SD_ @7941
    _ZN9__gnu_cxxmiIPN4giac4aideESt6vectorIS2_SaIS2_EEEENS_17__normal_iteratorIT_T0_E15difference_typeERKSA_SD_ @7942
    _ZN9__gnu_cxxmiIPN4giac4xeffESt6vectorIS2_SaIS2_EEEENS_17__normal_iteratorIT_T0_E15difference_typeERKSA_SD_ @7943
    _ZN9__gnu_cxxmiIPN4giac5poly8ESt6vectorIS2_SaIS2_EEEENS_17__normal_iteratorIT_T0_E15difference_typeERKSA_SD_ @7944
    _ZN9__gnu_cxxmiIPN4giac6axbinvESt6vectorIS2_SaIS2_EEEENS_17__normal_iteratorIT_T0_E15difference_typeERKSA_SD_ @7945
    _ZN9__gnu_cxxmiIPN4giac6heap_tESt6vectorIS2_SaIS2_EEEENS_17__normal_iteratorIT_T0_E15difference_typeERKSA_SD_ @7946
    _ZN9__gnu_cxxmiIPN4giac6info_tESt6vectorIS2_SaIS2_EEEENS_17__normal_iteratorIT_T0_E15difference_typeERKSA_SD_ @7947
    _ZN9__gnu_cxxmiIPN4giac6monomeESt6vectorIS2_SaIS2_EEEENS_17__normal_iteratorIT_T0_E15difference_typeERKSA_SD_ @7948
    _ZN9__gnu_cxxmiIPN4giac6tdeg_tESt6vectorIS2_SaIS2_EEEENS_17__normal_iteratorIT_T0_E15difference_typeERKSA_SD_ @7949
    _ZN9__gnu_cxxmiIPN4giac6tensorINS1_3genEEESt6vectorIS4_SaIS4_EEEENS_17__normal_iteratorIT_T0_E15difference_typeERKSC_SF_ @7950
    _ZN9__gnu_cxxmiIPN4giac7basis_tESt6vectorIS2_SaIS2_EEEENS_17__normal_iteratorIT_T0_E15difference_typeERKSA_SD_ @7951
    _ZN9__gnu_cxxmiIPN4giac7facteurINS1_15dbgprint_vectorINS1_3genEEEEESt6vectorIS6_SaIS6_EEEENS_17__normal_iteratorIT_T0_E15difference_typeERKSE_SH_ @7952
    _ZN9__gnu_cxxmiIPN4giac7facteurINS1_6tensorINS1_3genEEEEESt6vectorIS6_SaIS6_EEEENS_17__normal_iteratorIT_T0_E15difference_typeERKSE_SH_ @7953
    _ZN9__gnu_cxxmiIPN4giac7heap_ttESt6vectorIS2_SaIS2_EEEENS_17__normal_iteratorIT_T0_E15difference_typeERKSA_SD_ @7954
    _ZN9__gnu_cxxmiIPN4giac7index_mESt6vectorIS2_SaIS2_EEEENS_17__normal_iteratorIT_T0_E15difference_typeERKSA_SD_ @7955
    _ZN9__gnu_cxxmiIPN4giac7nfactorESt6vectorIS2_SaIS2_EEEENS_17__normal_iteratorIT_T0_E15difference_typeERKSA_SD_ @7956
    _ZN9__gnu_cxxmiIPN4giac7nr_progESt6vectorIS2_SaIS2_EEEENS_17__normal_iteratorIT_T0_E15difference_typeERKSA_SD_ @7957
    _ZN9__gnu_cxxmiIPN4giac7polymodESt6vectorIS2_SaIS2_EEEENS_17__normal_iteratorIT_T0_E15difference_typeERKSA_SD_ @7958
    _ZN9__gnu_cxxmiIPN4giac7zinfo_tESt6vectorIS2_SaIS2_EEEENS_17__normal_iteratorIT_T0_E15difference_typeERKSA_SD_ @7959
    _ZN9__gnu_cxxmiIPN4giac8monomialINS1_3genEEESt6vectorIS4_SaIS4_EEEENS_17__normal_iteratorIT_T0_E15difference_typeERKSC_SF_ @7960
    _ZN9__gnu_cxxmiIPN4giac8sparse32ESt6vectorIS2_SaIS2_EEEENS_17__normal_iteratorIT_T0_E15difference_typeERKSA_SD_ @7961
    _ZN9__gnu_cxxmiIPN4giac8zpolymodESt6vectorIS2_SaIS2_EEEENS_17__normal_iteratorIT_T0_E15difference_typeERKSA_SD_ @7962
    _ZN9__gnu_cxxmiIPN4giac9vectpoly8ESt6vectorIS2_SaIS2_EEEENS_17__normal_iteratorIT_T0_E15difference_typeERKSA_SD_ @7963
    _ZN9__gnu_cxxmiIPPFN4giac3genERKS2_PKNS1_7contextEESt6vectorIS9_SaIS9_EEEENS_17__normal_iteratorIT_T0_E15difference_typeERKSH_SK_ @7964
    _ZN9__gnu_cxxmiIPPKN4giac18unary_function_ptrESt6vectorIS4_SaIS4_EEEENS_17__normal_iteratorIT_T0_E15difference_typeERKSC_SF_ @7965
    _ZN9__gnu_cxxmiIPPKcSt6vectorIS2_SaIS2_EEEENS_17__normal_iteratorIT_T0_E15difference_typeERKSA_SD_ @7966
    _ZN9__gnu_cxxmiIPPN4giac7contextESt6vectorIS3_SaIS3_EEEENS_17__normal_iteratorIT_T0_E15difference_typeERKSB_SE_ @7967
